 zopfli

 Timestamp is 58abc08a (Mon Feb 20 20:22:34 2017)

 Preferred load address is 0000000180000000

 Start         Length     Name                   Class
 0001:00000000 00000110H .text$di                CODE
 0001:00000110 00043640H .text$mn                CODE
 0001:00043750 00000020H .text$mn$00             CODE
 0001:00043770 00000d90H .text$x                 CODE
 0001:00044500 00000174H .text$yd                CODE
 0002:00000000 000002c8H .idata$5                DATA
 0002:000002c8 00000010H .00cfg                  DATA
 0002:000002d8 00000008H .CRT$XCA                DATA
 0002:000002e0 00000038H .CRT$XCC                DATA
 0002:00000318 00000010H .CRT$XCL                DATA
 0002:00000328 00000008H .CRT$XCU                DATA
 0002:00000330 00000008H .CRT$XCZ                DATA
 0002:00000338 00000008H .CRT$XIA                DATA
 0002:00000340 00000030H .CRT$XIC                DATA
 0002:00000370 00000008H .CRT$XIZ                DATA
 0002:00000378 00000008H .CRT$XLA                DATA
 0002:00000380 00000008H .CRT$XLZ                DATA
 0002:00000388 00000008H .CRT$XPA                DATA
 0002:00000390 00000010H .CRT$XPX                DATA
 0002:000003a0 00000008H .CRT$XPXA               DATA
 0002:000003a8 00000008H .CRT$XPZ                DATA
 0002:000003b0 00000008H .CRT$XTA                DATA
 0002:000003b8 00000008H .CRT$XTZ                DATA
 0002:000003c0 000142c8H .rdata                  DATA
 0002:00014688 00000028H .rdata$T                DATA
 0002:000146b0 00000ec4H .rdata$r                DATA
 0002:00015574 000004acH .rdata$zzzdbg           DATA
 0002:00015a20 00000008H .rtc$IAA                DATA
 0002:00015a28 00000008H .rtc$IZZ                DATA
 0002:00015a30 00000008H .rtc$TAA                DATA
 0002:00015a38 00000008H .rtc$TZZ                DATA
 0002:00015a40 000048e8H .xdata                  DATA
 0002:0001a328 00000244H .xdata$x                DATA
 0002:0001a56c 00000020H .didat$2                DATA
 0002:0001a58c 00000024H .didat$3                DATA
 0002:0001a5b0 000001d8H .didat$4                DATA
 0002:0001a788 00000dc0H .didat$6                DATA
 0002:0001b548 000001d8H .didat$7                DATA
 0002:0001b720 00000050H .edata                  DATA
 0002:0001b770 00000014H .idata$2                DATA
 0002:0001b784 00000014H .idata$3                DATA
 0002:0001b798 000002c8H .idata$4                DATA
 0002:0001ba60 00000666H .idata$6                DATA
 0003:00000000 00000ba0H .data                   DATA
 0003:00000ba0 00000560H .data$r                 DATA
 0003:00001100 000001e0H .didat$5                DATA
 0003:000012e0 00001d84H .bss                    DATA
 0004:00000000 0000381cH .pdata                  DATA
 0005:00000000 000000b8H .gfids$x                DATA
 0005:000000b8 000001e4H .gfids$y                DATA
 0006:00000000 00000004H .tls                    DATA
 0006:00000004 00000004H .tls$                   DATA
 0006:00000008 00000001H .tls$ZZZ                DATA
 0007:00000000 00000060H .rsrc$01                DATA
 0007:00000060 00000180H .rsrc$02                DATA

  Address         Publics by Value              Rva+Base               Lib:Object

 0000:00000000       __guard_iat_table          0000000000000000     <absolute>
 0000:00000000       __dynamic_value_reloc_table 0000000000000000     <absolute>
 0000:00000000       __guard_iat_count          0000000000000000     <absolute>
 0000:00000000       __guard_fids_count         0000000000000000     <absolute>
 0000:00000000       ___safe_se_handler_table   0000000000000000     <absolute>
 0000:00000000       ___safe_se_handler_count   0000000000000000     <absolute>
 0000:00000000       __guard_fids_table         0000000000000000     <absolute>
 0000:00000000       __guard_longjmp_table      0000000000000000     <absolute>
 0000:00000000       __guard_longjmp_count      0000000000000000     <absolute>
 0000:00000100       __guard_flags              0000000000000100     <absolute>
 0000:00000000       __ImageBase                0000000180000000     <linker-defined>
 0001:00000110       ?_Deallocate@std@@YAXPEAX_K1@Z 0000000180001110 f i zopfli-binding.obj
 0001:00000230       ?NewInstance@Nan@@YA?AV?$MaybeLocal@VObject@v8@@@v8@@V?$Local@VObjectTemplate@v8@@@3@@Z 0000000180001230 f i zopfli-binding.obj
 0001:000002b0       ?GetFunction@Nan@@YA?AV?$MaybeLocal@VFunction@v8@@@v8@@V?$Local@VFunctionTemplate@v8@@@3@@Z 00000001800012b0 f i zopfli-binding.obj
 0001:00000330       ?Get@Nan@@YA?AV?$MaybeLocal@VValue@v8@@@v8@@V?$Local@VObject@v8@@@3@V?$Local@VValue@v8@@@3@@Z 0000000180001330 f i zopfli-binding.obj
 0001:000003c0       ?Has@Nan@@YA?AV?$Maybe@_N@v8@@V?$Local@VObject@v8@@@3@V?$Local@VString@v8@@@3@@Z 00000001800013c0 f i zopfli-binding.obj
 0001:00000440       ?convert@?$ToFactory@VUint32@v8@@@imp@Nan@@SA?AV?$MaybeLocal@VUint32@v8@@@v8@@V?$Local@VValue@v8@@@5@@Z 0000000180001440 f i zopfli-binding.obj
 0001:000004d0       ?New@?$Factory@VFunctionTemplate@v8@@@imp@Nan@@SA?AV?$Local@VFunctionTemplate@v8@@@v8@@P6AXAEBV?$FunctionCallbackInfo@VValue@v8@@@3@@ZV?$Local@VValue@v8@@@5@V?$Local@VSignature@v8@@@5@@Z 00000001800014d0 f i zopfli-binding.obj
 0001:00000640       ??1EscapableHandleScope@Nan@@QEAA@XZ 0000000180001640 f i zopfli-binding.obj
 0001:00000640       ??1HandleScope@Nan@@QEAA@XZ 0000000180001640 f i zopfli-binding.obj
 0001:00000650       ?ThrowTypeError@Nan@@YAXPEBD@Z 0000000180001650 f i zopfli-binding.obj
 0001:000006f0       ??0Utf8String@Nan@@QEAA@V?$Local@VValue@v8@@@v8@@@Z 00000001800016f0 f i zopfli-binding.obj
 0001:00000800       ??1Utf8String@Nan@@QEAA@XZ 0000000180001800 f i zopfli-binding.obj
 0001:00000820       ?Call@Callback@Nan@@QEBA?AV?$Local@VValue@v8@@@v8@@HQEAV34@@Z 0000000180001820 f i zopfli-binding.obj
 0001:000008d0       ?Call_@Callback@Nan@@AEBA?AV?$Local@VValue@v8@@@v8@@PEAVIsolate@4@V?$Local@VObject@v8@@@4@HQEAV34@@Z 00000001800018d0 f i zopfli-binding.obj
 0001:00000990       ??0AsyncWorker@Nan@@QEAA@PEAVCallback@1@@Z 0000000180001990 f i zopfli-binding.obj
 0001:00000a60       ??1AsyncWorker@Nan@@UEAA@XZ 0000000180001a60 f i zopfli-binding.obj
 0001:00000b20       ?WorkComplete@AsyncWorker@Nan@@UEAAXXZ 0000000180001b20 f i zopfli-binding.obj
 0001:00000bc0       ?Destroy@AsyncWorker@Nan@@UEAAXXZ 0000000180001bc0 f i zopfli-binding.obj
 0001:00000be0       ?HandleOKCallback@AsyncWorker@Nan@@MEAAXXZ 0000000180001be0 f i zopfli-binding.obj
 0001:00000c30       ?HandleErrorCallback@AsyncWorker@Nan@@MEAAXXZ 0000000180001c30 f i zopfli-binding.obj
 0001:00000ce0       ??_GAsyncWorker@Nan@@UEAAPEAXI@Z 0000000180001ce0 f i zopfli-binding.obj
 0001:00000ce0       ??_EAsyncWorker@Nan@@UEAAPEAXI@Z 0000000180001ce0 f i * CIL library *:* CIL module *
 0001:00000d20       ??1?$Persistent@VObject@v8@@V?$NonCopyablePersistentTraits@VObject@v8@@@2@@Nan@@QEAA@XZ 0000000180001d20 f i zopfli-binding.obj
 0001:00000d40       ?AsyncExecute@Nan@@YAXPEAUuv_work_s@@@Z 0000000180001d40 f i zopfli-binding.obj
 0001:00000db0       ?AsyncExecuteComplete@Nan@@YAXPEAUuv_work_s@@@Z 0000000180001db0 f i zopfli-binding.obj
 0001:00000df0       ?ParseArgs@nodezopfli@@YAXAEBV?$FunctionCallbackInfo@VValue@v8@@@Nan@@AEAW4ZopfliFormat@@AEAUZopfliOptions@@@Z 0000000180001df0 f i zopfli-binding.obj
 0001:00001480       ??0CompressWorker@nodezopfli@@QEAA@PEAVCallback@Nan@@AEAW4ZopfliFormat@@AEAUZopfliOptions@@V?$Local@VObject@v8@@@v8@@@Z 0000000180002480 f i zopfli-binding.obj
 0001:00001610       ?Execute@CompressWorker@nodezopfli@@UEAAXXZ 0000000180002610 f i zopfli-binding.obj
 0001:00001660       ?HandleOKCallback@CompressWorker@nodezopfli@@UEAAXXZ 0000000180002660 f i zopfli-binding.obj
 0001:00001730       ??_GCompressWorker@nodezopfli@@UEAAPEAXI@Z 0000000180002730 f i zopfli-binding.obj
 0001:00001730       ??_ECompressWorker@nodezopfli@@UEAAPEAXI@Z 0000000180002730 f i * CIL library *:* CIL module *
 0001:00001780       ?Async@CompressBinding@nodezopfli@@SAXAEBV?$FunctionCallbackInfo@VValue@v8@@@Nan@@@Z 0000000180002780 f   zopfli-binding.obj
 0001:00001910       ?Sync@CompressBinding@nodezopfli@@SAXAEBV?$FunctionCallbackInfo@VValue@v8@@@Nan@@@Z 0000000180002910 f   zopfli-binding.obj
 0001:00001ac0       ?updateAdler32@nodezopfli@@YAIIPEBE_K@Z 0000000180002ac0 f   zopfli-binding.obj
 0001:00001b40       ?Adler32@nodezopfli@@YAXAEBV?$FunctionCallbackInfo@VValue@v8@@@Nan@@@Z 0000000180002b40 f   zopfli-binding.obj
 0001:00001ce0       ?Init@nodezopfli@@YAXV?$Local@VObject@v8@@@v8@@@Z 0000000180002ce0 f   zopfli-binding.obj
 0001:00001d60       ??1?$basic_string@DU?$char_traits@D@std@@V?$allocator@D@2@@std@@QEAA@XZ 0000000180002d60 f i zopfli-binding.obj
 0001:00001df0       ??4?$basic_string@DU?$char_traits@D@std@@V?$allocator@D@2@@std@@QEAAAEAV01@$$QEAV01@@Z 0000000180002df0 f i zopfli-binding.obj
 0001:00001ea0       ?assign@?$basic_string@DU?$char_traits@D@std@@V?$allocator@D@2@@std@@QEAAAEAV12@PEBD_K@Z 0000000180002ea0 f i zopfli-binding.obj
 0001:00001fd0       ?assign@?$basic_string@DU?$char_traits@D@std@@V?$allocator@D@2@@std@@QEAAAEAV12@AEBV12@_K1@Z 0000000180002fd0 f i zopfli-binding.obj
 0001:00002100       ?_Assign_rv@?$basic_string@DU?$char_traits@D@std@@V?$allocator@D@2@@std@@QEAAX$$QEAV12@@Z 0000000180003100 f i zopfli-binding.obj
 0001:00002180       ?erase@?$basic_string@DU?$char_traits@D@std@@V?$allocator@D@2@@std@@QEAAAEAV12@_K0@Z 0000000180003180 f i zopfli-binding.obj
 0001:00002250       ?_Copy@?$basic_string@DU?$char_traits@D@std@@V?$allocator@D@2@@std@@QEAAX_K0@Z 0000000180003250 f i zopfli-binding.obj
 0001:000023d0       ??$SetMethod@VObject@v8@@VLocal@2@@Nan@@YAXV?$Local@VObject@v8@@@v8@@PEBDP6AXAEBV?$FunctionCallbackInfo@VValue@v8@@@0@@Z@Z 00000001800033d0 f i zopfli-binding.obj
 0001:00002490       ??$SetMethodAux@V?$Local@VObject@v8@@@v8@@@imp@Nan@@YAXV?$Local@VObject@v8@@@v8@@V?$Local@VString@v8@@@3@V?$Local@VFunctionTemplate@v8@@@3@ZZ 0000000180003490 f i zopfli-binding.obj
 0001:000024e0       __local_stdio_printf_options 00000001800034e0 f i zopflipng.obj
 0001:000024f0       printf                     00000001800034f0 f i zopflipng.obj
 0001:00002550       ?convert@?$ToFactory@VInteger@v8@@@imp@Nan@@SA?AV?$MaybeLocal@VInteger@v8@@@v8@@V?$Local@VValue@v8@@@5@@Z 0000000180003550 f i zopflipng.obj
 0001:000025e0       ?parseOptions@@YAXAEBV?$Local@VObject@v8@@@v8@@AEAUZopfliPNGOptions@@@Z 00000001800035e0 f   zopflipng.obj
 0001:00003060       ?PNGDeflate@@YAXAEBV?$FunctionCallbackInfo@VValue@v8@@@Nan@@@Z 0000000180004060 f   zopflipng.obj
 0001:00003900       ??1ZopfliPNGOptions@@QEAA@XZ 0000000180004900 f i zopflipng.obj
 0001:00003980       ??1?$vector@V?$basic_string@DU?$char_traits@D@std@@V?$allocator@D@2@@std@@V?$allocator@V?$basic_string@DU?$char_traits@D@std@@V?$allocator@D@2@@std@@@2@@std@@QEAA@XZ 0000000180004980 f i zopflipng.obj
 0001:000039c0       ??1?$vector@EV?$allocator@E@std@@@std@@QEAA@XZ 00000001800049c0 f i zopflipng.obj
 0001:000039d0       ?_Reserve@?$vector@W4ZopfliPNGFilterStrategy@@V?$allocator@W4ZopfliPNGFilterStrategy@@@std@@@std@@IEAAX_K@Z 00000001800049d0 f i zopflipng.obj
 0001:00003a60       ?_Tidy@?$vector@EV?$allocator@E@std@@@std@@IEAAXXZ 0000000180004a60 f i zopflipng.obj
 0001:00003ad0       ?append@?$basic_string@DU?$char_traits@D@std@@V?$allocator@D@2@@std@@QEAAAEAV12@AEBV12@_K1@Z 0000000180004ad0 f i zopflipng.obj
 0001:00003c00       ?deallocate@?$_Wrap_alloc@V?$allocator@E@std@@@std@@QEAAXPEAE_K@Z 0000000180004c00 f i zopflipng.obj
 0001:00003c60       ?deallocate@?$_Wrap_alloc@V?$allocator@V?$basic_string@DU?$char_traits@D@std@@V?$allocator@D@2@@std@@@std@@@std@@QEAAXPEAV?$basic_string@DU?$char_traits@D@std@@V?$allocator@D@2@@2@_K@Z 0000000180004c60 f i zopflipng.obj
 0001:00003cd0       ?deallocate@?$_Wrap_alloc@V?$allocator@W4ZopfliPNGFilterStrategy@@@std@@@std@@QEAAXPEAW4ZopfliPNGFilterStrategy@@_K@Z 0000000180004cd0 f i zopflipng.obj
 0001:00003d40       ?_Reallocate@?$vector@W4ZopfliPNGFilterStrategy@@V?$allocator@W4ZopfliPNGFilterStrategy@@@std@@@std@@IEAAX_K@Z 0000000180004d40 f i zopflipng.obj
 0001:00003e20       ??$?HDU?$char_traits@D@std@@V?$allocator@D@1@@std@@YA?AV?$basic_string@DU?$char_traits@D@std@@V?$allocator@D@2@@0@$$QEAV10@AEBV10@@Z 0000000180004e20 f i zopflipng.obj
 0001:00003e70       ??$_Destroy_range1@V?$allocator@V?$basic_string@DU?$char_traits@D@std@@V?$allocator@D@2@@std@@@std@@PEAV?$basic_string@DU?$char_traits@D@std@@V?$allocator@D@2@@2@@std@@YAXPEAV?$basic_string@DU?$char_traits@D@std@@V?$allocator@D@2@@0@0AEAU?$_Wrap_alloc@V?$allocator@V?$basic_string@DU?$char_traits@D@std@@V?$allocator@D@2@@std@@@std@@@0@U?$integral_constant@_N$0A@@0@@Z 0000000180004e70 f i zopflipng.obj
 0001:00003f30       fprintf                    0000000180004f30 f i blocksplitter.obj
 0001:00004480       ZopfliBlockSplitLZ77       0000000180005480 f   blocksplitter.obj
 0001:00004760       ZopfliBlockSplit           0000000180005760 f   blocksplitter.obj
 0001:00004920       ZopfliInitCache            0000000180005920 f   cache.obj
 0001:00004ad0       ZopfliSublenToCache        0000000180005ad0 f   cache.obj
 0001:00005eb0       OptimizeHuffmanForRle      0000000180006eb0 f   deflate.obj
 0001:000061f0       ZopfliCalculateBlockSize   00000001800071f0 f   deflate.obj
 0001:00006f80       ZopfliDeflate              0000000180007f80 f   deflate.obj
 0001:000071b0       ZopfliGzipCompress         00000001800081b0 f   gzip_container.obj
 0001:000076d0       ZopfliInitHash             00000001800086d0 f   hash.obj
 0001:00007800       ZopfliUpdateHash           0000000180008800 f   hash.obj
 0001:00007d10       ZopfliLengthLimitedCodeLengths 0000000180008d10 f   katajainen.obj
 0001:00007f30       ZopfliStoreLitLenDist      0000000180008f30 f   lz77.obj
 0001:00007ff0       ZopfliVerifyLenDist        0000000180008ff0 f   lz77.obj
 0001:00008400       ZopfliFindLongestMatch     0000000180009400 f   lz77.obj
 0001:00008910       ZopfliLZ77Greedy           0000000180009910 f   lz77.obj
 0001:00008c90       ZopfliLZ77Counts           0000000180009c90 f   lz77.obj
 0001:0000a290       ZopfliLZ77Optimal          000000018000b290 f   squeeze.obj
 0001:0000a920       ZopfliLZ77OptimalFixed     000000018000b920 f   squeeze.obj
 0001:0000aa60       ZopfliCalculateEntropy     000000018000ba60 f   tree.obj
 0001:0000abf0       ZopfliGetDistExtraBits     000000018000bbf0 f   util.obj
 0001:0000aca0       ZopfliGetDistExtraBitsValue 000000018000bca0 f   util.obj
 0001:0000ad40       ZopfliGetDistSymbol        000000018000bd40 f   util.obj
 0001:0000af00       ZopfliZlibCompress         000000018000bf00 f   zlib_container.obj
 0001:0000b150       ZopfliCompress             000000018000c150 f   zopfli_lib.obj
 0001:0000b200       _guard_check_icall_nop     000000018000c200 f i LIBCMT:guard_support.obj
 0001:0000b200       ??3@YAXPEAX0@Z             000000018000c200 f i zopflipng_lib.obj
 0001:0000b200       ?_Doraise@exception@stdext@@MEBAXXZ 000000018000c200 f i lodepng.obj
 0001:0000b200       ?_Unlock@?$basic_streambuf@DU?$char_traits@D@std@@@std@@UEAAXXZ 000000018000c200 f i lodepng.obj
 0001:0000b200       __except_validate_context_record 000000018000c200 f i libvcruntime:jbcxrval.obj
 0001:0000b200       ?imbue@?$basic_streambuf@DU?$char_traits@D@std@@@std@@MEAAXAEBVlocale@2@@Z 000000018000c200 f i lodepng.obj
 0001:0000b200       ?_Lock@?$basic_streambuf@DU?$char_traits@D@std@@@std@@UEAAXXZ 000000018000c200 f i lodepng.obj
 0001:0000b210       ?CustomPNGDeflate@@YAIPEAPEAEPEA_KPEBE_KPEBULodePNGCompressSettings@@@Z 000000018000c210 f   zopflipng_lib.obj
 0001:0000b370       ?LossyOptimizeTransparent@@YAXPEAVState@lodepng@@PEAEII@Z 000000018000c370 f   zopflipng_lib.obj
 0001:0000bdf0       ??1?$set@IU?$less@I@std@@V?$allocator@I@2@@std@@QEAA@XZ 000000018000cdf0 f i zopflipng_lib.obj
 0001:0000be20       ?TryOptimize@@YAIAEBV?$vector@EV?$allocator@E@std@@@std@@IIAEBVState@lodepng@@_N0W4ZopfliPNGFilterStrategy@@2HPEBUZopfliPNGOptions@@PEAV12@@Z 000000018000ce20 f   zopflipng_lib.obj
 0001:0000c440       ?AutoChooseFilterStrategy@@YAIAEBV?$vector@EV?$allocator@E@std@@@std@@IIAEBVState@lodepng@@_N0HPEAW4ZopfliPNGFilterStrategy@@PEA_N@Z 000000018000d440 f   zopflipng_lib.obj
 0001:0000c600       ?KeepChunks@@YAXAEBV?$vector@EV?$allocator@E@std@@@std@@AEBV?$vector@V?$basic_string@DU?$char_traits@D@std@@V?$allocator@D@2@@std@@V?$allocator@V?$basic_string@DU?$char_traits@D@std@@V?$allocator@D@2@@std@@@2@@2@PEAV12@@Z 000000018000d600 f   zopflipng_lib.obj
 0001:0000caa0       ?ZopfliPNGOptimize@@YAHAEBV?$vector@EV?$allocator@E@std@@@std@@AEBUZopfliPNGOptions@@_NPEAV12@@Z 000000018000daa0 f   zopflipng_lib.obj
 0001:0000d280       ?clear@?$_Tree@V?$_Tset_traits@IU?$less@I@std@@V?$allocator@I@2@$0A@@std@@@std@@QEAAXXZ 000000018000e280 f i zopflipng_lib.obj
 0001:0000d2f0       ??1?$vector@V?$vector@EV?$allocator@E@std@@@std@@V?$allocator@V?$vector@EV?$allocator@E@std@@@std@@@2@@std@@QEAA@XZ 000000018000e2f0 f i zopflipng_lib.obj
 0001:0000d350       ??0?$vector@V?$vector@EV?$allocator@E@std@@@std@@V?$allocator@V?$vector@EV?$allocator@E@std@@@std@@@2@@std@@QEAA@XZ 000000018000e350 f i zopflipng_lib.obj
 0001:0000d350       ??0?$vector@V?$basic_string@DU?$char_traits@D@std@@V?$allocator@D@2@@std@@V?$allocator@V?$basic_string@DU?$char_traits@D@std@@V?$allocator@D@2@@std@@@2@@std@@QEAA@XZ 000000018000e350 f i zopflipng_lib.obj
 0001:0000d370       ?resize@?$vector@EV?$allocator@E@std@@@std@@QEAAX_KAEBE@Z 000000018000e370 f i zopflipng_lib.obj
 0001:0000d4c0       ?_Erase@?$_Tree@V?$_Tset_traits@IU?$less@I@std@@V?$allocator@I@2@$0A@@std@@@std@@IEAAXPEAU?$_Tree_node@IPEAX@2@@Z 000000018000e4c0 f i zopflipng_lib.obj
 0001:0000d510       ?_Reserve@?$vector@V?$vector@EV?$allocator@E@std@@@std@@V?$allocator@V?$vector@EV?$allocator@E@std@@@std@@@2@@std@@IEAAX_K@Z 000000018000e510 f i zopflipng_lib.obj
 0001:0000d5e0       ?_Reserve@?$vector@EV?$allocator@E@std@@@std@@IEAAX_K@Z 000000018000e5e0 f i zopflipng_lib.obj
 0001:0000d660       ?_Reserve@?$vector@V?$basic_string@DU?$char_traits@D@std@@V?$allocator@D@2@@std@@V?$allocator@V?$basic_string@DU?$char_traits@D@std@@V?$allocator@D@2@@std@@@2@@std@@IEAAX_K@Z 000000018000e660 f i zopflipng_lib.obj
 0001:0000d6f0       ?deallocate@?$_Wrap_alloc@V?$allocator@V?$vector@EV?$allocator@E@std@@@std@@@std@@@std@@QEAAXPEAV?$vector@EV?$allocator@E@std@@@2@_K@Z 000000018000e6f0 f i zopflipng_lib.obj
 0001:0000d760       ?erase@?$_Tree@V?$_Tset_traits@IU?$less@I@std@@V?$allocator@I@2@$0A@@std@@@std@@QEAA?AV?$_Tree_const_iterator@V?$_Tree_val@U?$_Tree_simple_types@I@std@@@std@@@2@V32@0@Z 000000018000e760 f i zopflipng_lib.obj
 0001:0000d840       ?_Reallocate@?$vector@V?$vector@EV?$allocator@E@std@@@std@@V?$allocator@V?$vector@EV?$allocator@E@std@@@std@@@2@@std@@IEAAX_K@Z 000000018000e840 f i zopflipng_lib.obj
 0001:0000d9b0       ?_Reallocate@?$vector@EV?$allocator@E@std@@@std@@IEAAX_K@Z 000000018000e9b0 f i zopflipng_lib.obj
 0001:0000dab0       ?_Reallocate@?$vector@V?$basic_string@DU?$char_traits@D@std@@V?$allocator@D@2@@std@@V?$allocator@V?$basic_string@DU?$char_traits@D@std@@V?$allocator@D@2@@std@@@2@@std@@IEAAX_K@Z 000000018000eab0 f i zopflipng_lib.obj
 0001:0000dbe0       ?allocate@?$_Wrap_alloc@V?$allocator@E@std@@@std@@QEAAPEAE_K@Z 000000018000ebe0 f i zopflipng_lib.obj
 0001:0000dc40       ?erase@?$_Tree@V?$_Tset_traits@IU?$less@I@std@@V?$allocator@I@2@$0A@@std@@@std@@QEAA?AV?$_Tree_const_iterator@V?$_Tree_val@U?$_Tree_simple_types@I@std@@@std@@@2@V32@@Z 000000018000ec40 f i zopflipng_lib.obj
 0001:0000e080       ?_Rrotate@?$_Tree@V?$_Tset_traits@IU?$less@I@std@@V?$allocator@I@2@$0A@@std@@@std@@IEAAXPEAU?$_Tree_node@IPEAX@2@@Z 000000018000f080 f i zopflipng_lib.obj
 0001:0000e0e0       ?_Lrotate@?$_Tree@V?$_Tset_traits@IU?$less@I@std@@V?$allocator@I@2@$0A@@std@@@std@@IEAAXPEAU?$_Tree_node@IPEAX@2@@Z 000000018000f0e0 f i zopflipng_lib.obj
 0001:0000e140       ??$_Destroy_range1@V?$allocator@V?$vector@EV?$allocator@E@std@@@std@@@std@@PEAV?$vector@EV?$allocator@E@std@@@2@@std@@YAXPEAV?$vector@EV?$allocator@E@std@@@0@0AEAU?$_Wrap_alloc@V?$allocator@V?$vector@EV?$allocator@E@std@@@std@@@std@@@0@U?$integral_constant@_N$0A@@0@@Z 000000018000f140 f i zopflipng_lib.obj
 0001:0000e1e0       ??$_Insert_at@AEBIU_Nil@std@@@?$_Tree@V?$_Tset_traits@IU?$less@I@std@@V?$allocator@I@2@$0A@@std@@@std@@IEAA?AV?$_Tree_const_iterator@V?$_Tree_val@U?$_Tree_simple_types@I@std@@@std@@@1@_NPEAU?$_Tree_node@IPEAX@1@AEBIU_Nil@1@@Z 000000018000f1e0 f i zopflipng_lib.obj
 0001:0000e4f0       ?_Buy@?$vector@EV?$allocator@E@std@@@std@@IEAA_N_K@Z 000000018000f4f0 f i zopflipng_lib.obj
 0001:0000e570       ?what@exception@stdext@@UEBAPEBDXZ 000000018000f570 f i lodepng.obj
 0001:0000e590       ?_Raise@exception@stdext@@QEBAXXZ 000000018000f590 f i lodepng.obj
 0001:0000e5d0       ??_Gexception@stdext@@UEAAPEAXI@Z 000000018000f5d0 f i lodepng.obj
 0001:0000e5d0       ??_Gruntime_error@std@@UEAAPEAXI@Z 000000018000f5d0 f i lodepng.obj
 0001:0000e5d0       ??_Eexception@stdext@@UEAAPEAXI@Z 000000018000f5d0 f i * CIL library *:* CIL module *
 0001:0000e5d0       ??_Eruntime_error@std@@UEAAPEAXI@Z 000000018000f5d0 f i * CIL library *:* CIL module *
 0001:0000e600       ??1failure@ios_base@std@@UEAA@XZ 000000018000f600 f i lodepng.obj
 0001:0000e600       ??1runtime_error@std@@UEAA@XZ 000000018000f600 f i lodepng.obj
 0001:0000e610       ??1_Locinfo@std@@QEAA@XZ   000000018000f610 f i lodepng.obj
 0001:0000e6b0       ??_G_Facet_base@std@@UEAAPEAXI@Z 000000018000f6b0 f i lodepng.obj
 0001:0000e6b0       ??_E_Facet_base@std@@UEAAPEAXI@Z 000000018000f6b0 f i * CIL library *:* CIL module *
 0001:0000e6e0       ?_Incref@facet@locale@std@@UEAAXXZ 000000018000f6e0 f i lodepng.obj
 0001:0000e6f0       ?_Decref@facet@locale@std@@UEAAPEAV_Facet_base@3@XZ 000000018000f6f0 f i lodepng.obj
 0001:0000e700       ??1locale@std@@QEAA@XZ     000000018000f700 f i lodepng.obj
 0001:0000e730       DllMain                    000000018000f730 f i LIBCMT:dll_dllmain_stub.obj
 0001:0000e730       _get_startup_argv_mode     000000018000f730 f i LIBCMT:argv_mode.obj
 0001:0000e730       ?do_max_length@codecvt_base@std@@MEBAHXZ 000000018000f730 f i lodepng.obj
 0001:0000e730       ?do_encoding@codecvt_base@std@@MEBAHXZ 000000018000f730 f i lodepng.obj
 0001:0000e740       ?_Getcat@?$ctype@D@std@@SA_KPEAPEBVfacet@locale@2@PEBV42@@Z 000000018000f740 f i lodepng.obj
 0001:0000e8a0       ?do_tolower@?$ctype@D@std@@MEBADD@Z 000000018000f8a0 f i lodepng.obj
 0001:0000e8b0       ?do_tolower@?$ctype@D@std@@MEBAPEBDPEADPEBD@Z 000000018000f8b0 f i lodepng.obj
 0001:0000e910       ?do_toupper@?$ctype@D@std@@MEBADD@Z 000000018000f910 f i lodepng.obj
 0001:0000e920       ?do_toupper@?$ctype@D@std@@MEBAPEBDPEADPEBD@Z 000000018000f920 f i lodepng.obj
 0001:0000e980       ?do_widen@?$ctype@D@std@@MEBADD@Z 000000018000f980 f i lodepng.obj
 0001:0000e980       ?do_narrow@?$ctype@D@std@@MEBADDD@Z 000000018000f980 f i lodepng.obj
 0001:0000e990       ?do_widen@?$ctype@D@std@@MEBAPEBDPEBD0PEAD@Z 000000018000f990 f i lodepng.obj
 0001:0000e9b0       ?do_narrow@?$ctype@D@std@@MEBAPEBDPEBD0DPEAD@Z 000000018000f9b0 f i lodepng.obj
 0001:0000e9d0       ??_E?$ctype@D@std@@MEAAPEAXI@Z 000000018000f9d0 f i * CIL library *:* CIL module *
 0001:0000e9d0       ??_G?$ctype@D@std@@MEAAPEAXI@Z 000000018000f9d0 f i lodepng.obj
 0001:0000ea40       ??_Eerror_category@std@@UEAAPEAXI@Z 000000018000fa40 f i * CIL library *:* CIL module *
 0001:0000ea40       ??_G_Iostream_error_category@std@@UEAAPEAXI@Z 000000018000fa40 f i lodepng.obj
 0001:0000ea40       ??_Gerror_category@std@@UEAAPEAXI@Z 000000018000fa40 f i lodepng.obj
 0001:0000ea40       ??_E_Iostream_error_category@std@@UEAAPEAXI@Z 000000018000fa40 f i * CIL library *:* CIL module *
 0001:0000ea70       ?message@error_code@std@@QEBA?AV?$basic_string@DU?$char_traits@D@std@@V?$allocator@D@2@@2@XZ 000000018000fa70 f i lodepng.obj
 0001:0000eaa0       ?default_error_condition@error_category@std@@UEBA?AVerror_condition@2@H@Z 000000018000faa0 f i lodepng.obj
 0001:0000eab0       ?equivalent@error_category@std@@UEBA_NHAEBVerror_condition@2@@Z 000000018000fab0 f i lodepng.obj
 0001:0000eb10       ?equivalent@error_category@std@@UEBA_NAEBVerror_code@2@H@Z 000000018000fb10 f i lodepng.obj
 0001:0000eb30       ?_Makestr@_System_error@std@@CA?AV?$basic_string@DU?$char_traits@D@std@@V?$allocator@D@2@@2@Verror_code@2@V32@@Z 000000018000fb30 f i lodepng.obj
 0001:0000ec40       ??_E_System_error@std@@UEAAPEAXI@Z 000000018000fc40 f i * CIL library *:* CIL module *
 0001:0000ec40       ??_Efailure@ios_base@std@@UEAAPEAXI@Z 000000018000fc40 f i * CIL library *:* CIL module *
 0001:0000ec40       ??_Gfailure@ios_base@std@@UEAAPEAXI@Z 000000018000fc40 f i lodepng.obj
 0001:0000ec40       ??_G_System_error@std@@UEAAPEAXI@Z 000000018000fc40 f i lodepng.obj
 0001:0000ec70       ?message@_Generic_error_category@std@@UEBA?AV?$basic_string@DU?$char_traits@D@std@@V?$allocator@D@2@@2@H@Z 000000018000fc70 f i lodepng.obj
 0001:0000ecd0       ?name@_Iostream_error_category@std@@UEBAPEBDXZ 000000018000fcd0 f i lodepng.obj
 0001:0000ece0       ?message@_Iostream_error_category@std@@UEBA?AV?$basic_string@DU?$char_traits@D@std@@V?$allocator@D@2@@2@H@Z 000000018000fce0 f i lodepng.obj
 0001:0000ed30       ?clear@ios_base@std@@QEAAXH_N@Z 000000018000fd30 f i lodepng.obj
 0001:0000f1d0       ?getloc@ios_base@std@@QEBA?AVlocale@2@XZ 00000001800101d0 f i lodepng.obj
 0001:0000f200       ?_Init@ios_base@std@@IEAAXXZ 0000000180010200 f i lodepng.obj
 0001:0000f280       ??_Gios_base@std@@UEAAPEAXI@Z 0000000180010280 f i lodepng.obj
 0001:0000f280       ??_Eios_base@std@@UEAAPEAXI@Z 0000000180010280 f i * CIL library *:* CIL module *
 0001:0000f2c0       ??1LodePNGState@@UEAA@XZ   00000001800102c0 f i lodepng.obj
 0001:0000f2d0       ??_GLodePNGState@@UEAAPEAXI@Z 00000001800102d0 f i lodepng.obj
 0001:0000f2d0       ??_ELodePNGState@@UEAAPEAXI@Z 00000001800102d0 f i * CIL library *:* CIL module *
 0001:0000ff50       ?lodepng_huffman_code_lengths@@YAIPEAIPEBI_KI@Z 0000000180010f50 f   lodepng.obj
 0001:00012f30       ?lodepng_zlib_decompress@@YAIPEAPEAEPEA_KPEBE_KPEBULodePNGDecompressSettings@@@Z 0000000180013f30 f   lodepng.obj
 0001:00013090       ?lodepng_zlib_compress@@YAIPEAPEAEPEA_KPEBE_KPEBULodePNGCompressSettings@@@Z 0000000180014090 f   lodepng.obj
 0001:000132a0       ?lodepng_chunk_type_equals@@YAEPEBEPEBD@Z 00000001800142a0 f   lodepng.obj
 0001:00013300       ?lodepng_chunk_check_crc@@YAIPEBE@Z 0000000180014300 f   lodepng.obj
 0001:000133b0       ?lodepng_chunk_generate_crc@@YAXPEAE@Z 00000001800143b0 f   lodepng.obj
 0001:00013450       ?lodepng_chunk_append@@YAIPEAPEAEPEA_KPEBE@Z 0000000180014450 f   lodepng.obj
 0001:00013520       ?lodepng_chunk_create@@YAIPEAPEAEPEA_KIPEBDPEBE@Z 0000000180014520 f   lodepng.obj
 0001:00013680       ?lodepng_color_mode_copy@@YAIPEAULodePNGColorMode@@PEBU1@@Z 0000000180014680 f   lodepng.obj
 0001:000137d0       ?lodepng_palette_add@@YAIPEAULodePNGColorMode@@EEEE@Z 00000001800147d0 f   lodepng.obj
 0001:00013870       ?lodepng_get_raw_size@@YA_KIIPEBULodePNGColorMode@@@Z 0000000180014870 f   lodepng.obj
 0001:00013c00       ?lodepng_add_text@@YAIPEAULodePNGInfo@@PEBD1@Z 0000000180014c00 f   lodepng.obj
 0001:00014060       ?lodepng_add_itext@@YAIPEAULodePNGInfo@@PEBD111@Z 0000000180015060 f   lodepng.obj
 0001:00014230       ?lodepng_info_cleanup@@YAXPEAULodePNGInfo@@@Z 0000000180015230 f   lodepng.obj
 0001:00014290       ?lodepng_info_copy@@YAIPEAULodePNGInfo@@PEBU1@@Z 0000000180015290 f   lodepng.obj
 0001:000154d0       ?lodepng_convert@@YAIPEAEPEBEPEAULodePNGColorMode@@PEBU1@III@Z 00000001800164d0 f   lodepng.obj
 0001:00016060       ?lodepng_auto_choose_color@@YAIPEAULodePNGColorMode@@PEBEIIPEBU1@W4LodePNGAutoConvert@@@Z 0000000180017060 f   lodepng.obj
 0001:000164d0       ?lodepng_inspect@@YAIPEAI0PEAULodePNGState@@PEBE_K@Z 00000001800174d0 f   lodepng.obj
 0001:000185a0       ?lodepng_decode@@YAIPEAPEAEPEAI1PEAULodePNGState@@PEBE_K@Z 00000001800195a0 f   lodepng.obj
 0001:00018710       ?lodepng_decode_memory@@YAIPEAPEAEPEAI1PEBE_KW4LodePNGColorType@@I@Z 0000000180019710 f   lodepng.obj
 0001:00018830       ?lodepng_state_init@@YAXPEAULodePNGState@@@Z 0000000180019830 f   lodepng.obj
 0001:000189b0       ?lodepng_state_cleanup@@YAXPEAULodePNGState@@@Z 00000001800199b0 f   lodepng.obj
 0001:0001b5a0       ?lodepng_encode@@YAIPEAPEAEPEA_KPEBEIIPEAULodePNGState@@@Z 000000018001c5a0 f   lodepng.obj
 0001:0001bdf0       ?lodepng_error_text@@YAPEBDI@Z 000000018001cdf0 f   lodepng.obj
 0001:0001c1e0       ?load_file@lodepng@@YAXAEAV?$vector@EV?$allocator@E@std@@@std@@AEBV?$basic_string@DU?$char_traits@D@std@@V?$allocator@D@2@@3@@Z 000000018001d1e0 f   lodepng.obj
 0001:0001c2e0       ??_D?$basic_ifstream@DU?$char_traits@D@std@@@std@@QEAAXXZ 000000018001d2e0 f i lodepng.obj
 0001:0001c310       ??_D?$basic_ofstream@DU?$char_traits@D@std@@@std@@QEAAXXZ 000000018001d310 f i lodepng.obj
 0001:0001c340       ??_GState@lodepng@@UEAAPEAXI@Z 000000018001d340 f i lodepng.obj
 0001:0001c340       ??_EState@lodepng@@UEAAPEAXI@Z 000000018001d340 f i * CIL library *:* CIL module *
 0001:0001c390       ??1State@lodepng@@UEAA@XZ  000000018001d390 f   lodepng.obj
 0001:0001c3c0       ?decode@lodepng@@YAIAEAV?$vector@EV?$allocator@E@std@@@std@@AEAI1PEBE_KW4LodePNGColorType@@I@Z 000000018001d3c0 f   lodepng.obj
 0001:0001c530       ?encode@lodepng@@YAIAEAV?$vector@EV?$allocator@E@std@@@std@@AEBV23@IIAEAVState@1@@Z 000000018001d530 f   lodepng.obj
 0001:0001c630       ?resize@?$vector@EV?$allocator@E@std@@@std@@QEAAX_K@Z 000000018001d630 f i lodepng.obj
 0001:0001c700       ??1?$_Yarn@_W@std@@QEAA@XZ 000000018001d700 f i lodepng.obj
 0001:0001c700       ??1?$_Yarn@D@std@@QEAA@XZ  000000018001d700 f i lodepng.obj
 0001:0001c730       ??1?$basic_ofstream@DU?$char_traits@D@std@@@std@@UEAA@XZ 000000018001d730 f i lodepng.obj
 0001:0001c7b0       ??0?$basic_ofstream@DU?$char_traits@D@std@@@std@@QEAA@PEBDHH@Z 000000018001d7b0 f i lodepng.obj
 0001:0001c930       ??1?$basic_ifstream@DU?$char_traits@D@std@@@std@@UEAA@XZ 000000018001d930 f i lodepng.obj
 0001:0001c9b0       ??0?$basic_ifstream@DU?$char_traits@D@std@@@std@@QEAA@PEBDHH@Z 000000018001d9b0 f i lodepng.obj
 0001:0001cb30       ?imbue@?$basic_filebuf@DU?$char_traits@D@std@@@std@@MEAAXAEBVlocale@2@@Z 000000018001db30 f i lodepng.obj
 0001:0001cb60       ?sync@?$basic_filebuf@DU?$char_traits@D@std@@@std@@MEAAHXZ 000000018001db60 f i lodepng.obj
 0001:0001cbb0       ?setbuf@?$basic_filebuf@DU?$char_traits@D@std@@@std@@MEAAPEAV?$basic_streambuf@DU?$char_traits@D@std@@@2@PEAD_J@Z 000000018001dbb0 f i lodepng.obj
 0001:0001cc10       ?seekpos@?$basic_filebuf@DU?$char_traits@D@std@@@std@@MEAA?AV?$fpos@U_Mbstatet@@@2@V32@H@Z 000000018001dc10 f i lodepng.obj
 0001:0001ccf0       ?seekoff@?$basic_filebuf@DU?$char_traits@D@std@@@std@@MEAA?AV?$fpos@U_Mbstatet@@@2@_JHH@Z 000000018001dcf0 f i lodepng.obj
 0001:0001cde0       ?uflow@?$basic_filebuf@DU?$char_traits@D@std@@@std@@MEAAHXZ 000000018001dde0 f i lodepng.obj
 0001:0001d170       ?underflow@?$basic_filebuf@DU?$char_traits@D@std@@@std@@MEAAHXZ 000000018001e170 f i lodepng.obj
 0001:0001d1e0       ?pbackfail@?$basic_filebuf@DU?$char_traits@D@std@@@std@@MEAAHH@Z 000000018001e1e0 f i lodepng.obj
 0001:0001d290       ?overflow@?$basic_filebuf@DU?$char_traits@D@std@@@std@@MEAAHH@Z 000000018001e290 f i lodepng.obj
 0001:0001d550       ?_Unlock@?$basic_filebuf@DU?$char_traits@D@std@@@std@@UEAAXXZ 000000018001e550 f i lodepng.obj
 0001:0001d570       ?_Lock@?$basic_filebuf@DU?$char_traits@D@std@@@std@@UEAAXXZ 000000018001e570 f i lodepng.obj
 0001:0001d590       ??1?$basic_filebuf@DU?$char_traits@D@std@@@std@@UEAA@XZ 000000018001e590 f i lodepng.obj
 0001:0001d640       ?write@?$basic_ostream@DU?$char_traits@D@std@@@std@@QEAAAEAV12@PEBD_J@Z 000000018001e640 f i lodepng.obj
 0001:0001d790       ??1?$basic_ostream@DU?$char_traits@D@std@@@std@@UEAA@XZ 000000018001e790 f i lodepng.obj
 0001:0001d7c0       ?tellg@?$basic_istream@DU?$char_traits@D@std@@@std@@QEAA?AV?$fpos@U_Mbstatet@@@2@XZ 000000018001e7c0 f i lodepng.obj
 0001:0001d8c0       ?seekg@?$basic_istream@DU?$char_traits@D@std@@@std@@QEAAAEAV12@_JH@Z 000000018001e8c0 f i lodepng.obj
 0001:0001da10       ?read@?$basic_istream@DU?$char_traits@D@std@@@std@@QEAAAEAV12@PEAD_J@Z 000000018001ea10 f i lodepng.obj
 0001:0001db40       ??1?$basic_istream@DU?$char_traits@D@std@@@std@@UEAA@XZ 000000018001eb40 f i lodepng.obj
 0001:0001db70       ?sync@?$basic_streambuf@DU?$char_traits@D@std@@@std@@MEAAHXZ 000000018001eb70 f i lodepng.obj
 0001:0001db70       ?showmanyc@?$basic_streambuf@DU?$char_traits@D@std@@@std@@MEAA_JXZ 000000018001eb70 f i lodepng.obj
 0001:0001db80       ?setbuf@?$basic_streambuf@DU?$char_traits@D@std@@@std@@MEAAPEAV12@PEAD_J@Z 000000018001eb80 f i lodepng.obj
 0001:0001db90       ?seekpos@?$basic_streambuf@DU?$char_traits@D@std@@@std@@MEAA?AV?$fpos@U_Mbstatet@@@2@V32@H@Z 000000018001eb90 f i lodepng.obj
 0001:0001db90       ?seekoff@?$basic_streambuf@DU?$char_traits@D@std@@@std@@MEAA?AV?$fpos@U_Mbstatet@@@2@_JHH@Z 000000018001eb90 f i lodepng.obj
 0001:0001dbb0       ?xsputn@?$basic_streambuf@DU?$char_traits@D@std@@@std@@MEAA_JPEBD_J@Z 000000018001ebb0 f i lodepng.obj
 0001:0001dc70       ?xsgetn@?$basic_streambuf@DU?$char_traits@D@std@@@std@@MEAA_JPEAD_J@Z 000000018001ec70 f i lodepng.obj
 0001:0001dd30       ?uflow@?$basic_streambuf@DU?$char_traits@D@std@@@std@@MEAAHXZ 000000018001ed30 f i lodepng.obj
 0001:0001dd70       ?underflow@?$basic_streambuf@DU?$char_traits@D@std@@@std@@MEAAHXZ 000000018001ed70 f i lodepng.obj
 0001:0001dd70       ?overflow@?$basic_streambuf@DU?$char_traits@D@std@@@std@@MEAAHH@Z 000000018001ed70 f i lodepng.obj
 0001:0001dd70       ?pbackfail@?$basic_streambuf@DU?$char_traits@D@std@@@std@@MEAAHH@Z 000000018001ed70 f i lodepng.obj
 0001:0001dd80       ??1?$basic_ios@DU?$char_traits@D@std@@@std@@UEAA@XZ 000000018001ed80 f i lodepng.obj
 0001:0001dd90       ??_E?$basic_ofstream@DU?$char_traits@D@std@@@std@@UEAAPEAXI@Z 000000018001ed90 f i * CIL library *:* CIL module *
 0001:0001dd90       ??_G?$basic_ofstream@DU?$char_traits@D@std@@@std@@UEAAPEAXI@Z 000000018001ed90 f i lodepng.obj
 0001:0001dde0       ??_G?$basic_ifstream@DU?$char_traits@D@std@@@std@@UEAAPEAXI@Z 000000018001ede0 f i lodepng.obj
 0001:0001dde0       ??_E?$basic_ifstream@DU?$char_traits@D@std@@@std@@UEAAPEAXI@Z 000000018001ede0 f i * CIL library *:* CIL module *
 0001:0001de30       ??_E?$basic_filebuf@DU?$char_traits@D@std@@@std@@UEAAPEAXI@Z 000000018001ee30 f i * CIL library *:* CIL module *
 0001:0001de30       ??_G?$basic_filebuf@DU?$char_traits@D@std@@@std@@UEAAPEAXI@Z 000000018001ee30 f i lodepng.obj
 0001:0001de70       ??_G?$basic_ostream@DU?$char_traits@D@std@@@std@@UEAAPEAXI@Z 000000018001ee70 f i lodepng.obj
 0001:0001de70       ??_E?$basic_ostream@DU?$char_traits@D@std@@@std@@UEAAPEAXI@Z 000000018001ee70 f i * CIL library *:* CIL module *
 0001:0001dee0       ??1sentry@?$basic_istream@DU?$char_traits@D@std@@@std@@QEAA@XZ 000000018001eee0 f i lodepng.obj
 0001:0001df10       ??_G?$basic_istream@DU?$char_traits@D@std@@@std@@UEAAPEAXI@Z 000000018001ef10 f i lodepng.obj
 0001:0001df10       ??_E?$basic_istream@DU?$char_traits@D@std@@@std@@UEAAPEAXI@Z 000000018001ef10 f i * CIL library *:* CIL module *
 0001:0001df80       ??_E?$basic_streambuf@DU?$char_traits@D@std@@@std@@UEAAPEAXI@Z 000000018001ef80 f i * CIL library *:* CIL module *
 0001:0001df80       ??_G?$basic_streambuf@DU?$char_traits@D@std@@@std@@UEAAPEAXI@Z 000000018001ef80 f i lodepng.obj
 0001:0001e000       ??_Glocale@std@@QEAAPEAXI@Z 000000018001f000 f i lodepng.obj
 0001:0001e060       ??_G?$basic_ios@DU?$char_traits@D@std@@@std@@UEAAPEAXI@Z 000000018001f060 f i lodepng.obj
 0001:0001e060       ??_E?$basic_ios@DU?$char_traits@D@std@@@std@@UEAAPEAXI@Z 000000018001f060 f i * CIL library *:* CIL module *
 0001:0001e0a0       ??1sentry@?$basic_ostream@DU?$char_traits@D@std@@@std@@QEAA@XZ 000000018001f0a0 f i lodepng.obj
 0001:0001e120       ??0sentry@?$basic_ostream@DU?$char_traits@D@std@@@std@@QEAA@AEAV12@@Z 000000018001f120 f i lodepng.obj
 0001:0001e1a0       ?do_length@?$codecvt@DDU_Mbstatet@@@std@@MEBAHAEAU_Mbstatet@@PEBD1_K@Z 000000018001f1a0 f i lodepng.obj
 0001:0001e1c0       ?do_unshift@?$codecvt@DDU_Mbstatet@@@std@@MEBAHAEAU_Mbstatet@@PEAD1AEAPEAD@Z 000000018001f1c0 f i lodepng.obj
 0001:0001e1d0       ?do_in@?$codecvt@DDU_Mbstatet@@@std@@MEBAHAEAU_Mbstatet@@PEBD1AEAPEBDPEAD3AEAPEAD@Z 000000018001f1d0 f i lodepng.obj
 0001:0001e1d0       ?do_out@?$codecvt@DDU_Mbstatet@@@std@@MEBAHAEAU_Mbstatet@@PEBD1AEAPEBDPEAD3AEAPEAD@Z 000000018001f1d0 f i lodepng.obj
 0001:0001e1f0       ?do_always_noconv@?$codecvt@DDU_Mbstatet@@@std@@MEBA_NXZ 000000018001f1f0 f i lodepng.obj
 0001:0001e1f0       __acrt_uninitialize_command_line 000000018001f1f0 f i libucrt:argv_data.obj
 0001:0001e200       ??1_Sentry_base@?$basic_istream@DU?$char_traits@D@std@@@std@@QEAA@XZ 000000018001f200 f i lodepng.obj
 0001:0001e200       ??1_Sentry_base@?$basic_ostream@DU?$char_traits@D@std@@@std@@QEAA@XZ 000000018001f200 f i lodepng.obj
 0001:0001e220       ?append@?$basic_string@DU?$char_traits@D@std@@V?$allocator@D@2@@std@@QEAAAEAV12@_KD@Z 000000018001f220 f i lodepng.obj
 0001:0001e330       ?append@?$basic_string@DU?$char_traits@D@std@@V?$allocator@D@2@@std@@QEAAAEAV12@PEBD_K@Z 000000018001f330 f i lodepng.obj
 0001:0001e480       ?_Set_back@?$basic_filebuf@DU?$char_traits@D@std@@@std@@AEAAXXZ 000000018001f480 f i lodepng.obj
 0001:0001e4d0       ?_Reset_back@?$basic_filebuf@DU?$char_traits@D@std@@@std@@AEAAXXZ 000000018001f4d0 f i lodepng.obj
 0001:0001e500       ?_Initcvt@?$basic_filebuf@DU?$char_traits@D@std@@@std@@IEAAXPEBV?$codecvt@DDU_Mbstatet@@@2@@Z 000000018001f500 f i lodepng.obj
 0001:0001e5a0       ?_Endwrite@?$basic_filebuf@DU?$char_traits@D@std@@@std@@IEAA_NXZ 000000018001f5a0 f i lodepng.obj
 0001:0001e840       ?_Init@?$basic_filebuf@DU?$char_traits@D@std@@@std@@IEAAXPEAU_iobuf@@W4_Initfl@12@@Z 000000018001f840 f i lodepng.obj
 0001:0001e930       ?close@?$basic_filebuf@DU?$char_traits@D@std@@@std@@QEAAPEAV12@XZ 000000018001f930 f i lodepng.obj
 0001:0001ea00       ?open@?$basic_filebuf@DU?$char_traits@D@std@@@std@@QEAAPEAV12@PEBDHH@Z 000000018001fa00 f i lodepng.obj
 0001:0001eaa0       ??0?$basic_ostream@DU?$char_traits@D@std@@@std@@QEAA@PEAV?$basic_streambuf@DU?$char_traits@D@std@@@1@_N@Z 000000018001faa0 f i lodepng.obj
 0001:0001eb20       ?_Pnavail@?$basic_streambuf@DU?$char_traits@D@std@@@std@@IEBA_JXZ 000000018001fb20 f i lodepng.obj
 0001:0001eb40       ?_Gnavail@?$basic_streambuf@DU?$char_traits@D@std@@@std@@IEBA_JXZ 000000018001fb40 f i lodepng.obj
 0001:0001eb60       ??_E?$codecvt@DDU_Mbstatet@@@std@@MEAAPEAXI@Z 000000018001fb60 f i * CIL library *:* CIL module *
 0001:0001eb60       ??_G?$codecvt@DDU_Mbstatet@@@std@@MEAAPEAXI@Z 000000018001fb60 f i lodepng.obj
 0001:0001eb90       ?flush@?$basic_ostream@DU?$char_traits@D@std@@@std@@QEAAAEAV12@XZ 000000018001fb90 f i lodepng.obj
 0001:0001ec90       ?getloc@?$basic_streambuf@DU?$char_traits@D@std@@@std@@QEBA?AVlocale@2@XZ 000000018001fc90 f i lodepng.obj
 0001:0001ecc0       ??0?$basic_streambuf@DU?$char_traits@D@std@@@std@@IEAA@XZ 000000018001fcc0 f i lodepng.obj
 0001:0001ed70       ?init@?$basic_ios@DU?$char_traits@D@std@@@std@@IEAAXPEAV?$basic_streambuf@DU?$char_traits@D@std@@@2@_N@Z 000000018001fd70 f i lodepng.obj
 0001:0001ee40       ??$use_facet@V?$ctype@D@std@@@std@@YAAEBV?$ctype@D@0@AEBVlocale@0@@Z 000000018001fe40 f i lodepng.obj
 0001:0001ef70       ??$_Immortalize@V_Iostream_error_category@std@@@std@@YAAEAV_Iostream_error_category@0@XZ 000000018001ff70 f i lodepng.obj
 0001:0001eff0       ??$use_facet@V?$codecvt@DDU_Mbstatet@@@std@@@std@@YAAEBV?$codecvt@DDU_Mbstatet@@@0@AEBVlocale@0@@Z 000000018001fff0 f i lodepng.obj
 0001:0001f120       ?_Getcat@?$codecvt@DDU_Mbstatet@@@std@@SA_KPEAPEBVfacet@locale@2@PEBV42@@Z 0000000180020120 f i lodepng.obj
 0001:0001f260       ??$_Insert@PEAE@?$vector@EV?$allocator@E@std@@@std@@QEAAXV?$_Vector_const_iterator@V?$_Vector_val@U?$_Simple_types@E@std@@@std@@@1@PEAE1Uforward_iterator_tag@1@@Z 0000000180020260 f i lodepng.obj
 0001:0001f3c0       ??$_Rotate_unchecked1@PEAE@std@@YAPEAEPEAE00Urandom_access_iterator_tag@0@@Z 00000001800203c0 f i lodepng.obj
 0001:0001f468       ??_E?$basic_ostream@DU?$char_traits@D@std@@@std@@$4PPPPPPPM@A@EAAPEAXI@Z 0000000180020468 f i lodepng.obj
 0001:0001f474       ??_E?$basic_ifstream@DU?$char_traits@D@std@@@std@@$4PPPPPPPM@A@EAAPEAXI@Z 0000000180020474 f i lodepng.obj
 0001:0001f480       ??_E?$basic_istream@DU?$char_traits@D@std@@@std@@$4PPPPPPPM@A@EAAPEAXI@Z 0000000180020480 f i lodepng.obj
 0001:0001f48c       ??_E?$basic_ofstream@DU?$char_traits@D@std@@@std@@$4PPPPPPPM@A@EAAPEAXI@Z 000000018002048c f i lodepng.obj
 0001:0001f4a0       ?getChunks@lodepng@@YAIQEAV?$vector@V?$basic_string@DU?$char_traits@D@std@@V?$allocator@D@2@@std@@V?$allocator@V?$basic_string@DU?$char_traits@D@std@@V?$allocator@D@2@@std@@@2@@std@@QEAV?$vector@V?$vector@EV?$allocator@E@std@@@std@@V?$allocator@V?$vector@EV?$allocator@E@std@@@std@@@2@@3@AEBV?$vector@EV?$allocator@E@std@@@3@@Z 00000001800204a0 f   lodepng_util.obj
 0001:0001f8c0       ?insertChunks@lodepng@@YAIAEAV?$vector@EV?$allocator@E@std@@@std@@QEBV?$vector@V?$vector@EV?$allocator@E@std@@@std@@V?$allocator@V?$vector@EV?$allocator@E@std@@@std@@@2@@3@@Z 00000001800208c0 f   lodepng_util.obj
 0001:0001fe10       ?getFilterTypesInterlaced@lodepng@@YAIAEAV?$vector@V?$vector@EV?$allocator@E@std@@@std@@V?$allocator@V?$vector@EV?$allocator@E@std@@@std@@@2@@std@@AEBV?$vector@EV?$allocator@E@std@@@3@@Z 0000000180020e10 f   lodepng_util.obj
 0001:000208d0       ?getFilterTypes@lodepng@@YAIAEAV?$vector@EV?$allocator@E@std@@@std@@AEBV23@@Z 00000001800218d0 f   lodepng_util.obj
 0001:00020bc0       ?resize@?$vector@V?$vector@EV?$allocator@E@std@@@std@@V?$allocator@V?$vector@EV?$allocator@E@std@@@std@@@2@@std@@QEAAX_K@Z 0000000180021bc0 f i lodepng_util.obj
 0001:00020cc0       ?push_back@?$vector@V?$vector@EV?$allocator@E@std@@@std@@V?$allocator@V?$vector@EV?$allocator@E@std@@@std@@@2@@std@@QEAAX$$QEAV?$vector@EV?$allocator@E@std@@@2@@Z 0000000180021cc0 f i lodepng_util.obj
 0001:00020dd0       ?push_back@?$vector@V?$basic_string@DU?$char_traits@D@std@@V?$allocator@D@2@@std@@V?$allocator@V?$basic_string@DU?$char_traits@D@std@@V?$allocator@D@2@@std@@@2@@std@@QEAAXAEBV?$basic_string@DU?$char_traits@D@std@@V?$allocator@D@2@@2@@Z 0000000180021dd0 f i lodepng_util.obj
 0001:00020ea0       ??4?$vector@EV?$allocator@E@std@@@std@@QEAAAEAV01@AEBV01@@Z 0000000180021ea0 f i lodepng_util.obj
 0001:00020fb0       ??$_Insert@V?$_Vector_const_iterator@V?$_Vector_val@U?$_Simple_types@E@std@@@std@@@std@@@?$vector@EV?$allocator@E@std@@@std@@QEAAXV?$_Vector_const_iterator@V?$_Vector_val@U?$_Simple_types@E@std@@@std@@@1@00Uforward_iterator_tag@1@@Z 0000000180021fb0 f i lodepng_util.obj
 0001:00020fb0       ??$_Insert@V?$_Vector_iterator@V?$_Vector_val@U?$_Simple_types@E@std@@@std@@@std@@@?$vector@EV?$allocator@E@std@@@std@@QEAAXV?$_Vector_const_iterator@V?$_Vector_val@U?$_Simple_types@E@std@@@std@@@1@V?$_Vector_iterator@V?$_Vector_val@U?$_Simple_types@E@std@@@std@@@1@1Uforward_iterator_tag@1@@Z 0000000180021fb0 f i lodepng_util.obj
 0001:0002116c       __imp_load_uv_queue_work   000000018002216c f   node:node.exe
 0001:00021178       __tailMerge_node_exe       0000000180022178 f i node:node.exe
 0001:000211f1       __imp_load_?Global@Context@v8@@QEAA?AV?$Local@VObject@v8@@@2@XZ 00000001800221f1 f   node:node.exe
 0001:000211fd       __imp_load_?Value@External@v8@@QEBAPEAXXZ 00000001800221fd f   node:node.exe
 0001:00021209       __imp_load_?New@External@v8@@SA?AV?$Local@VExternal@v8@@@2@PEAVIsolate@2@PEAX@Z 0000000180022209 f   node:node.exe
 0001:00021215       __imp_load_?NewFromUnsigned@Integer@v8@@SA?AV?$Local@VInteger@v8@@@2@PEAVIsolate@2@I@Z 0000000180022215 f   node:node.exe
 0001:00021221       __imp_load_?ThrowException@Isolate@v8@@QEAA?AV?$Local@VValue@v8@@@2@V32@@Z 0000000180022221 f   node:node.exe
 0001:0002122d       __imp_load_?GetCurrentContext@Isolate@v8@@QEAA?AV?$Local@VContext@v8@@@2@XZ 000000018002222d f   node:node.exe
 0001:00021239       __imp_load_?GetCurrent@Isolate@v8@@SAPEAV12@XZ 0000000180022239 f   node:node.exe
 0001:00021245       __imp_load_?CreateHandle@HandleScope@v8@@KAPEAPEAVObject@internal@2@PEAVIsolate@42@PEAV342@@Z 0000000180022245 f   node:node.exe
 0001:00021251       __imp_load_?CreateHandle@HandleScope@v8@@CAPEAPEAVObject@internal@2@PEAVHeapObject@42@PEAV342@@Z 0000000180022251 f   node:node.exe
 0001:0002125d       __imp_load_??1HandleScope@v8@@QEAA@XZ 000000018002225d f   node:node.exe
 0001:00021269       __imp_load_??0HandleScope@v8@@QEAA@PEAVIsolate@1@@Z 0000000180022269 f   node:node.exe
 0001:00021275       __imp_load_?Error@Exception@v8@@SA?AV?$Local@VValue@v8@@@2@V?$Local@VString@v8@@@2@@Z 0000000180022275 f   node:node.exe
 0001:00021281       __imp_load_?TypeError@Exception@v8@@SA?AV?$Local@VValue@v8@@@2@V?$Local@VString@v8@@@2@@Z 0000000180022281 f   node:node.exe
 0001:0002128d       __imp_load_?SetClassName@FunctionTemplate@v8@@QEAAXV?$Local@VString@v8@@@2@@Z 000000018002228d f   node:node.exe
 0001:00021299       __imp_load_?GetFunction@FunctionTemplate@v8@@QEAA?AV?$MaybeLocal@VFunction@v8@@@2@V?$Local@VContext@v8@@@2@@Z 0000000180022299 f   node:node.exe
 0001:000212a5       __imp_load_?New@FunctionTemplate@v8@@SA?AV?$Local@VFunctionTemplate@v8@@@2@PEAVIsolate@2@P6AXAEBV?$FunctionCallbackInfo@VValue@v8@@@2@@ZV?$Local@VValue@v8@@@2@V?$Local@VSignature@v8@@@2@H@Z 00000001800222a5 f   node:node.exe
 0001:000212b1       __imp_load_?ToLocalEmpty@V8@v8@@CAXXZ 00000001800222b1 f   node:node.exe
 0001:000212bd       __imp_load_?FromJustIsNothing@V8@v8@@CAXXZ 00000001800222bd f   node:node.exe
 0001:000212c9       __imp_load_?DisposeGlobal@V8@v8@@CAXPEAPEAVObject@internal@2@@Z 00000001800222c9 f   node:node.exe
 0001:000212d5       __imp_load_?GlobalizeReference@V8@v8@@CAPEAPEAVObject@internal@2@PEAVIsolate@42@PEAPEAV342@@Z 00000001800222d5 f   node:node.exe
 0001:000212e1       __imp_load_?Int32Value@Value@v8@@QEBAHXZ 00000001800222e1 f   node:node.exe
 0001:000212ed       __imp_load_?Uint32Value@Value@v8@@QEBAIXZ 00000001800222ed f   node:node.exe
 0001:000212f9       __imp_load_?BooleanValue@Value@v8@@QEBA_NXZ 00000001800222f9 f   node:node.exe
 0001:00021305       __imp_load_?ToUint32@Value@v8@@QEBA?AV?$MaybeLocal@VUint32@v8@@@2@V?$Local@VContext@v8@@@2@@Z 0000000180022305 f   node:node.exe
 0001:00021311       __imp_load_?IsUint32@Value@v8@@QEBA_NXZ 0000000180022311 f   node:node.exe
 0001:0002131d       __imp_load_?IsInt32@Value@v8@@QEBA_NXZ 000000018002231d f   node:node.exe
 0001:00021329       __imp_load_?IsObject@Value@v8@@QEBA_NXZ 0000000180022329 f   node:node.exe
 0001:00021335       __imp_load_?IsFunction@Value@v8@@QEBA_NXZ 0000000180022335 f   node:node.exe
 0001:00021341       __imp_load_?Escape@EscapableHandleScope@v8@@AEAAPEAPEAVObject@internal@2@PEAPEAV342@@Z 0000000180022341 f   node:node.exe
 0001:0002134d       __imp_load_??0EscapableHandleScope@v8@@QEAA@PEAVIsolate@1@@Z 000000018002234d f   node:node.exe
 0001:00021359       __imp_load_?NewFromUtf8@String@v8@@SA?AV?$MaybeLocal@VString@v8@@@2@PEAVIsolate@2@PEBDW4NewStringType@2@H@Z 0000000180022359 f   node:node.exe
 0001:00021365       __imp_load_?WriteUtf8@String@v8@@QEBAHPEADHPEAHH@Z 0000000180022365 f   node:node.exe
 0001:00021371       __imp_load_?Length@String@v8@@QEBAHXZ 0000000180022371 f   node:node.exe
 0001:0002137d       __imp_load_?SlowGetInternalField@Object@v8@@AEAA?AV?$Local@VValue@v8@@@2@H@Z 000000018002237d f   node:node.exe
 0001:00021389       __imp_load_?New@Object@v8@@SA?AV?$Local@VObject@v8@@@2@PEAVIsolate@2@@Z 0000000180022389 f   node:node.exe
 0001:00021395       __imp_load_?SetInternalField@Object@v8@@QEAAXHV?$Local@VValue@v8@@@2@@Z 0000000180022395 f   node:node.exe
 0001:000213a1       __imp_load_?Has@Object@v8@@QEAA?AV?$Maybe@_N@2@V?$Local@VContext@v8@@@2@V?$Local@VValue@v8@@@2@@Z 00000001800223a1 f   node:node.exe
 0001:000213ad       __imp_load_?Get@Object@v8@@QEAA?AV?$MaybeLocal@VValue@v8@@@2@V?$Local@VContext@v8@@@2@V?$Local@VValue@v8@@@2@@Z 00000001800223ad f   node:node.exe
 0001:000213b9       __imp_load_?Set@Object@v8@@QEAA_NV?$Local@VValue@v8@@@2@0@Z 00000001800223b9 f   node:node.exe
 0001:000213c5       __imp_load_?SetInternalFieldCount@ObjectTemplate@v8@@QEAAXH@Z 00000001800223c5 f   node:node.exe
 0001:000213d1       __imp_load_?NewInstance@ObjectTemplate@v8@@QEAA?AV?$MaybeLocal@VObject@v8@@@2@V?$Local@VContext@v8@@@2@@Z 00000001800223d1 f   node:node.exe
 0001:000213dd       __imp_load_?New@ObjectTemplate@v8@@SA?AV?$Local@VObjectTemplate@v8@@@2@PEAVIsolate@2@V?$Local@VFunctionTemplate@v8@@@2@@Z 00000001800223dd f   node:node.exe
 0001:000213e9       __imp_load_node_module_register 00000001800223e9 f   node:node.exe
 0001:000213f5       __imp_load_?HasInstance@Buffer@node@@YA_NV?$Local@VValue@v8@@@v8@@@Z 00000001800223f5 f   node:node.exe
 0001:00021401       __imp_load_?New@Buffer@node@@YA?AV?$MaybeLocal@VObject@v8@@@v8@@PEAVIsolate@4@PEAD_K@Z 0000000180022401 f   node:node.exe
 0001:0002140d       __imp_load_?Data@Buffer@node@@YAPEADV?$Local@VObject@v8@@@v8@@@Z 000000018002240d f   node:node.exe
 0001:00021419       __imp_load_?Length@Buffer@node@@YA_KV?$Local@VObject@v8@@@v8@@@Z 0000000180022419 f   node:node.exe
 0001:00021425       __imp_load_?MakeCallback@node@@YA?AV?$Local@VValue@v8@@@v8@@PEAVIsolate@3@V?$Local@VObject@v8@@@3@V?$Local@VFunction@v8@@@3@HPEAV23@@Z 0000000180022425 f   node:node.exe
 0001:00021431       __imp_load_uv_default_loop 0000000180022431 f   node:node.exe
 0001:0002143d       __imp_load_?ToObject@Value@v8@@QEBA?AV?$Local@VObject@v8@@@2@XZ 000000018002243d f   node:node.exe
 0001:00021449       __imp_load_?ToString@Value@v8@@QEBA?AV?$Local@VString@v8@@@2@XZ 0000000180022449 f   node:node.exe
 0001:00021455       __imp_load_??1EscapableHandleScope@v8@@QEAA@XZ 0000000180022455 f   node:node.exe
 0001:00021461       __imp_load_?Length@Array@v8@@QEBAIXZ 0000000180022461 f   node:node.exe
 0001:0002146d       __imp_load_?ToInteger@Value@v8@@QEBA?AV?$MaybeLocal@VInteger@v8@@@2@V?$Local@VContext@v8@@@2@@Z 000000018002246d f   node:node.exe
 0001:00021479       __imp_load_?IsNumber@Value@v8@@QEBA_NXZ 0000000180022479 f   node:node.exe
 0001:00021485       __imp_load_?IsArray@Value@v8@@QEBA_NXZ 0000000180022485 f   node:node.exe
 0001:00021491       __imp_load_?Get@Object@v8@@QEAA?AV?$Local@VValue@v8@@@2@I@Z 0000000180022491 f   node:node.exe
 0001:000214a0       ??0bad_alloc@std@@QEAA@AEBV01@@Z 00000001800224a0 f i libcpmt:xthrow.obj
 0001:000214e0       ??0bad_alloc@std@@QEAA@XZ  00000001800224e0 f i libcpmt:xthrow.obj
 0001:00021500       ??0exception@std@@QEAA@AEBV01@@Z 0000000180022500 f i libcpmt:xthrow.obj
 0001:00021538       ??0length_error@std@@QEAA@AEBV01@@Z 0000000180022538 f i libcpmt:xthrow.obj
 0001:00021578       ??0length_error@std@@QEAA@PEBD@Z 0000000180022578 f i libcpmt:xthrow.obj
 0001:000215c4       ??0logic_error@std@@QEAA@AEBV01@@Z 00000001800225c4 f i libcpmt:xthrow.obj
 0001:00021604       ??0out_of_range@std@@QEAA@AEBV01@@Z 0000000180022604 f i libcpmt:xthrow.obj
 0001:00021644       ??0out_of_range@std@@QEAA@PEBD@Z 0000000180022644 f i libcpmt:xthrow.obj
 0001:00021690       ??1out_of_range@std@@UEAA@XZ 0000000180022690 f i libcpmt:xthrow.obj
 0001:00021690       ??1bad_exception@std@@UEAA@XZ 0000000180022690 f i libvcruntime:frame.obj
 0001:00021690       ??1length_error@std@@UEAA@XZ 0000000180022690 f i libcpmt:xthrow.obj
 0001:00021690       ??1bad_alloc@std@@UEAA@XZ  0000000180022690 f i libcpmt:xthrow.obj
 0001:00021690       ??1bad_array_new_length@std@@UEAA@XZ 0000000180022690 f i LIBCMT:throw_bad_alloc.obj
 0001:000216a4       ??_Gout_of_range@std@@UEAAPEAXI@Z 00000001800226a4 f i libcpmt:xthrow.obj
 0001:000216a4       ??_Gbad_alloc@std@@UEAAPEAXI@Z 00000001800226a4 f i libcpmt:xthrow.obj
 0001:000216a4       ??_Gbad_exception@std@@UEAAPEAXI@Z 00000001800226a4 f i libvcruntime:frame.obj
 0001:000216a4       ??_Elength_error@std@@UEAAPEAXI@Z 00000001800226a4 f i libcpmt:xthrow.obj
 0001:000216a4       ??_Elogic_error@std@@UEAAPEAXI@Z 00000001800226a4 f i libcpmt:xthrow.obj
 0001:000216a4       ??_Glogic_error@std@@UEAAPEAXI@Z 00000001800226a4 f i libcpmt:xthrow.obj
 0001:000216a4       ??_Gbad_array_new_length@std@@UEAAPEAXI@Z 00000001800226a4 f i LIBCMT:throw_bad_alloc.obj
 0001:000216a4       ??_Gexception@std@@UEAAPEAXI@Z 00000001800226a4 f i libcpmt:xthrow.obj
 0001:000216a4       ??_Ebad_exception@std@@UEAAPEAXI@Z 00000001800226a4 f i libvcruntime:frame.obj
 0001:000216a4       ??_Eout_of_range@std@@UEAAPEAXI@Z 00000001800226a4 f i libcpmt:xthrow.obj
 0001:000216a4       ??_Eexception@std@@UEAAPEAXI@Z 00000001800226a4 f i libcpmt:xthrow.obj
 0001:000216a4       ??_Glength_error@std@@UEAAPEAXI@Z 00000001800226a4 f i libcpmt:xthrow.obj
 0001:000216a4       ??_Ebad_alloc@std@@UEAAPEAXI@Z 00000001800226a4 f i libcpmt:xthrow.obj
 0001:000216a4       ??_Ebad_array_new_length@std@@UEAAPEAXI@Z 00000001800226a4 f i LIBCMT:throw_bad_alloc.obj
 0001:000216e8       ?_Xlength_error@std@@YAXPEBD@Z 00000001800226e8 f   libcpmt:xthrow.obj
 0001:0002170c       ?_Xout_of_range@std@@YAXPEBD@Z 000000018002270c f   libcpmt:xthrow.obj
 0001:00021730       ?what@exception@std@@UEBAPEBDXZ 0000000180022730 f i libcpmt:xthrow.obj
 0001:00021744       ??0_Init_locks@std@@QEAA@XZ 0000000180022744 f   libcpmt:xlock.obj
 0001:00021790       ??0_Lockit@std@@QEAA@H@Z   0000000180022790 f   libcpmt:xlock.obj
 0001:000217cc       ??1_Init_locks@std@@QEAA@XZ 00000001800227cc f   libcpmt:xlock.obj
 0001:00021810       ??1_Lockit@std@@QEAA@XZ    0000000180022810 f   libcpmt:xlock.obj
 0001:00021844       ??4?$_Yarn@D@std@@QEAAAEAV01@PEBD@Z 0000000180022844 f i libcpmt:locale0.obj
 0001:000218bc       ??_G_Fac_node@std@@QEAAPEAXI@Z 00000001800228bc f i libcpmt:locale0.obj
 0001:00021948       ??_E_Locimp@locale@std@@MEAAPEAXI@Z 0000000180022948 f i libcpmt:locale0.obj
 0001:00021948       ??_G_Locimp@locale@std@@MEAAPEAXI@Z 0000000180022948 f i libcpmt:locale0.obj
 0001:000219b4       ?_Facet_Register@std@@YAXPEAV_Facet_base@1@@Z 00000001800229b4 f   libcpmt:locale0.obj
 0001:000219ec       ?_Getgloballocale@locale@std@@CAPEAV_Locimp@12@XZ 00000001800229ec f   libcpmt:locale0.obj
 0001:000219f4       ?_Init@locale@std@@CAPEAV_Locimp@12@_N@Z 00000001800229f4 f   libcpmt:locale0.obj
 0001:00021ab0       ?_Locimp_dtor@_Locimp@locale@std@@CAXPEAV123@@Z 0000000180022ab0 f   libcpmt:locale0.obj
 0001:00021b58       ?_Locinfo_ctor@_Locinfo@std@@SAXPEAV12@PEBD@Z 0000000180022b58 f   libcpmt:locale0.obj
 0001:00021bc4       ?_Locinfo_dtor@_Locinfo@std@@SAXPEAV12@@Z 0000000180022bc4 f   libcpmt:locale0.obj
 0001:00021be8       ?_New_Locimp@_Locimp@locale@std@@CAPEAV123@_N@Z 0000000180022be8 f   libcpmt:locale0.obj
 0001:00021c58       ?_Setgloballocale@locale@std@@CAXPEAX@Z 0000000180022c58 f   libcpmt:locale0.obj
 0001:00021c8c       _Deletegloballocale        0000000180022c8c f   libcpmt:locale0.obj
 0001:00021d14       ?_Addstd@ios_base@std@@SAXPEAV12@@Z 0000000180022d14 f   libcpmt:ios.obj
 0001:00021d84       ?_Ios_base_dtor@ios_base@std@@CAXPEAV12@@Z 0000000180022d84 f   libcpmt:ios.obj
 0001:00021dc8       ?_Tidy@ios_base@std@@AEAAXXZ 0000000180022dc8 f i libcpmt:ios.obj
 0001:00021e58       ??$_Xfiopen@D@std@@YAPEAU_iobuf@@PEBDHH@Z 0000000180022e58 f i libcpmt:fiopen.obj
 0001:00021f60       ?_Fiopen@std@@YAPEAU_iobuf@@PEBDHH@Z 0000000180022f60 f   libcpmt:fiopen.obj
 0001:00021f68       ?_Syserror_map@std@@YAPEBDH@Z 0000000180022f68 f   libcpmt:syserror.obj
 0001:00021f90       _Getctype                  0000000180022f90 f   libcpmt:_tolower.obj
 0001:00022050       _Tolower                   0000000180023050 f   libcpmt:_tolower.obj
 0001:00022178       _Toupper                   0000000180023178 f   libcpmt:_toupper.obj
 0001:000222b0       ??0_Init_cout@std@@QEAA@XZ 00000001800232b0 f i libcpmt:cout.obj
 0001:0002231c       _Mtxdst                    000000018002331c f   libcpmt:xmtx.obj
 0001:00022324       _Mtxinit                   0000000180023324 f   libcpmt:xmtx.obj
 0001:00022334       _Mtxlock                   0000000180023334 f   libcpmt:xmtx.obj
 0001:0002233c       _Mtxunlock                 000000018002333c f   libcpmt:xmtx.obj
 0001:00022344       ?_Atexit@@YAXP6AXXZ@Z      0000000180023344 f   libcpmt:iosptrs.obj
 0001:00022384       __crtLCMapStringA          0000000180023384 f   libcpmt:StlLCMapStringA.obj
 0001:00022b40       __crtInitializeCriticalSectionEx 0000000180023b40 f   libcpmt:winapisupp.obj
 0001:00022ba0       GetTableIndexFromLocaleName 0000000180023ba0 f   libcpmt:winapinls.obj
 0001:00022c2c       __crtDownlevelLocaleNameToLCID 0000000180023c2c f   libcpmt:winapinls.obj
 0001:00022c60       __crtLCMapStringEx         0000000180023c60 f   libcpmt:winapinls.obj
 0001:00022d1c       __wcsnicmp_ascii           0000000180023d1c f   libcpmt:winapinls.obj
 0001:00022d90       __security_check_cookie    0000000180023d90 f   LIBCMT:_amdsecgs_.obj
 0001:00022db4       ??_V@YAXPEAX@Z             0000000180023db4 f   LIBCMT:delete_array.obj
 0001:00022db4       ??3@YAXPEAX_K@Z            0000000180023db4 f   LIBCMT:delete_scalar_size.obj
 0001:00022dbc       ??2@YAPEAX_K@Z             0000000180023dbc f   LIBCMT:new_scalar.obj
 0001:00022df8       ??3@YAXPEAX@Z              0000000180023df8 f   LIBCMT:delete_scalar.obj
 0001:00022e00       ??_M@YAXPEAX_K1P6AX0@Z@Z   0000000180023e00 f   LIBCMT:ehvecdtr.obj
 0001:00022e6c       ?__ArrayUnwind@@YAXPEAX_K1P6AX0@Z@Z 0000000180023e6c f   LIBCMT:ehvecdtr.obj
 0001:00022ed0       ??_L@YAXPEAX_K1P6AX0@Z2@Z  0000000180023ed0 f   LIBCMT:ehvecctr.obj
 0001:00023088       _Init_thread_footer        0000000180024088 f   LIBCMT:thread_safe_statics.obj
 0001:000230e8       _Init_thread_header        00000001800240e8 f   LIBCMT:thread_safe_statics.obj
 0001:00023150       _Init_thread_notify        0000000180024150 f   LIBCMT:thread_safe_statics.obj
 0001:000231ac       _Init_thread_wait          00000001800241ac f   LIBCMT:thread_safe_statics.obj
 0001:00023244       __scrt_acquire_startup_lock 0000000180024244 f   LIBCMT:utility.obj
 0001:00023280       __scrt_dllmain_after_initialize_c 0000000180024280 f   LIBCMT:utility.obj
 0001:000232b4       __scrt_dllmain_before_initialize_c 00000001800242b4 f   LIBCMT:utility.obj
 0001:000232cc       __scrt_dllmain_crt_thread_attach 00000001800242cc f   LIBCMT:utility.obj
 0001:000232f4       __scrt_dllmain_crt_thread_detach 00000001800242f4 f   LIBCMT:utility.obj
 0001:0002330c       __scrt_dllmain_exception_filter 000000018002430c f   LIBCMT:utility.obj
 0001:00023370       __scrt_dllmain_uninitialize_c 0000000180024370 f   LIBCMT:utility.obj
 0001:000233a0       __scrt_dllmain_uninitialize_critical 00000001800243a0 f   LIBCMT:utility.obj
 0001:000233b4       __scrt_initialize_crt      00000001800243b4 f   LIBCMT:utility.obj
 0001:00023400       __scrt_initialize_onexit_tables 0000000180024400 f   LIBCMT:utility.obj
 0001:000234cc       __scrt_is_nonwritable_in_current_image 00000001800244cc f   LIBCMT:utility.obj
 0001:00023568       __scrt_release_startup_lock 0000000180024568 f   LIBCMT:utility.obj
 0001:0002358c       __scrt_uninitialize_crt    000000018002458c f   LIBCMT:utility.obj
 0001:000235b8       _onexit                    00000001800245b8 f   LIBCMT:utility.obj
 0001:00023608       atexit                     0000000180024608 f   LIBCMT:utility.obj
 0001:0002396c       _DllMainCRTStartup         000000018002496c f   LIBCMT:dll_dllmain.obj
 0001:000239ac       ??_Etype_info@@UEAAPEAXI@Z 00000001800249ac f i LIBCMT:std_type_info_static.obj
 0001:000239ac       ??_Gtype_info@@UEAAPEAXI@Z 00000001800249ac f i LIBCMT:std_type_info_static.obj
 0001:000239d8       _guard_check_icall         00000001800249d8 f i LIBCMT:checkcfg.obj
 0001:000239e0       __GSHandlerCheck           00000001800249e0 f   LIBCMT:_gshandler_.obj
 0001:00023a00       __GSHandlerCheckCommon     0000000180024a00 f   LIBCMT:_gshandler_.obj
 0001:00023a5c       __GSHandlerCheck_EH        0000000180024a5c f   LIBCMT:gshandlereh.obj
 0001:00023af0       __chkstk                   0000000180024af0 f   LIBCMT:_chkstk_.obj
 0001:00023af0       _alloca_probe              0000000180024af0 f   LIBCMT:_chkstk_.obj
 0001:00023b44       __raise_securityfailure    0000000180024b44 f   LIBCMT:gs_report.obj
 0001:00023b78       __report_gsfailure         0000000180024b78 f   LIBCMT:gs_report.obj
 0001:00023c4c       __report_rangecheckfailure 0000000180024c4c f   LIBCMT:gs_report.obj
 0001:00023c60       __report_securityfailure   0000000180024c60 f   LIBCMT:gs_report.obj
 0001:00023de0       ??0bad_array_new_length@std@@QEAA@AEBV01@@Z 0000000180024de0 f i LIBCMT:throw_bad_alloc.obj
 0001:00023e20       ??0bad_array_new_length@std@@QEAA@XZ 0000000180024e20 f i LIBCMT:throw_bad_alloc.obj
 0001:00023e40       ?_Xbad_alloc@std@@YAXXZ    0000000180024e40 f   libcpmt:xthrow.obj
 0001:00023e40       ?__scrt_throw_std_bad_alloc@@YAXXZ 0000000180024e40 f   LIBCMT:throw_bad_alloc.obj
 0001:00023e60       ?__scrt_throw_std_bad_array_new_length@@YAXXZ 0000000180024e60 f   LIBCMT:throw_bad_alloc.obj
 0001:00023e80       __crt_debugger_hook        0000000180024e80 f   LIBCMT:utility_desktop.obj
 0001:00023e88       __scrt_fastfail            0000000180024e88 f   LIBCMT:utility_desktop.obj
 0001:00023fd0       __isa_available_init       0000000180024fd0 f   LIBCMT:_cpu_disp_.obj
 0001:00024198       __scrt_is_ucrt_dll_in_use  0000000180025198 f   LIBCMT:ucrt_detection.obj
 0001:000241a4       __security_init_cookie     00000001800251a4 f   LIBCMT:gs_support.obj
 0001:00024250       ?__scrt_initialize_type_info@@YAXXZ 0000000180025250 f   LIBCMT:tncleanup.obj
 0001:00024260       ?__scrt_uninitialize_type_info@@YAXXZ 0000000180025260 f   LIBCMT:tncleanup.obj
 0001:0002426c       __local_stdio_scanf_options 000000018002526c f i LIBCMT:default_local_stdio_options.obj
 0001:00024274       __scrt_initialize_default_local_stdio_options 0000000180025274 f   LIBCMT:default_local_stdio_options.obj
 0001:00024290       __scrt_get_dyn_tls_init_callback 0000000180025290 f   LIBCMT:dyn_tls_init.obj
 0001:00024298       _RTC_Initialize            0000000180025298 f   LIBCMT:_initsect_.obj
 0001:000242e4       _RTC_Terminate             00000001800252e4 f   LIBCMT:_initsect_.obj
 0001:00024340       memcpy                     0000000180025340 f   libvcruntime:memcpy.obj
 0001:00024340       memmove                    0000000180025340 f   libvcruntime:memcpy.obj
 0001:00024778       _purecall                  0000000180025778 f   libvcruntime:purevirt.obj
 0001:000247b4       __DestructExceptionObject  00000001800257b4 f   libvcruntime:frame.obj
 0001:0002483c       ??0bad_exception@std@@QEAA@AEBV01@@Z 000000018002583c f i libvcruntime:frame.obj
 0001:0002487c       ??0bad_exception@std@@QEAA@XZ 000000018002587c f i libvcruntime:frame.obj
 0001:000251f8       ?_CallMemberFunction0@@YAXPEAXP6AX0@Z@Z 00000001800261f8 f i libvcruntime:frame.obj
 0001:000251fc       ?_CallMemberFunction1@@YAXPEAXP6AX0@Z0@Z 00000001800261fc f i libvcruntime:frame.obj
 0001:00025208       ?_CallMemberFunction2@@YAXPEAXP6AX0@Z0H@Z 0000000180026208 f i libvcruntime:frame.obj
 0001:00025218       __AdjustPointer            0000000180026218 f   libvcruntime:frame.obj
 0001:0002523c       __BuildCatchObject         000000018002623c f   libvcruntime:frame.obj
 0001:00025300       __BuildCatchObjectHelper   0000000180026300 f   libvcruntime:frame.obj
 0001:000254e0       __CxxCallCatchBlock        00000001800264e0 f   libvcruntime:frame.obj
 0001:000256cc       __FrameUnwindFilter        00000001800266cc f   libvcruntime:frame.obj
 0001:00025718       __FrameUnwindToState       0000000180026718 f   libvcruntime:frame.obj
 0001:000258ac       __InternalCxxFrameHandler  00000001800268ac f   libvcruntime:frame.obj
 0001:00025b04       __TypeMatch                0000000180026b04 f   libvcruntime:frame.obj
 0001:00025c44       __std_terminate            0000000180026c44 f   libvcruntime:frame.obj
 0001:00025c50       __std_exception_copy       0000000180026c50 f   libvcruntime:std_exception.obj
 0001:00025ce0       __std_exception_destroy    0000000180026ce0 f   libvcruntime:std_exception.obj
 0001:00025d08       _CxxThrowException         0000000180026d08 f   libvcruntime:throw.obj
 0001:00025de0       ?_ExecutionInCatch@@YAHPEAU_xDISPATCHER_CONTEXT@@PEBU_s_FuncInfo@@@Z 0000000180026de0 f   libvcruntime:trnsctrl.obj
 0001:00025e54       ?_GetEstablisherFrame@@YAPEA_KPEA_KPEAU_xDISPATCHER_CONTEXT@@PEBU_s_FuncInfo@@0@Z 0000000180026e54 f   libvcruntime:trnsctrl.obj
 0001:00025f20       ?_GetRangeOfTrysToCheck@@YAPEBU_s_TryBlockMapEntry@@PEA_KPEBU_s_FuncInfo@@HHPEAI2PEAU_xDISPATCHER_CONTEXT@@@Z 0000000180026f20 f   libvcruntime:trnsctrl.obj
 0001:0002604c       ?__FrameUnwindToEmptyState@@YAXPEA_KPEAU_xDISPATCHER_CONTEXT@@PEBU_s_FuncInfo@@@Z 000000018002704c f   libvcruntime:trnsctrl.obj
 0001:000260e0       ?__SehTransFilter@@YAHPEAU_EXCEPTION_POINTERS@@PEAUEHExceptionRecord@@PEA_KPEAU_CONTEXT@@PEAU_xDISPATCHER_CONTEXT@@PEBU_s_FuncInfo@@PEAH@Z 00000001800270e0 f   libvcruntime:trnsctrl.obj
 0001:00026178       _CallSETranslator          0000000180027178 f   libvcruntime:trnsctrl.obj
 0001:000261d0       _CreateFrameInfo           00000001800271d0 f   libvcruntime:trnsctrl.obj
 0001:0002620c       _FindAndUnlinkFrame        000000018002720c f   libvcruntime:trnsctrl.obj
 0001:00026264       _GetImageBase              0000000180027264 f   libvcruntime:trnsctrl.obj
 0001:00026278       _GetThrowImageBase         0000000180027278 f   libvcruntime:trnsctrl.obj
 0001:0002628c       _IsExceptionObjectToBeDestroyed 000000018002728c f   libvcruntime:trnsctrl.obj
 0001:000262bc       _SetImageBase              00000001800272bc f   libvcruntime:trnsctrl.obj
 0001:000262d4       _SetThrowImageBase         00000001800272d4 f   libvcruntime:trnsctrl.obj
 0001:000262ec       _UnwindNestedFrames        00000001800272ec f   libvcruntime:trnsctrl.obj
 0001:00026410       __CxxFrameHandler3         0000000180027410 f   libvcruntime:trnsctrl.obj
 0001:000264a0       memset                     00000001800274a0 f   libvcruntime:memset.obj
 0001:00026650       memcmp                     0000000180027650 f   libvcruntime:memcmp.obj
 0001:00026718       __C_specific_handler       0000000180027718 f   libvcruntime:_chandler_.obj
 0001:00026adc       __vcrt_FlsAlloc            0000000180027adc f   libvcruntime:winapi_downlevel.obj
 0001:00026b30       __vcrt_FlsFree             0000000180027b30 f   libvcruntime:winapi_downlevel.obj
 0001:00026b84       __vcrt_FlsGetValue         0000000180027b84 f   libvcruntime:winapi_downlevel.obj
 0001:00026bd8       __vcrt_FlsSetValue         0000000180027bd8 f   libvcruntime:winapi_downlevel.obj
 0001:00026c40       __vcrt_InitializeCriticalSectionEx 0000000180027c40 f   libvcruntime:winapi_downlevel.obj
 0001:00026cb8       __vcrt_initialize_winapi_thunks 0000000180027cb8 f   libvcruntime:winapi_downlevel.obj
 0001:00026d04       __vcrt_uninitialize_winapi_thunks 0000000180027d04 f   libvcruntime:winapi_downlevel.obj
 0001:00026d44       __vcrt_initialize          0000000180027d44 f   libvcruntime:initialization.obj
 0001:00026d78       __vcrt_thread_attach       0000000180027d78 f   libvcruntime:initialization.obj
 0001:00026d8c       __vcrt_thread_detach       0000000180027d8c f   libvcruntime:initialization.obj
 0001:00026da0       __vcrt_uninitialize        0000000180027da0 f   libvcruntime:initialization.obj
 0001:00026dc0       __vcrt_uninitialize_critical 0000000180027dc0 f   libvcruntime:initialization.obj
 0001:00026dd0       __std_type_info_compare    0000000180027dd0 f   libvcruntime:std_type_info.obj
 0001:00026df8       __std_type_info_destroy_list 0000000180027df8 f   libvcruntime:std_type_info.obj
 0001:00026e24       __vcrt_initialize_pure_virtual_call_handler 0000000180027e24 f   libvcruntime:purevirt_data.obj
 0001:00026e48       __vcrt_freefls             0000000180027e48 f   libvcruntime:per_thread_data.obj
 0001:00026e68       __vcrt_freeptd             0000000180027e68 f   libvcruntime:per_thread_data.obj
 0001:00026eb8       __vcrt_getptd              0000000180027eb8 f   libvcruntime:per_thread_data.obj
 0001:00026ed4       __vcrt_getptd_noexit       0000000180027ed4 f   libvcruntime:per_thread_data.obj
 0001:00026f8c       __vcrt_initialize_ptd      0000000180027f8c f   libvcruntime:per_thread_data.obj
 0001:00026fcc       __vcrt_uninitialize_ptd    0000000180027fcc f   libvcruntime:per_thread_data.obj
 0001:00026ff0       ?__GetCurrentState@@YAHPEA_KPEAU_xDISPATCHER_CONTEXT@@PEBU_s_FuncInfo@@@Z 0000000180027ff0 f   libvcruntime:ehstate.obj
 0001:00027018       ?__GetUnwindTryBlock@@YAHPEA_KPEAU_xDISPATCHER_CONTEXT@@PEBU_s_FuncInfo@@@Z 0000000180028018 f   libvcruntime:ehstate.obj
 0001:00027044       ?__SetState@@YAXPEA_KPEAU_xDISPATCHER_CONTEXT@@PEBU_s_FuncInfo@@H@Z 0000000180028044 f   libvcruntime:ehstate.obj
 0001:00027050       ?__SetUnwindTryBlock@@YAXPEA_KPEAU_xDISPATCHER_CONTEXT@@PEBU_s_FuncInfo@@H@Z 0000000180028050 f   libvcruntime:ehstate.obj
 0001:0002708c       ?__StateFromControlPc@@YAHPEBU_s_FuncInfo@@PEAU_xDISPATCHER_CONTEXT@@@Z 000000018002808c f   libvcruntime:ehstate.obj
 0001:00027094       ?__StateFromIp@@YAHPEBU_s_FuncInfo@@PEAU_xDISPATCHER_CONTEXT@@_J@Z 0000000180028094 f   libvcruntime:ehstate.obj
 0001:00027110       _CallSettingFrame          0000000180028110 f   libvcruntime:handlers.obj
 0001:00027160       _local_unwind              0000000180028160 f   libvcruntime:_jmpuwind_.obj
 0001:00027190       _NLG_Notify                0000000180028190 f   libvcruntime:_jmpuwind_.obj
 0001:000271b0       __NLG_Dispatch2            00000001800281b0 f   libvcruntime:_jmpuwind_.obj
 0001:000271c0       __NLG_Return2              00000001800281c0 f   libvcruntime:_jmpuwind_.obj
 0001:000271c4       __vcrt_initialize_locks    00000001800281c4 f   libvcruntime:locks.obj
 0001:0002720c       __vcrt_uninitialize_locks  000000018002820c f   libvcruntime:locks.obj
 0001:00027244       free                       0000000180028244 f   libucrt:free.obj
 0001:00027c34       ??$ftprintf@PEAU_iobuf@@PEB_WAEBQEB_WAEBQEB_WAEBI@?$__crt_char_traits@_W@@SAH$$QEAPEAU_iobuf@@$$QEAPEB_WAEBQEB_W2AEBI@Z 0000000180028c34 f i libucrt:assert.obj
 0001:00027c5c       _wassert                   0000000180028c5c f   libucrt:assert.obj
 0001:00027ce0       fwprintf                   0000000180028ce0 f i libucrt:assert.obj
 0001:00027d24       swprintf                   0000000180028d24 f i libucrt:assert.obj
 0001:00027d78       __acrt_call_reportfault    0000000180028d78 f   libucrt:invalid_parameter.obj
 0001:00027ed4       __acrt_initialize_invalid_parameter_handler 0000000180028ed4 f   libucrt:invalid_parameter.obj
 0001:00027edc       _invalid_parameter         0000000180028edc f   libucrt:invalid_parameter.obj
 0001:00027f84       _invalid_parameter_noinfo  0000000180028f84 f   libucrt:invalid_parameter.obj
 0001:00027fa4       _invalid_parameter_noinfo_noreturn 0000000180028fa4 f   libucrt:invalid_parameter.obj
 0001:00027fd4       _invoke_watson             0000000180028fd4 f   libucrt:invalid_parameter.obj
 0001:0002801c       malloc                     000000018002901c f   libucrt:malloc.obj
 0001:00028024       __acrt_initialize_stdio    0000000180029024 f   libucrt:_file.obj
 0001:00028144       __acrt_iob_func            0000000180029144 f   libucrt:_file.obj
 0001:00028158       __acrt_uninitialize_stdio  0000000180029158 f   libucrt:_file.obj
 0001:000281b4       _get_stream_buffer_pointers 00000001800291b4 f   libucrt:_file.obj
 0001:000281fc       _lock_file                 00000001800291fc f   libucrt:_file.obj
 0001:00028208       _unlock_file               0000000180029208 f   libucrt:_file.obj
 0001:00028214       ??$?RV<lambda_7b91131dde12e1c3dfc74ff76b3f2eac>@@AEAV<lambda_dd75445284c072d0bd3768540cc698fa>@@V<lambda_16bc4ecb55b4718497c16bceaea2ceaf>@@@?$__crt_seh_guarded_call@H@@QEAAH$$QEAV<lambda_7b91131dde12e1c3dfc74ff76b3f2eac>@@AEAV<lambda_dd75445284c072d0bd3768540cc698fa>@@$$QEAV<lambda_16bc4ecb55b4718497c16bceaea2ceaf>@@@Z 0000000180029214 f i libucrt:output.obj
 0001:00028254       ??$?RV<lambda_aa279a7bcb127014629d5b1d62c7325d>@@AEAV<lambda_0a64b6a4deda75c01876f29c44fc5eb3>@@V<lambda_3323e69fbefe9d1a11713e670d47cdfa>@@@?$__crt_seh_guarded_call@H@@QEAAH$$QEAV<lambda_aa279a7bcb127014629d5b1d62c7325d>@@AEAV<lambda_0a64b6a4deda75c01876f29c44fc5eb3>@@$$QEAV<lambda_3323e69fbefe9d1a11713e670d47cdfa>@@@Z 0000000180029254 f i libucrt:output.obj
 0001:00028294       ??$ensure_buffer_is_big_enough@D@formatting_buffer@__crt_stdio_output@@QEAA_N_K@Z 0000000180029294 f i libucrt:output.obj
 0001:00028340       ??$is_wide_character_specifier@D@__crt_stdio_output@@YA_N_KDW4length_modifier@0@@Z 0000000180029340 f i libucrt:output.obj
 0001:00028370       ??$is_wide_character_specifier@_W@__crt_stdio_output@@YA_N_K_WW4length_modifier@0@@Z 0000000180029370 f i libucrt:output.obj
 0001:000283b4       ??$type_case_integer_parse_into_buffer@I@?$output_processor@_WV?$string_output_adapter@_W@__crt_stdio_output@@V?$standard_base@_WV?$string_output_adapter@_W@__crt_stdio_output@@@2@@__crt_stdio_output@@AEAAXII_N@Z 00000001800293b4 f i libucrt:output.obj
 0001:000283b4       ??$type_case_integer_parse_into_buffer@I@?$output_processor@_WV?$stream_output_adapter@_W@__crt_stdio_output@@V?$standard_base@_WV?$stream_output_adapter@_W@__crt_stdio_output@@@2@@__crt_stdio_output@@AEAAXII_N@Z 00000001800293b4 f i libucrt:output.obj
 0001:000283b4       ??$type_case_integer_parse_into_buffer@I@?$output_processor@DV?$stream_output_adapter@D@__crt_stdio_output@@V?$standard_base@DV?$stream_output_adapter@D@__crt_stdio_output@@@2@@__crt_stdio_output@@AEAAXII_N@Z 00000001800293b4 f i libucrt:output.obj
 0001:00028450       ??$type_case_integer_parse_into_buffer@_K@?$output_processor@_WV?$stream_output_adapter@_W@__crt_stdio_output@@V?$standard_base@_WV?$stream_output_adapter@_W@__crt_stdio_output@@@2@@__crt_stdio_output@@AEAAX_KI_N@Z 0000000180029450 f i libucrt:output.obj
 0001:00028450       ??$type_case_integer_parse_into_buffer@_K@?$output_processor@DV?$stream_output_adapter@D@__crt_stdio_output@@V?$standard_base@DV?$stream_output_adapter@D@__crt_stdio_output@@@2@@__crt_stdio_output@@AEAAX_KI_N@Z 0000000180029450 f i libucrt:output.obj
 0001:00028450       ??$type_case_integer_parse_into_buffer@_K@?$output_processor@_WV?$string_output_adapter@_W@__crt_stdio_output@@V?$standard_base@_WV?$string_output_adapter@_W@__crt_stdio_output@@@2@@__crt_stdio_output@@AEAAX_KI_N@Z 0000000180029450 f i libucrt:output.obj
 0001:000284ec       ??$write_multiple_characters@V?$stream_output_adapter@D@__crt_stdio_output@@D@__crt_stdio_output@@YAXAEBV?$stream_output_adapter@D@0@DHQEAH@Z 00000001800294ec f i libucrt:output.obj
 0001:00028570       ??$write_multiple_characters@V?$stream_output_adapter@_W@__crt_stdio_output@@D@__crt_stdio_output@@YAXAEBV?$stream_output_adapter@_W@0@DHQEAH@Z 0000000180029570 f i libucrt:output.obj
 0001:00028600       ??$write_multiple_characters@V?$string_output_adapter@_W@__crt_stdio_output@@D@__crt_stdio_output@@YAXAEBV?$string_output_adapter@_W@0@DHQEAH@Z 0000000180029600 f i libucrt:output.obj
 0001:00028670       ??0?$output_processor@DV?$stream_output_adapter@D@__crt_stdio_output@@V?$standard_base@DV?$stream_output_adapter@D@__crt_stdio_output@@@2@@__crt_stdio_output@@QEAA@AEBV?$stream_output_adapter@D@1@_KQEBDQEAU__crt_locale_pointers@@QEAD@Z 0000000180029670 f i libucrt:output.obj
 0001:000286ec       ??0?$output_processor@_WV?$stream_output_adapter@_W@__crt_stdio_output@@V?$standard_base@_WV?$stream_output_adapter@_W@__crt_stdio_output@@@2@@__crt_stdio_output@@QEAA@AEBV?$stream_output_adapter@_W@1@_KQEB_WQEAU__crt_locale_pointers@@QEAD@Z 00000001800296ec f i libucrt:output.obj
 0001:000286ec       ??0?$output_processor@_WV?$string_output_adapter@_W@__crt_stdio_output@@V?$standard_base@_WV?$string_output_adapter@_W@__crt_stdio_output@@@2@@__crt_stdio_output@@QEAA@AEBV?$string_output_adapter@_W@1@_KQEB_WQEAU__crt_locale_pointers@@QEAD@Z 00000001800296ec f i libucrt:output.obj
 0001:0002876c       ??0_LocaleUpdate@@QEAA@QEAU__crt_locale_pointers@@@Z 000000018002976c f i libucrt:output.obj
 0001:000289dc       ?force_decimal_point@__crt_stdio_output@@YAXPEADQEAU__crt_locale_pointers@@@Z 00000001800299dc f i libucrt:output.obj
 0001:00028a4c       ?parse_int_from_format_string@?$output_processor@DV?$stream_output_adapter@D@__crt_stdio_output@@V?$standard_base@DV?$stream_output_adapter@D@__crt_stdio_output@@@2@@__crt_stdio_output@@AEAA_NQEAH@Z 0000000180029a4c f i libucrt:output.obj
 0001:00028ad0       ?parse_int_from_format_string@?$output_processor@_WV?$string_output_adapter@_W@__crt_stdio_output@@V?$standard_base@_WV?$string_output_adapter@_W@__crt_stdio_output@@@2@@__crt_stdio_output@@AEAA_NQEAH@Z 0000000180029ad0 f i libucrt:output.obj
 0001:00028ad0       ?parse_int_from_format_string@?$output_processor@_WV?$stream_output_adapter@_W@__crt_stdio_output@@V?$standard_base@_WV?$stream_output_adapter@_W@__crt_stdio_output@@@2@@__crt_stdio_output@@AEAA_NQEAH@Z 0000000180029ad0 f i libucrt:output.obj
 0001:00028b50       ?process@?$output_processor@DV?$stream_output_adapter@D@__crt_stdio_output@@V?$standard_base@DV?$stream_output_adapter@D@__crt_stdio_output@@@2@@__crt_stdio_output@@QEAAHXZ 0000000180029b50 f i libucrt:output.obj
 0001:00028d60       ?process@?$output_processor@_WV?$stream_output_adapter@_W@__crt_stdio_output@@V?$standard_base@_WV?$stream_output_adapter@_W@__crt_stdio_output@@@2@@__crt_stdio_output@@QEAAHXZ 0000000180029d60 f i libucrt:output.obj
 0001:00028fd8       ?process@?$output_processor@_WV?$string_output_adapter@_W@__crt_stdio_output@@V?$standard_base@_WV?$string_output_adapter@_W@__crt_stdio_output@@@2@@__crt_stdio_output@@QEAAHXZ 0000000180029fd8 f i libucrt:output.obj
 0001:00029254       ?state_case_normal@?$output_processor@DV?$stream_output_adapter@D@__crt_stdio_output@@V?$standard_base@DV?$stream_output_adapter@D@__crt_stdio_output@@@2@@__crt_stdio_output@@AEAA_NXZ 000000018002a254 f i libucrt:output.obj
 0001:000292c4       ?state_case_normal_tchar@?$output_processor@DV?$stream_output_adapter@D@__crt_stdio_output@@V?$standard_base@DV?$stream_output_adapter@D@__crt_stdio_output@@@2@@__crt_stdio_output@@AEAA_ND@Z 000000018002a2c4 f i libucrt:output.obj
 0001:00029358       ?state_case_size@?$output_processor@DV?$stream_output_adapter@D@__crt_stdio_output@@V?$standard_base@DV?$stream_output_adapter@D@__crt_stdio_output@@@2@@__crt_stdio_output@@AEAA_NXZ 000000018002a358 f i libucrt:output.obj
 0001:000294d4       ?state_case_size@?$output_processor@_WV?$stream_output_adapter@_W@__crt_stdio_output@@V?$standard_base@_WV?$stream_output_adapter@_W@__crt_stdio_output@@@2@@__crt_stdio_output@@AEAA_NXZ 000000018002a4d4 f i libucrt:output.obj
 0001:00029678       ?state_case_size@?$output_processor@_WV?$string_output_adapter@_W@__crt_stdio_output@@V?$standard_base@_WV?$string_output_adapter@_W@__crt_stdio_output@@@2@@__crt_stdio_output@@AEAA_NXZ 000000018002a678 f i libucrt:output.obj
 0001:0002981c       ?state_case_type@?$output_processor@DV?$stream_output_adapter@D@__crt_stdio_output@@V?$standard_base@DV?$stream_output_adapter@D@__crt_stdio_output@@@2@@__crt_stdio_output@@AEAA_NXZ 000000018002a81c f i libucrt:output.obj
 0001:00029a98       ?state_case_type@?$output_processor@_WV?$stream_output_adapter@_W@__crt_stdio_output@@V?$standard_base@_WV?$stream_output_adapter@_W@__crt_stdio_output@@@2@@__crt_stdio_output@@AEAA_NXZ 000000018002aa98 f i libucrt:output.obj
 0001:00029d64       ?state_case_type@?$output_processor@_WV?$string_output_adapter@_W@__crt_stdio_output@@V?$standard_base@_WV?$string_output_adapter@_W@__crt_stdio_output@@@2@@__crt_stdio_output@@AEAA_NXZ 000000018002ad64 f i libucrt:output.obj
 0001:0002a030       ?type_case_Z@?$output_processor@DV?$stream_output_adapter@D@__crt_stdio_output@@V?$standard_base@DV?$stream_output_adapter@D@__crt_stdio_output@@@2@@__crt_stdio_output@@AEAA_NXZ 000000018002b030 f i libucrt:output.obj
 0001:0002a0b0       ?type_case_Z@?$output_processor@_WV?$stream_output_adapter@_W@__crt_stdio_output@@V?$standard_base@_WV?$stream_output_adapter@_W@__crt_stdio_output@@@2@@__crt_stdio_output@@AEAA_NXZ 000000018002b0b0 f i libucrt:output.obj
 0001:0002a0b0       ?type_case_Z@?$output_processor@_WV?$string_output_adapter@_W@__crt_stdio_output@@V?$standard_base@_WV?$string_output_adapter@_W@__crt_stdio_output@@@2@@__crt_stdio_output@@AEAA_NXZ 000000018002b0b0 f i libucrt:output.obj
 0001:0002a130       ?type_case_a@?$output_processor@DV?$stream_output_adapter@D@__crt_stdio_output@@V?$standard_base@DV?$stream_output_adapter@D@__crt_stdio_output@@@2@@__crt_stdio_output@@AEAA_NXZ 000000018002b130 f i libucrt:output.obj
 0001:0002a34c       ?type_case_a@?$output_processor@_WV?$stream_output_adapter@_W@__crt_stdio_output@@V?$standard_base@_WV?$stream_output_adapter@_W@__crt_stdio_output@@@2@@__crt_stdio_output@@AEAA_NXZ 000000018002b34c f i libucrt:output.obj
 0001:0002a34c       ?type_case_a@?$output_processor@_WV?$string_output_adapter@_W@__crt_stdio_output@@V?$standard_base@_WV?$string_output_adapter@_W@__crt_stdio_output@@@2@@__crt_stdio_output@@AEAA_NXZ 000000018002b34c f i libucrt:output.obj
 0001:0002a590       ?type_case_c_tchar@?$output_processor@DV?$stream_output_adapter@D@__crt_stdio_output@@V?$standard_base@DV?$stream_output_adapter@D@__crt_stdio_output@@@2@@__crt_stdio_output@@AEAA_ND@Z 000000018002b590 f i libucrt:output.obj
 0001:0002a644       ?type_case_c_tchar@?$output_processor@_WV?$string_output_adapter@_W@__crt_stdio_output@@V?$standard_base@_WV?$string_output_adapter@_W@__crt_stdio_output@@@2@@__crt_stdio_output@@AEAA_N_W@Z 000000018002b644 f i libucrt:output.obj
 0001:0002a644       ?type_case_c_tchar@?$output_processor@_WV?$stream_output_adapter@_W@__crt_stdio_output@@V?$standard_base@_WV?$stream_output_adapter@_W@__crt_stdio_output@@@2@@__crt_stdio_output@@AEAA_N_W@Z 000000018002b644 f i libucrt:output.obj
 0001:0002a6ec       ?type_case_integer@?$output_processor@DV?$stream_output_adapter@D@__crt_stdio_output@@V?$standard_base@DV?$stream_output_adapter@D@__crt_stdio_output@@@2@@__crt_stdio_output@@AEAA_NI_N@Z 000000018002b6ec f i libucrt:output.obj
 0001:0002a6ec       ?type_case_integer@?$output_processor@_WV?$string_output_adapter@_W@__crt_stdio_output@@V?$standard_base@_WV?$string_output_adapter@_W@__crt_stdio_output@@@2@@__crt_stdio_output@@AEAA_NI_N@Z 000000018002b6ec f i libucrt:output.obj
 0001:0002a6ec       ?type_case_integer@?$output_processor@_WV?$stream_output_adapter@_W@__crt_stdio_output@@V?$standard_base@_WV?$stream_output_adapter@_W@__crt_stdio_output@@@2@@__crt_stdio_output@@AEAA_NI_N@Z 000000018002b6ec f i libucrt:output.obj
 0001:0002a88c       ?type_case_n@?$output_processor@_WV?$stream_output_adapter@_W@__crt_stdio_output@@V?$standard_base@_WV?$stream_output_adapter@_W@__crt_stdio_output@@@2@@__crt_stdio_output@@AEAA_NXZ 000000018002b88c f i libucrt:output.obj
 0001:0002a88c       ?type_case_n@?$output_processor@DV?$stream_output_adapter@D@__crt_stdio_output@@V?$standard_base@DV?$stream_output_adapter@D@__crt_stdio_output@@@2@@__crt_stdio_output@@AEAA_NXZ 000000018002b88c f i libucrt:output.obj
 0001:0002a88c       ?type_case_n@?$output_processor@_WV?$string_output_adapter@_W@__crt_stdio_output@@V?$standard_base@_WV?$string_output_adapter@_W@__crt_stdio_output@@@2@@__crt_stdio_output@@AEAA_NXZ 000000018002b88c f i libucrt:output.obj
 0001:0002a968       ?type_case_s@?$output_processor@DV?$stream_output_adapter@D@__crt_stdio_output@@V?$standard_base@DV?$stream_output_adapter@D@__crt_stdio_output@@@2@@__crt_stdio_output@@AEAA_NXZ 000000018002b968 f i libucrt:output.obj
 0001:0002a9f8       ?type_case_s@?$output_processor@_WV?$stream_output_adapter@_W@__crt_stdio_output@@V?$standard_base@_WV?$stream_output_adapter@_W@__crt_stdio_output@@@2@@__crt_stdio_output@@AEAA_NXZ 000000018002b9f8 f i libucrt:output.obj
 0001:0002a9f8       ?type_case_s@?$output_processor@_WV?$string_output_adapter@_W@__crt_stdio_output@@V?$standard_base@_WV?$string_output_adapter@_W@__crt_stdio_output@@@2@@__crt_stdio_output@@AEAA_NXZ 000000018002b9f8 f i libucrt:output.obj
 0001:0002aac0       ?validate_stream_is_ansi_if_required@?$__acrt_stdio_char_traits@D@@SA_NQEAU_iobuf@@@Z 000000018002bac0 f i libucrt:output.obj
 0001:0002ab4c       ?write_stored_string_tchar@?$output_processor@DV?$stream_output_adapter@D@__crt_stdio_output@@V?$standard_base@DV?$stream_output_adapter@D@__crt_stdio_output@@@2@@__crt_stdio_output@@AEAA_ND@Z 000000018002bb4c f i libucrt:output.obj
 0001:0002ac24       ?write_stored_string_tchar@?$output_processor@_WV?$stream_output_adapter@_W@__crt_stdio_output@@V?$standard_base@_WV?$stream_output_adapter@_W@__crt_stdio_output@@@2@@__crt_stdio_output@@AEAA_N_W@Z 000000018002bc24 f i libucrt:output.obj
 0001:0002ad10       ?write_stored_string_tchar@?$output_processor@_WV?$string_output_adapter@_W@__crt_stdio_output@@V?$standard_base@_WV?$string_output_adapter@_W@__crt_stdio_output@@@2@@__crt_stdio_output@@AEAA_N_W@Z 000000018002bd10 f i libucrt:output.obj
 0001:0002ae00       ?write_string@?$stream_output_adapter@D@__crt_stdio_output@@QEBAXQEBDHQEAH1@Z 000000018002be00 f i libucrt:output.obj
 0001:0002aef8       ?write_string@?$stream_output_adapter@_W@__crt_stdio_output@@QEBAXQEB_WHQEAH1@Z 000000018002bef8 f i libucrt:output.obj
 0001:0002b004       ?write_string@?$string_output_adapter@_W@__crt_stdio_output@@QEBAXQEB_WHQEAH1@Z 000000018002c004 f i libucrt:output.obj
 0001:0002b0c4       __stdio_common_vfprintf    000000018002c0c4 f   libucrt:output.obj
 0001:0002b150       __stdio_common_vfwprintf   000000018002c150 f   libucrt:output.obj
 0001:0002b1dc       __stdio_common_vswprintf   000000018002c1dc f   libucrt:output.obj
 0001:0002b644       __acrt_initialize_thread_local_exit_callback 000000018002c644 f   libucrt:exit.obj
 0001:0002b64c       _cexit                     000000018002c64c f   libucrt:exit.obj
 0001:0002b65c       _exit                      000000018002c65c f   libucrt:exit.obj
 0001:0002b668       _is_c_termination_complete 000000018002c668 f   libucrt:exit.obj
 0001:0002b670       exit                       000000018002c670 f   libucrt:exit.obj
 0001:0002b67c       realloc                    000000018002c67c f   libucrt:realloc.obj
 0001:0002b760       qsort                      000000018002c760 f   libucrt:qsort.obj
 0001:0002bf50       _ftelli64                  000000018002cf50 f   libucrt:ftell.obj
 0001:0002bf58       _ftelli64_nolock           000000018002cf58 f   libucrt:ftell.obj
 0001:0002bf60       abort                      000000018002cf60 f   libucrt:abort.obj
 0001:0002bfb8       _fputc_nolock              000000018002cfb8 f   libucrt:fputc.obj
 0001:0002bfd0       fputc                      000000018002cfd0 f   libucrt:fputc.obj
 0001:0002c1c0       _fsopen                    000000018002d1c0 f   libucrt:fopen.obj
 0001:0002c1c8       __acrt_stdio_flush_nolock  000000018002d1c8 f   libucrt:fflush.obj
 0001:0002c240       _fflush_nolock             000000018002d240 f   libucrt:fflush.obj
 0001:0002c28c       _flushall                  000000018002d28c f   libucrt:fflush.obj
 0001:0002c37c       fflush                     000000018002d37c f   libucrt:fflush.obj
 0001:0002c3c0       _fclose_nolock             000000018002d3c0 f   libucrt:fclose.obj
 0001:0002c444       fclose                     000000018002d444 f   libucrt:fclose.obj
 0001:0002c724       _fseeki64                  000000018002d724 f   libucrt:fseek.obj
 0001:0002c72c       fseek                      000000018002d72c f   libucrt:fseek.obj
 0001:0002c734       _fgetc_nolock              000000018002d734 f   libucrt:fgetc.obj
 0001:0002c778       fgetc                      000000018002d778 f   libucrt:fgetc.obj
 0001:0002c87c       ??$?RV<lambda_5d4c3fee44080f75d5d9762853974fe0>@@AEAV<lambda_532e024f4337e6fc7ad266c2bef9f4ed>@@V<lambda_c87bdc10097eb2402edb8ba9bdf0697b>@@@?$__crt_seh_guarded_call@_K@@QEAA_K$$QEAV<lambda_5d4c3fee44080f75d5d9762853974fe0>@@AEAV<lambda_532e024f4337e6fc7ad266c2bef9f4ed>@@$$QEAV<lambda_c87bdc10097eb2402edb8ba9bdf0697b>@@@Z 000000018002d87c f i libucrt:fwrite.obj
 0001:0002c920       _fwrite_nolock             000000018002d920 f   libucrt:fwrite.obj
 0001:0002cabc       fwrite                     000000018002dabc f   libucrt:fwrite.obj
 0001:0002cb40       __acrt_errno_from_os_error 000000018002db40 f   libucrt:errno.obj
 0001:0002cb88       __acrt_errno_map_os_error  000000018002db88 f   libucrt:errno.obj
 0001:0002cbd8       __doserrno                 000000018002dbd8 f   libucrt:errno.obj
 0001:0002cbf8       _errno                     000000018002dbf8 f   libucrt:errno.obj
 0001:0002cc18       fgetpos                    000000018002dc18 f   libucrt:fgetpos.obj
 0001:0002cc64       ??$?RV<lambda_7a5ef57ff966f610505f1d28a3d40618>@@AEAV<lambda_b721fa326cdb32351d23dfa67958c160>@@V<lambda_5e0fb27672408a07956fe59e48ccb2aa>@@@?$__crt_seh_guarded_call@H@@QEAAH$$QEAV<lambda_7a5ef57ff966f610505f1d28a3d40618>@@AEAV<lambda_b721fa326cdb32351d23dfa67958c160>@@$$QEAV<lambda_5e0fb27672408a07956fe59e48ccb2aa>@@@Z 000000018002dc64 f i libucrt:setvbuf.obj
 0001:0002cd94       setvbuf                    000000018002dd94 f   libucrt:setvbuf.obj
 0001:0002ce34       _ungetc_nolock             000000018002de34 f   libucrt:ungetc.obj
 0001:0002cf44       ungetc                     000000018002df44 f   libucrt:ungetc.obj
 0001:0002cfa4       fsetpos                    000000018002dfa4 f   libucrt:fsetpos.obj
 0001:0002cfdc       __ascii_stricmp            000000018002dfdc f   libucrt:stricmp.obj
 0001:0002d018       _stricmp                   000000018002e018 f   libucrt:stricmp.obj
 0001:0002d060       _stricmp_l                 000000018002e060 f   libucrt:stricmp.obj
 0001:0002d114       __acrt_initialize_locks    000000018002e114 f   libucrt:locks.obj
 0001:0002d15c       __acrt_lock                000000018002e15c f   libucrt:locks.obj
 0001:0002d178       __acrt_uninitialize_locks  000000018002e178 f   libucrt:locks.obj
 0001:0002d1b0       __acrt_unlock              000000018002e1b0 f   libucrt:locks.obj
 0001:0002d1cc       _lock_locales              000000018002e1cc f   libucrt:locks.obj
 0001:0002d1dc       _unlock_locales            000000018002e1dc f   libucrt:locks.obj
 0001:0002d2d4       setlocale                  000000018002e2d4 f   libucrt:setlocale.obj
 0001:0002d4a0       _calloc_base               000000018002e4a0 f   libucrt:calloc_base.obj
 0001:0002d518       __pctype_func              000000018002e518 f   libucrt:ctype.obj
 0001:0002d548       isdigit                    000000018002e548 f i libucrt:_ctype.obj
 0001:0002d5bc       islower                    000000018002e5bc f i libucrt:_ctype.obj
 0001:0002d630       isupper                    000000018002e630 f i libucrt:_ctype.obj
 0001:0002d6a4       _wcsdup                    000000018002e6a4 f   libucrt:wcsdup.obj
 0001:0002d728       ___lc_codepage_func        000000018002e728 f   libucrt:initctype.obj
 0001:0002d758       ___lc_locale_name_func     000000018002e758 f   libucrt:initctype.obj
 0001:0002d78c       __acrt_locale_initialize_ctype 000000018002e78c f   libucrt:initctype.obj
 0001:0002ddd8       _ismbblead                 000000018002edd8 f   libucrt:ismbbyte.obj
 0001:0002ddec       _malloc_base               000000018002edec f   libucrt:malloc_base.obj
 0001:0002de4c       _realloc_base              000000018002ee4c f   libucrt:realloc_base.obj
 0001:0002ded0       ??$make_c_string_character_source@_W$$T@__crt_strtox@@YA?AV?$c_string_character_source@_W@0@QEB_W$$T@Z 000000018002eed0 f i libucrt:atox.obj
 0001:0002ded0       ??$make_c_string_character_source@_WPEAPEA_W@__crt_strtox@@YA?AV?$c_string_character_source@_W@0@QEB_WQEAPEA_W@Z 000000018002eed0 f i libucrt:strtod.obj
 0001:0002ded0       ??$make_c_string_character_source@DPEAPEAD@__crt_strtox@@YA?AV?$c_string_character_source@D@0@QEBDQEAPEAD@Z 000000018002eed0 f i libucrt:strtod.obj
 0001:0002def0       ?divide@__crt_strtox@@YA_KAEAUbig_integer@1@AEBU21@@Z 000000018002eef0 f i libucrt:strtod.obj
 0001:0002e3c0       pow                        000000018002f3c0 f   libucrt:pow.obj
 0001:0002fa60       powf                       0000000180030a60 f   libucrt:powf.obj
 0001:00030928       __strncnt                  0000000180031928 f   libucrt:strncnt.obj
 0001:00030940       _free_base                 0000000180031940 f   libucrt:free_base.obj
 0001:000309d0       _tolower_l                 00000001800319d0 f   libucrt:tolower_toupper.obj
 0001:00030b10       tolower                    0000000180031b10 f   libucrt:tolower_toupper.obj
 0001:00030b3c       wcscpy_s                   0000000180031b3c f   libucrt:wcscpy_s.obj
 0001:00030ba4       strnlen                    0000000180031ba4 f   libucrt:strnlen.obj
 0001:00030d00       wcsnlen                    0000000180031d00 f   libucrt:strnlen.obj
 0001:00030ef0       __acrt_initialize_new_handler 0000000180031ef0 f   libucrt:new_handler.obj
 0001:00030ef8       _callnewh                  0000000180031ef8 f   libucrt:new_handler.obj
 0001:00030f38       _query_new_handler         0000000180031f38 f   libucrt:new_handler.obj
 0001:00030f6c       terminate                  0000000180031f6c f   libucrt:terminate.obj
 0001:00030f94       _seh_filter_dll            0000000180031f94 f   libucrt:exception_filter.obj
 0001:00030fa8       _seh_filter_exe            0000000180031fa8 f   libucrt:exception_filter.obj
 0001:000312f4       __acrt_allocate_buffer_for_argv 00000001800322f4 f   libucrt:argv_parsing.obj
 0001:00031358       _configure_narrow_argv     0000000180032358 f   libucrt:argv_parsing.obj
 0001:000316b4       __dcrt_uninitialize_environments_nolock 00000001800326b4 f   libucrt:environment_initialization.obj
 0001:000316ec       _initialize_narrow_environment 00000001800326ec f   libucrt:environment_initialization.obj
 0001:000316f4       ??$?RV<lambda_b8c45f8f788dd370798f47cfe8ac3a86>@@AEAV<lambda_4e60a939b0d047cfe11ddc22648dfba9>@@V<lambda_332c3edc96d0294ec56c57d38c1cdfd5>@@@?$__crt_seh_guarded_call@H@@QEAAH$$QEAV<lambda_b8c45f8f788dd370798f47cfe8ac3a86>@@AEAV<lambda_4e60a939b0d047cfe11ddc22648dfba9>@@$$QEAV<lambda_332c3edc96d0294ec56c57d38c1cdfd5>@@@Z 00000001800326f4 f i libucrt:onexit.obj
 0001:00031730       ??$?RV<lambda_e24bbb7b643b32fcea6fa61b31d4c984>@@AEAV<lambda_275893d493268fdec8709772e3fcec0e>@@V<lambda_9d71df4d7cf3f480f8d633942495c3b0>@@@?$__crt_seh_guarded_call@H@@QEAAH$$QEAV<lambda_e24bbb7b643b32fcea6fa61b31d4c984>@@AEAV<lambda_275893d493268fdec8709772e3fcec0e>@@$$QEAV<lambda_9d71df4d7cf3f480f8d633942495c3b0>@@@Z 0000000180032730 f i libucrt:onexit.obj
 0001:00031aac       _crt_atexit                0000000180032aac f   libucrt:onexit.obj
 0001:00031abc       _execute_onexit_table      0000000180032abc f   libucrt:onexit.obj
 0001:00031af8       _initialize_onexit_table   0000000180032af8 f   libucrt:onexit.obj
 0001:00031b38       _register_onexit_function  0000000180032b38 f   libucrt:onexit.obj
 0001:00031cb4       __acrt_initialize          0000000180032cb4 f   libucrt:initialization.obj
 0001:00031cc8       __acrt_thread_attach       0000000180032cc8 f   libucrt:initialization.obj
 0001:00031cdc       __acrt_thread_detach       0000000180032cdc f   libucrt:initialization.obj
 0001:00031cec       __acrt_uninitialize        0000000180032cec f   libucrt:initialization.obj
 0001:00031d00       __acrt_uninitialize_critical 0000000180032d00 f   libucrt:initialization.obj
 0001:00031d10       _initterm                  0000000180032d10 f   libucrt:initterm.obj
 0001:00031d88       _initterm_e                0000000180032d88 f   libucrt:initterm.obj
 0001:00031dd4       strcpy_s                   0000000180032dd4 f   libucrt:strcpy_s.obj
 0001:00031e34       ??$is_overflow_condition@K@__crt_strtox@@YA_NIK@Z 0000000180032e34 f i libucrt:atox.obj
 0001:00031e60       ??$parse_integer@KV?$c_string_character_source@D@__crt_strtox@@@__crt_strtox@@YAKQEAU__crt_locale_pointers@@V?$c_string_character_source@D@0@H_N@Z 0000000180032e60 f i libucrt:atox.obj
 0001:00032174       ??$parse_integer@KV?$c_string_character_source@_W@__crt_strtox@@@__crt_strtox@@YAKQEAU__crt_locale_pointers@@V?$c_string_character_source@_W@0@H_N@Z 0000000180033174 f i libucrt:atox.obj
 0001:00032848       _wtol                      0000000180033848 f   libucrt:atox.obj
 0001:00032874       _query_app_type            0000000180033874 f   libucrt:report_runtime_error.obj
 0001:000329a4       _itow_s                    00000001800339a4 f   libucrt:xtoa.obj
 0001:000329c4       _set_error_mode            00000001800339c4 f   libucrt:set_error_mode.obj
 0001:00032a04       wcscat_s                   0000000180033a04 f   libucrt:wcscat_s.obj
 0001:00032a84       wcsncat_s                  0000000180033a84 f   libucrt:wcsncat_s.obj
 0001:00032bac       __acrt_show_wide_message_box 0000000180033bac f   libucrt:crtmbox.obj
 0001:00032cc8       ??$?RV<lambda_c36588078e9f5dfd39652860aa6b3aaf>@@AEAV<lambda_ec61778202f4f5fc7e7711acc23c3bca>@@V<lambda_dc9d2797ccde5d239b4a0efae8ebd7db>@@@?$__crt_seh_guarded_call@P6AXH@Z@@QEAAP6AXH@Z$$QEAV<lambda_c36588078e9f5dfd39652860aa6b3aaf>@@AEAV<lambda_ec61778202f4f5fc7e7711acc23c3bca>@@$$QEAV<lambda_dc9d2797ccde5d239b4a0efae8ebd7db>@@@Z 0000000180033cc8 f i libucrt:signal.obj
 0001:00032d10       __acrt_get_sigabrt_handler 0000000180033d10 f   libucrt:signal.obj
 0001:00032d40       __acrt_initialize_signal_handlers 0000000180033d40 f   libucrt:signal.obj
 0001:00032d60       raise                      0000000180033d60 f   libucrt:signal.obj
 0001:00032ffc       ??$?RV<lambda_46352004c1216016012b18bd6f87e700>@@AEAV<lambda_3bd07e1a1191394380780325891bf33f>@@V<lambda_334532d3f185bcaa59b5be82d7d22bff>@@@?$__crt_seh_guarded_call@X@@QEAAX$$QEAV<lambda_46352004c1216016012b18bd6f87e700>@@AEAV<lambda_3bd07e1a1191394380780325891bf33f>@@$$QEAV<lambda_334532d3f185bcaa59b5be82d7d22bff>@@@Z 0000000180033ffc f i libucrt:per_thread_data.obj
 0001:0003305c       ??$?RV<lambda_5e887d1dcbef67a5eb4283622ba103bf>@@AEAV<lambda_4466841279450cc726390878d4a41900>@@V<lambda_341c25c0346d94847f1f3c463c57e077>@@@?$__crt_seh_guarded_call@X@@QEAAX$$QEAV<lambda_5e887d1dcbef67a5eb4283622ba103bf>@@AEAV<lambda_4466841279450cc726390878d4a41900>@@$$QEAV<lambda_341c25c0346d94847f1f3c463c57e077>@@@Z 000000018003405c f i libucrt:per_thread_data.obj
 0001:000330a4       ??$?RV<lambda_72d1df2b273a38828b1ce30cbf4cdab5>@@AEAV<lambda_876a65b173b8412d3a47c70a915b0cf4>@@V<lambda_41932305e351933ebe8f8be3ed8bb5dc>@@@?$__crt_seh_guarded_call@X@@QEAAX$$QEAV<lambda_72d1df2b273a38828b1ce30cbf4cdab5>@@AEAV<lambda_876a65b173b8412d3a47c70a915b0cf4>@@$$QEAV<lambda_41932305e351933ebe8f8be3ed8bb5dc>@@@Z 00000001800340a4 f i libucrt:per_thread_data.obj
 0001:000330e4       ??$?RV<lambda_fb3a7dec4e47f37f22dae91bb15c9095>@@AEAV<lambda_698284760c8add0bfb0756c19673e34b>@@V<lambda_dfb8eca1e75fef3034a8fb18dd509707>@@@?$__crt_seh_guarded_call@X@@QEAAX$$QEAV<lambda_fb3a7dec4e47f37f22dae91bb15c9095>@@AEAV<lambda_698284760c8add0bfb0756c19673e34b>@@$$QEAV<lambda_dfb8eca1e75fef3034a8fb18dd509707>@@@Z 00000001800340e4 f i libucrt:per_thread_data.obj
 0001:00033374       __acrt_freeptd             0000000180034374 f   libucrt:per_thread_data.obj
 0001:000333b8       __acrt_getptd              00000001800343b8 f   libucrt:per_thread_data.obj
 0001:0003344c       __acrt_getptd_noexit       000000018003444c f   libucrt:per_thread_data.obj
 0001:000334ec       __acrt_initialize_ptd      00000001800344ec f   libucrt:per_thread_data.obj
 0001:00033528       __acrt_uninitialize_ptd    0000000180034528 f   libucrt:per_thread_data.obj
 0001:00033590       ??$?RV<lambda_630b2aca97f6d20d5b5ea6529ea6b6af>@@AEAV<lambda_af91936f1d075d609f72d9d8cba980af>@@V<lambda_e82fa975f615b5c7c7b0e4d178fdae67>@@@?$__crt_seh_guarded_call@H@@QEAAH$$QEAV<lambda_630b2aca97f6d20d5b5ea6529ea6b6af>@@AEAV<lambda_af91936f1d075d609f72d9d8cba980af>@@$$QEAV<lambda_e82fa975f615b5c7c7b0e4d178fdae67>@@@Z 0000000180034590 f i libucrt:winapi_thunks.obj
 0001:000337c8       __acrt_AreFileApisANSI     00000001800347c8 f   libucrt:winapi_thunks.obj
 0001:00033814       __acrt_EnumSystemLocalesEx 0000000180034814 f   libucrt:winapi_thunks.obj
 0001:000338bc       __acrt_FlsAlloc            00000001800348bc f   libucrt:winapi_thunks.obj
 0001:00033914       __acrt_FlsFree             0000000180034914 f   libucrt:winapi_thunks.obj
 0001:0003396c       __acrt_FlsGetValue         000000018003496c f   libucrt:winapi_thunks.obj
 0001:000339c4       __acrt_FlsSetValue         00000001800349c4 f   libucrt:winapi_thunks.obj
 0001:00033a2c       __acrt_GetLocaleInfoEx     0000000180034a2c f   libucrt:winapi_thunks.obj
 0001:00033ac4       __acrt_GetUserDefaultLocaleName 0000000180034ac4 f   libucrt:winapi_thunks.obj
 0001:00033b38       __acrt_InitializeCriticalSectionEx 0000000180034b38 f   libucrt:winapi_thunks.obj
 0001:00033bb0       __acrt_IsValidLocaleName   0000000180034bb0 f   libucrt:winapi_thunks.obj
 0001:00033c18       __acrt_LCIDToLocaleName    0000000180034c18 f   libucrt:winapi_thunks.obj
 0001:00033ca4       __acrt_LCMapStringEx       0000000180034ca4 f   libucrt:winapi_thunks.obj
 0001:00033d94       __acrt_LocaleNameToLCID    0000000180034d94 f   libucrt:winapi_thunks.obj
 0001:00033dfc       __acrt_MessageBoxW         0000000180034dfc f   libucrt:winapi_thunks.obj
 0001:00033e84       __acrt_can_show_message_box 0000000180034e84 f   libucrt:winapi_thunks.obj
 0001:00033ee0       __acrt_can_use_vista_locale_apis 0000000180034ee0 f   libucrt:winapi_thunks.obj
 0001:00033f10       __acrt_get_parent_window   0000000180034f10 f   libucrt:winapi_thunks.obj
 0001:00033fa0       __acrt_initialize_winapi_thunks 0000000180034fa0 f   libucrt:winapi_thunks.obj
 0001:00033fd8       __acrt_is_interactive      0000000180034fd8 f   libucrt:winapi_thunks.obj
 0001:000340ac       __acrt_is_packaged_app     00000001800350ac f   libucrt:winapi_thunks.obj
 0001:00034134       __acrt_uninitialize_winapi_thunks 0000000180035134 f   libucrt:winapi_thunks.obj
 0001:00034178       _fcloseall                 0000000180035178 f   libucrt:closeall.obj
 0001:0003422c       __acrt_stdio_free_buffer_nolock 000000018003522c f   libucrt:_freebuf.obj
 0001:00034454       __acrt_initialize_lowio    0000000180035454 f   libucrt:ioinit.obj
 0001:00034490       __acrt_uninitialize_lowio  0000000180035490 f   libucrt:ioinit.obj
 0001:000344d0       strtol                     00000001800354d0 f   libucrt:strtox.obj
 0001:00034500       wcstol                     0000000180035500 f   libucrt:strtox.obj
 0001:00034530       _mbtowc_l                  0000000180035530 f   libucrt:mbtowc.obj
 0001:00034678       mbtowc                     0000000180035678 f   libucrt:mbtowc.obj
 0001:00034680       _wctomb_s_l                0000000180035680 f   libucrt:wctomb.obj
 0001:00034804       wctomb_s                   0000000180035804 f   libucrt:wctomb.obj
 0001:00034818       __acrt_update_locale_info  0000000180035818 f   libucrt:locale_update.obj
 0001:0003484c       __acrt_update_multibyte_info 000000018003584c f   libucrt:locale_update.obj
 0001:00034880       ?__acrt_fp_classify@@YA?AW4__acrt_fp_class@@AEBN@Z 0000000180035880 f i libucrt:cvt.obj
 0001:000352b8       __acrt_fp_format           00000001800362b8 f   libucrt:cvt.obj
 0001:000354fc       _fputwc_nolock             00000001800364fc f   libucrt:fputwc.obj
 0001:00035678       _fileno                    0000000180036678 f   libucrt:fileno.obj
 0001:000356a0       _get_printf_count_output   00000001800366a0 f   libucrt:printf_count_output.obj
 0001:000356b8       __acrt_stdio_begin_temporary_buffering_nolock 00000001800366b8 f   libucrt:_sftbuf.obj
 0001:00035788       __acrt_stdio_end_temporary_buffering_nolock 0000000180036788 f   libucrt:_sftbuf.obj
 0001:000357c4       ??$?RV<lambda_5df02c53a8f32f81fd64e5bbb78039f1>@@AEAV<lambda_2af78c5f5901b1372d98f9ab3177dfa6>@@AEAV<lambda_f51fe5fd7c79a33db34fc9310f277369>@@@?$__crt_seh_guarded_call@X@@QEAAX$$QEAV<lambda_5df02c53a8f32f81fd64e5bbb78039f1>@@AEAV<lambda_2af78c5f5901b1372d98f9ab3177dfa6>@@AEAV<lambda_f51fe5fd7c79a33db34fc9310f277369>@@@Z 00000001800367c4 f i libucrt:wsetlocale.obj
 0001:000357f0       ??$?RV<lambda_d67e8342c384adda8f857579ab50b2ae>@@AEAV<lambda_30712929f77e709619002f448b6a9510>@@V<lambda_4525336fd7e478d965fb7ca7a337cad8>@@@?$__crt_seh_guarded_call@X@@QEAAX$$QEAV<lambda_d67e8342c384adda8f857579ab50b2ae>@@AEAV<lambda_30712929f77e709619002f448b6a9510>@@$$QEAV<lambda_4525336fd7e478d965fb7ca7a337cad8>@@@Z 00000001800367f0 f i libucrt:wsetlocale.obj
 0001:000359bc       __acrt_copy_locale_name    00000001800369bc f   libucrt:wsetlocale.obj
 0001:00035a40       __acrt_set_locale_changed  0000000180036a40 f   libucrt:wsetlocale.obj
 0001:00035a4c       __acrt_uninitialize_locale 0000000180036a4c f   libucrt:wsetlocale.obj
 0001:00035a94       __lc_lctowcs               0000000180036a94 f   libucrt:wsetlocale.obj
 0001:00035b38       __lc_wcstolc               0000000180036b38 f   libucrt:wsetlocale.obj
 0001:00035db0       _expandlocale              0000000180036db0 f   libucrt:wsetlocale.obj
 0001:000361ac       _wcscats                   00000001800371ac f   libucrt:wsetlocale.obj
 0001:00036214       _wsetlocale                0000000180037214 f   libucrt:wsetlocale.obj
 0001:00036bec       _lseeki64                  0000000180037bec f   libucrt:lseek.obj
 0001:00036bf4       _lseeki64_nolock           0000000180037bf4 f   libucrt:lseek.obj
 0001:0003712c       _read                      000000018003812c f   libucrt:read.obj
 0001:00037244       _read_nolock               0000000180038244 f   libucrt:read.obj
 0001:000378bc       __acrt_stdio_flush_and_write_narrow_nolock 00000001800388bc f   libucrt:_flsbuf.obj
 0001:000379a4       __acrt_stdio_flush_and_write_wide_nolock 00000001800389a4 f   libucrt:_flsbuf.obj
 0001:00037a90       ?__acrt_stdio_allocate_stream@@YA?AV__crt_stdio_stream@@XZ 0000000180038a90 f   libucrt:stream.obj
 0001:00037aec       ?__acrt_stdio_free_stream@@YAXV__crt_stdio_stream@@@Z 0000000180038aec f   libucrt:stream.obj
 0001:00037c1c       ??$__acrt_stdio_parse_mode@D@@YA?AU__acrt_stdio_stream_mode@@QEBD@Z 0000000180038c1c f i libucrt:openfile.obj
 0001:00037eb8       _openfile                  0000000180038eb8 f   libucrt:openfile.obj
 0001:00037f54       ??$?RV<lambda_b521505b218e5242e90febf6bfebc422>@@AEAV<lambda_6978c1fb23f02e42e1d9e99668cc68aa>@@V<lambda_314360699dd331753a4119843814e9a7>@@@?$__crt_seh_guarded_call@H@@QEAAH$$QEAV<lambda_b521505b218e5242e90febf6bfebc422>@@AEAV<lambda_6978c1fb23f02e42e1d9e99668cc68aa>@@$$QEAV<lambda_314360699dd331753a4119843814e9a7>@@@Z 0000000180038f54 f i libucrt:commit.obj
 0001:00037fe0       _commit                    0000000180038fe0 f   libucrt:commit.obj
 0001:00038614       _write                     0000000180039614 f   libucrt:write.obj
 0001:00038700       _write_nolock              0000000180039700 f   libucrt:write.obj
 0001:000389e4       ??$?RV<lambda_bfedae4ebbf01fab1bb6dcc6a9e276e0>@@AEAV<lambda_2fe9b910cf3cbf4a0ab98a02ba45b3ec>@@V<lambda_237c231691f317818eb88cc1d5d642d6>@@@?$__crt_seh_guarded_call@H@@QEAAH$$QEAV<lambda_bfedae4ebbf01fab1bb6dcc6a9e276e0>@@AEAV<lambda_2fe9b910cf3cbf4a0ab98a02ba45b3ec>@@$$QEAV<lambda_237c231691f317818eb88cc1d5d642d6>@@@Z 00000001800399e4 f i libucrt:close.obj
 0001:00038a58       _close                     0000000180039a58 f   libucrt:close.obj
 0001:00038afc       _close_nolock              0000000180039afc f   libucrt:close.obj
 0001:00038d60       __acrt_stdio_refill_and_read_narrow_nolock 0000000180039d60 f   libucrt:_filbuf.obj
 0001:00038d68       __acrt_stdio_allocate_buffer_nolock 0000000180039d68 f   libucrt:_getbuf.obj
 0001:00038dcc       _raise_exc                 0000000180039dcc f   libucrt:fpexcept.obj
 0001:00038df4       _raise_exc_ex              0000000180039df4 f   libucrt:fpexcept.obj
 0001:000390fc       _raise_excf                000000018003a0fc f   libucrt:fpexcept.obj
 0001:00039128       _set_errno_from_matherr    000000018003a128 f   libucrt:fpexcept.obj
 0001:00039158       _clrfp                     000000018003a158 f   libucrt:fpctrl.obj
 0001:00039178       _ctrlfp                    000000018003a178 f   libucrt:fpctrl.obj
 0001:000391f4       _set_statfp                000000018003a1f4 f   libucrt:fpctrl.obj
 0001:00039214       _statfp                    000000018003a214 f   libucrt:fpctrl.obj
 0001:00039404       _mbstowcs_s_l              000000018003a404 f   libucrt:mbstowcs.obj
 0001:00039534       mbstowcs_s                 000000018003a534 f   libucrt:mbstowcs.obj
 0001:00039888       _wcstombs_s_l              000000018003a888 f   libucrt:wcstombs.obj
 0001:00039974       _query_new_mode            000000018003a974 f   libucrt:new_mode.obj
 0001:0003997c       __acrt_initialize_heap     000000018003a97c f   libucrt:heap_handle.obj
 0001:00039998       __acrt_uninitialize_heap   000000018003a998 f   libucrt:heap_handle.obj
 0001:000399a4       _isctype_l                 000000018003a9a4 f   libucrt:isctype.obj
 0001:00039c54       __acrt_GetLocaleInfoA      000000018003ac54 f   libucrt:getlocaleinfoa.obj
 0001:00039e1c       __acrt_GetStringTypeA      000000018003ae1c f   libucrt:getstringtypea.obj
 0001:0003a32c       __acrt_LCMapStringA        000000018003b32c f   libucrt:lcmapstringa.obj
 0001:0003a3c4       iswctype                   000000018003b3c4 f   libucrt:iswctype.obj
 0001:0003a440       __acrt_initialize_fma3     000000018003b440 f   libucrt:fma3_available.obj
 0001:0003a4b0       _pow_special               000000018003b4b0 f   libucrt:pow_special.obj
 0001:0003a5d4       _powf_special              000000018003b5d4 f   libucrt:pow_special.obj
 0001:0003a760       _wcsicmp                   000000018003b760 f   libucrt:wcsicmp.obj
 0001:0003a7e8       _wcsicmp_l                 000000018003b7e8 f   libucrt:wcsicmp.obj
 0001:0003a8d8       __acrt_initialize_timeset  000000018003b8d8 f   libucrt:timeset.obj
 0001:0003a908       _isleadbyte_l              000000018003b908 f i libucrt:_wctype.obj
 0001:0003ae24       ?expand_if_necessary@?$argument_list@D@?A0xca0879c4@@AEAAHXZ 000000018003be24 f i libucrt:argv_wildcards.obj
 0001:0003aeec       __acrt_expand_narrow_argv_wildcards 000000018003beec f   libucrt:argv_wildcards.obj
 0001:0003aef4       ??$?RV<lambda_99476a1ad63dd22509b5d3e65b0ffc95>@@AEAV<lambda_ad1ced32f4ac17aa236e5ef05d6b3b7c>@@V<lambda_f7424dd8d45958661754dc4f2697e9c3>@@@?$__crt_seh_guarded_call@X@@QEAAX$$QEAV<lambda_99476a1ad63dd22509b5d3e65b0ffc95>@@AEAV<lambda_ad1ced32f4ac17aa236e5ef05d6b3b7c>@@$$QEAV<lambda_f7424dd8d45958661754dc4f2697e9c3>@@@Z 000000018003bef4 f i libucrt:mbctype.obj
 0001:0003b5f0       __acrt_initialize_multibyte 000000018003c5f0 f   libucrt:mbctype.obj
 0001:0003b618       __acrt_update_thread_multibyte_data 000000018003c618 f   libucrt:mbctype.obj
 0001:0003b6d8       _setmbcp_nolock            000000018003c6d8 f   libucrt:mbctype.obj
 0001:0003b980       __acrt_initialize_command_line 000000018003c980 f   libucrt:argv_data.obj
 0001:0003b9a8       __dcrt_get_narrow_environment_from_os 000000018003c9a8 f   libucrt:get_environment_from_os.obj
 0001:0003baac       _recalloc                  000000018003caac f   libucrt:recalloc.obj
 0001:0003bab4       _recalloc_base             000000018003cab4 f   libucrt:recalloc.obj
 0001:0003bb4c       __acrt_execute_initializers 000000018003cb4c f   libucrt:shared_initialization.obj
 0001:0003bbe0       __acrt_execute_uninitializers 000000018003cbe0 f   libucrt:shared_initialization.obj
 0001:0003bc30       __acrt_has_user_matherr    000000018003cc30 f   libucrt:matherr.obj
 0001:0003bc50       __acrt_initialize_user_matherr 000000018003cc50 f   libucrt:matherr.obj
 0001:0003bc58       __acrt_invoke_user_matherr 000000018003cc58 f   libucrt:matherr.obj
 0001:0003bca0       wcsncpy_s                  000000018003cca0 f   libucrt:wcsncpy_s.obj
 0001:0003bd84       __acrt_add_locale_ref      000000018003cd84 f   libucrt:locale_refcounting.obj
 0001:0003be10       __acrt_free_locale         000000018003ce10 f   libucrt:locale_refcounting.obj
 0001:0003bf88       __acrt_locale_add_lc_time_reference 000000018003cf88 f   libucrt:locale_refcounting.obj
 0001:0003bfb0       __acrt_locale_free_lc_time_if_unreferenced 000000018003cfb0 f   libucrt:locale_refcounting.obj
 0001:0003bfe8       __acrt_locale_release_lc_time_reference 000000018003cfe8 f   libucrt:locale_refcounting.obj
 0001:0003c010       __acrt_release_locale_ref  000000018003d010 f   libucrt:locale_refcounting.obj
 0001:0003c0b8       __acrt_update_thread_locale_data 000000018003d0b8 f   libucrt:locale_refcounting.obj
 0001:0003c128       _updatetlocinfoEx_nolock   000000018003d128 f   libucrt:locale_refcounting.obj
 0001:0003c258       __acrt_DownlevelLCIDToLocaleName 000000018003d258 f   libucrt:lcidtoname_downlevel.obj
 0001:0003c33c       __acrt_DownlevelLocaleNameToLCID 000000018003d33c f   libucrt:lcidtoname_downlevel.obj
 0001:0003c370       __acrt_lowio_create_handle_array 000000018003d370 f   libucrt:osfinfo.obj
 0001:0003c408       __acrt_lowio_destroy_handle_array 000000018003d408 f   libucrt:osfinfo.obj
 0001:0003c458       __acrt_lowio_ensure_fh_exists 000000018003d458 f   libucrt:osfinfo.obj
 0001:0003c510       __acrt_lowio_lock_fh       000000018003d510 f   libucrt:osfinfo.obj
 0001:0003c534       __acrt_lowio_set_os_handle 000000018003d534 f   libucrt:osfinfo.obj
 0001:0003c5f4       __acrt_lowio_unlock_fh     000000018003d5f4 f   libucrt:osfinfo.obj
 0001:0003c618       _alloc_osfhnd              000000018003d618 f   libucrt:osfinfo.obj
 0001:0003c748       _free_osfhnd               000000018003d748 f   libucrt:osfinfo.obj
 0001:0003c804       _get_osfhandle             000000018003d804 f   libucrt:osfinfo.obj
 0001:0003c87c       __acrt_fp_strflt_to_string 000000018003d87c f   libucrt:_fptostr.obj
 0001:0003c93c       __acrt_fltout              000000018003d93c f   libucrt:cfout.obj
 0001:0003dd30       _isatty                    000000018003ed30 f   libucrt:isatty.obj
 0001:0003dd90       __acrt_locale_free_monetary 000000018003ed90 f   libucrt:initmon.obj
 0001:0003de9c       __acrt_locale_initialize_monetary 000000018003ee9c f   libucrt:initmon.obj
 0001:0003e3d4       __acrt_locale_free_numeric 000000018003f3d4 f   libucrt:initnum.obj
 0001:0003e440       __acrt_locale_initialize_numeric 000000018003f440 f   libucrt:initnum.obj
 0001:0003eac4       __acrt_locale_free_time    000000018003fac4 f   libucrt:inittime.obj
 0001:0003ebcc       __acrt_locale_initialize_time 000000018003fbcc f   libucrt:inittime.obj
 0001:0003ec60       wcscspn                    000000018003fc60 f   libucrt:wcscspn.obj
 0001:0003eca0       wcsncmp                    000000018003fca0 f   libucrt:wcsncmp.obj
 0001:0003eccc       wcspbrk                    000000018003fccc f   libucrt:wcspbrk.obj
 0001:0003f570       __acrt_get_qualified_locale 0000000180040570 f   libucrt:get_qualified_locale.obj
 0001:0003ff5c       __acrt_get_qualified_locale_downlevel 0000000180040f5c f   libucrt:getqloc_downlevel.obj
 0001:000401ec       _wcsnicmp                  00000001800411ec f   libucrt:wcsnicmp.obj
 0001:00040288       _wcsnicmp_l                0000000180041288 f   libucrt:wcsnicmp.obj
 0001:000403b0       strncmp                    00000001800413b0 f   libucrt:strncmp.obj
 0001:00040430       __ascii_strnicmp           0000000180041430 f   libucrt:strnicmp.obj
 0001:00040478       _strnicmp                  0000000180041478 f   libucrt:strnicmp.obj
 0001:000404c8       _strnicmp_l                00000001800414c8 f   libucrt:strnicmp.obj
 0001:00040be8       _sopen_nolock              0000000180041be8 f   libucrt:open.obj
 0001:00040c78       _sopen_s                   0000000180041c78 f   libucrt:open.obj
 0001:00040cac       _wsopen_nolock             0000000180041cac f   libucrt:open.obj
 0001:0004109c       _putwch_nolock             000000018004209c f   libucrt:putwch.obj
 0001:00041110       _get_fpsr                  0000000180042110 f   libucrt:fpsr.obj
 0001:00041120       _set_fpsr                  0000000180042120 f   libucrt:fpsr.obj
 0001:0004112a       _fclrf                     000000018004212a f   libucrt:fpsr.obj
 0001:0004113e       _frnd                      000000018004213e f   libucrt:fpsr.obj
 0001:00041160       strncpy_s                  0000000180042160 f   libucrt:strncpy_s.obj
 0001:00041234       _getfpcontrolword          0000000180042234 f   libucrt:_fenvutils.obj
 0001:0004124c       _getfpstatusword           000000018004224c f   libucrt:_fenvutils.obj
 0001:00041260       _setfpcontrolword          0000000180042260 f   libucrt:_fenvutils.obj
 0001:0004126c       _setfpstatusword           000000018004226c f   libucrt:_fenvutils.obj
 0001:000413e0       _handle_error              00000001800423e0 f   libucrt:libm_error.obj
 0001:00041508       _handle_errorf             0000000180042508 f   libucrt:libm_error.obj
 0001:0004163c       _handle_nan                000000018004263c f   libucrt:libm_error.obj
 0001:00041658       _handle_nanf               0000000180042658 f   libucrt:libm_error.obj
 0001:00041668       _towlower_l                0000000180042668 f   libucrt:towlower.obj
 0001:0004172c       strpbrk                    000000018004272c f   libucrt:strpbrk.obj
 0001:000417cc       _mbsdec                    00000001800427cc f   libucrt:mbsdec.obj
 0001:000417d4       _mbsdec_l                  00000001800427d4 f   libucrt:mbsdec.obj
 0001:00041884       _msize                     0000000180042884 f   libucrt:msize.obj
 0001:000418c0       fegetenv                   00000001800428c0 f   libucrt:fegetenv.obj
 0001:000418e0       fesetenv                   00000001800428e0 f   libucrt:fesetenv.obj
 0001:0004192c       feholdexcept               000000018004292c f   libucrt:feholdexcept.obj
 0001:0004197c       ceil                       000000018004297c f   libucrt:ceil.obj
 0001:00041a40       log10                      0000000180042a40 f   libucrt:log10.obj
 0001:00041fec       wcscmp                     0000000180042fec f   libucrt:wcscmp.obj
 0001:00042024       _get_fmode                 0000000180043024 f   libucrt:setmode.obj
 0001:00042054       _setmode_nolock            0000000180043054 f   libucrt:setmode.obj
 0001:00042134       __acrt_copy_path_to_wide_string 0000000180043134 f   libucrt:string_utilities.obj
 0001:0004222c       _chsize_nolock             000000018004322c f   libucrt:chsize.obj
 0001:000423a8       __dcrt_lowio_initialize_console_output 00000001800433a8 f   libucrt:initcon.obj
 0001:000423e4       __dcrt_terminate_console_output 00000001800433e4 f   libucrt:initcon.obj
 0001:00042404       _clearfp                   0000000180043404 f   libucrt:ieee.obj
 0001:00042458       _controlfp                 0000000180043458 f   libucrt:ieee.obj
 0001:00042464       _statusfp                  0000000180043464 f   libucrt:ieee.obj
 0001:00042744       __acrt_LCMapStringW        0000000180043744 f   libucrt:lcmapstringw.obj
 0001:000427d0       _log10_special             00000001800437d0 f   libucrt:log_special.obj
 0001:000427f0       _log_special               00000001800437f0 f   libucrt:log_special.obj
 0001:000428a6       IsProcessorFeaturePresent  00000001800438a6 f   kernel32:KERNEL32.dll
 0001:000428ac       RtlUnwindEx                00000001800438ac f   kernel32:KERNEL32.dll
 0001:000428b4       ?DloadAcquireSectionWriteAccess@@YAXXZ 00000001800438b4 f i DelayImp:delayhlp.obj
 0001:00042970       ?DloadGetSRWLockFunctionPointers@@YAEXZ 0000000180043970 f i DelayImp:delayhlp.obj
 0001:00042a0c       ?DloadMakePermanentImageCommit@@YAXPEAX_K@Z 0000000180043a0c f i DelayImp:delayhlp.obj
 0001:00042aa4       ?DloadObtainSection@@YAPEAXPEAK0@Z 0000000180043aa4 f i DelayImp:delayhlp.obj
 0001:00042b3c       ?DloadProtectSection@@YAXKPEAK@Z 0000000180043b3c f i DelayImp:delayhlp.obj
 0001:00042bcc       ?DloadReleaseSectionWriteAccess@@YAXXZ 0000000180043bcc f i DelayImp:delayhlp.obj
 0001:00042c70       __delayLoadHelper2         0000000180043c70 f   DelayImp:delayhlp.obj
 0001:00042f70       _FindPESection             0000000180043f70 f   LIBCMT:pesect.obj
 0001:00042fc0       _IsNonwritableInCurrentImage 0000000180043fc0 f   LIBCMT:pesect.obj
 0001:00043010       _ValidateImageBase         0000000180044010 f   LIBCMT:pesect.obj
 0001:00043040       strrchr                    0000000180044040 f   libvcruntime:strrchr.obj
 0001:00043180       wcschr                     0000000180044180 f   libvcruntime:wcschr.obj
 0001:00043220       log                        0000000180044220 f   libucrt:log.obj
 0001:00043760       _guard_dispatch_icall_nop  0000000180044760 f   LIBCMT:_guard_dispatch_.obj
 0001:00044500       ??__F_Static@?1???$_Immortalize@V_Iostream_error_category@std@@@std@@YAAEAV_Iostream_error_category@0@XZ@YAXXZ 0000000180045500 f i lodepng.obj
 0002:00000000       __imp_GetModuleHandleA     0000000180046000     kernel32:KERNEL32.dll
 0002:00000008       __imp_WideCharToMultiByte  0000000180046008     kernel32:KERNEL32.dll
 0002:00000010       __imp_EnterCriticalSection 0000000180046010     kernel32:KERNEL32.dll
 0002:00000018       __imp_LeaveCriticalSection 0000000180046018     kernel32:KERNEL32.dll
 0002:00000020       __imp_DeleteCriticalSection 0000000180046020     kernel32:KERNEL32.dll
 0002:00000028       __imp_EncodePointer        0000000180046028     kernel32:KERNEL32.dll
 0002:00000030       __imp_DecodePointer        0000000180046030     kernel32:KERNEL32.dll
 0002:00000038       __imp_MultiByteToWideChar  0000000180046038     kernel32:KERNEL32.dll
 0002:00000040       __imp_SetLastError         0000000180046040     kernel32:KERNEL32.dll
 0002:00000048       __imp_InitializeCriticalSectionAndSpinCount 0000000180046048     kernel32:KERNEL32.dll
 0002:00000050       __imp_CreateEventW         0000000180046050     kernel32:KERNEL32.dll
 0002:00000058       __imp_TlsAlloc             0000000180046058     kernel32:KERNEL32.dll
 0002:00000060       __imp_TlsGetValue          0000000180046060     kernel32:KERNEL32.dll
 0002:00000068       __imp_TlsSetValue          0000000180046068     kernel32:KERNEL32.dll
 0002:00000070       __imp_TlsFree              0000000180046070     kernel32:KERNEL32.dll
 0002:00000078       __imp_GetSystemTimeAsFileTime 0000000180046078     kernel32:KERNEL32.dll
 0002:00000080       __imp_GetModuleHandleW     0000000180046080     kernel32:KERNEL32.dll
 0002:00000088       __imp_GetProcAddress       0000000180046088     kernel32:KERNEL32.dll
 0002:00000090       __imp_LCMapStringW         0000000180046090     kernel32:KERNEL32.dll
 0002:00000098       __imp_GetLocaleInfoW       0000000180046098     kernel32:KERNEL32.dll
 0002:000000a0       __imp_GetStringTypeW       00000001800460a0     kernel32:KERNEL32.dll
 0002:000000a8       __imp_GetCPInfo            00000001800460a8     kernel32:KERNEL32.dll
 0002:000000b0       __imp_CloseHandle          00000001800460b0     kernel32:KERNEL32.dll
 0002:000000b8       __imp_SetEvent             00000001800460b8     kernel32:KERNEL32.dll
 0002:000000c0       __imp_ResetEvent           00000001800460c0     kernel32:KERNEL32.dll
 0002:000000c8       __imp_WaitForSingleObjectEx 00000001800460c8     kernel32:KERNEL32.dll
 0002:000000d0       __imp_RtlCaptureContext    00000001800460d0     kernel32:KERNEL32.dll
 0002:000000d8       __imp_RtlLookupFunctionEntry 00000001800460d8     kernel32:KERNEL32.dll
 0002:000000e0       __imp_RtlVirtualUnwind     00000001800460e0     kernel32:KERNEL32.dll
 0002:000000e8       __imp_UnhandledExceptionFilter 00000001800460e8     kernel32:KERNEL32.dll
 0002:000000f0       __imp_SetUnhandledExceptionFilter 00000001800460f0     kernel32:KERNEL32.dll
 0002:000000f8       __imp_GetCurrentProcess    00000001800460f8     kernel32:KERNEL32.dll
 0002:00000100       __imp_TerminateProcess     0000000180046100     kernel32:KERNEL32.dll
 0002:00000108       __imp_IsProcessorFeaturePresent 0000000180046108     kernel32:KERNEL32.dll
 0002:00000110       __imp_IsDebuggerPresent    0000000180046110     kernel32:KERNEL32.dll
 0002:00000118       __imp_GetStartupInfoW      0000000180046118     kernel32:KERNEL32.dll
 0002:00000120       __imp_QueryPerformanceCounter 0000000180046120     kernel32:KERNEL32.dll
 0002:00000128       __imp_GetCurrentProcessId  0000000180046128     kernel32:KERNEL32.dll
 0002:00000130       __imp_GetCurrentThreadId   0000000180046130     kernel32:KERNEL32.dll
 0002:00000138       __imp_InitializeSListHead  0000000180046138     kernel32:KERNEL32.dll
 0002:00000140       __imp_RtlPcToFileHeader    0000000180046140     kernel32:KERNEL32.dll
 0002:00000148       __imp_RaiseException       0000000180046148     kernel32:KERNEL32.dll
 0002:00000150       __imp_RtlUnwindEx          0000000180046150     kernel32:KERNEL32.dll
 0002:00000158       __imp_GetLastError         0000000180046158     kernel32:KERNEL32.dll
 0002:00000160       __imp_FreeLibrary          0000000180046160     kernel32:KERNEL32.dll
 0002:00000168       __imp_LoadLibraryExW       0000000180046168     kernel32:KERNEL32.dll
 0002:00000170       __imp_InterlockedFlushSList 0000000180046170     kernel32:KERNEL32.dll
 0002:00000178       __imp_GetStdHandle         0000000180046178     kernel32:KERNEL32.dll
 0002:00000180       __imp_GetFileType          0000000180046180     kernel32:KERNEL32.dll
 0002:00000188       __imp_GetModuleFileNameA   0000000180046188     kernel32:KERNEL32.dll
 0002:00000190       __imp_GetModuleFileNameW   0000000180046190     kernel32:KERNEL32.dll
 0002:00000198       __imp_GetModuleHandleExW   0000000180046198     kernel32:KERNEL32.dll
 0002:000001a0       __imp_WriteConsoleW        00000001800461a0     kernel32:KERNEL32.dll
 0002:000001a8       __imp_ExitProcess          00000001800461a8     kernel32:KERNEL32.dll
 0002:000001b0       __imp_ReadFile             00000001800461b0     kernel32:KERNEL32.dll
 0002:000001b8       __imp_HeapAlloc            00000001800461b8     kernel32:KERNEL32.dll
 0002:000001c0       __imp_HeapReAlloc          00000001800461c0     kernel32:KERNEL32.dll
 0002:000001c8       __imp_HeapFree             00000001800461c8     kernel32:KERNEL32.dll
 0002:000001d0       __imp_WriteFile            00000001800461d0     kernel32:KERNEL32.dll
 0002:000001d8       __imp_OutputDebugStringW   00000001800461d8     kernel32:KERNEL32.dll
 0002:000001e0       __imp_CreateThread         00000001800461e0     kernel32:KERNEL32.dll
 0002:000001e8       __imp_IsValidLocale        00000001800461e8     kernel32:KERNEL32.dll
 0002:000001f0       __imp_GetUserDefaultLCID   00000001800461f0     kernel32:KERNEL32.dll
 0002:000001f8       __imp_EnumSystemLocalesW   00000001800461f8     kernel32:KERNEL32.dll
 0002:00000200       __imp_GetACP               0000000180046200     kernel32:KERNEL32.dll
 0002:00000208       __imp_SetFilePointerEx     0000000180046208     kernel32:KERNEL32.dll
 0002:00000210       __imp_GetConsoleMode       0000000180046210     kernel32:KERNEL32.dll
 0002:00000218       __imp_ReadConsoleW         0000000180046218     kernel32:KERNEL32.dll
 0002:00000220       __imp_FlushFileBuffers     0000000180046220     kernel32:KERNEL32.dll
 0002:00000228       __imp_GetConsoleCP         0000000180046228     kernel32:KERNEL32.dll
 0002:00000230       __imp_GetProcessHeap       0000000180046230     kernel32:KERNEL32.dll
 0002:00000238       __imp_FindClose            0000000180046238     kernel32:KERNEL32.dll
 0002:00000240       __imp_FindFirstFileExA     0000000180046240     kernel32:KERNEL32.dll
 0002:00000248       __imp_FindNextFileA        0000000180046248     kernel32:KERNEL32.dll
 0002:00000250       __imp_IsValidCodePage      0000000180046250     kernel32:KERNEL32.dll
 0002:00000258       __imp_GetOEMCP             0000000180046258     kernel32:KERNEL32.dll
 0002:00000260       __imp_GetCommandLineA      0000000180046260     kernel32:KERNEL32.dll
 0002:00000268       __imp_GetCommandLineW      0000000180046268     kernel32:KERNEL32.dll
 0002:00000270       __imp_GetEnvironmentStringsW 0000000180046270     kernel32:KERNEL32.dll
 0002:00000278       __imp_FreeEnvironmentStringsW 0000000180046278     kernel32:KERNEL32.dll
 0002:00000280       __imp_SetStdHandle         0000000180046280     kernel32:KERNEL32.dll
 0002:00000288       __imp_CreateFileW          0000000180046288     kernel32:KERNEL32.dll
 0002:00000290       __imp_HeapSize             0000000180046290     kernel32:KERNEL32.dll
 0002:00000298       __imp_SetEndOfFile         0000000180046298     kernel32:KERNEL32.dll
 0002:000002a0       __imp_GetSystemInfo        00000001800462a0     kernel32:KERNEL32.dll
 0002:000002a8       __imp_VirtualProtect       00000001800462a8     kernel32:KERNEL32.dll
 0002:000002b0       __imp_VirtualQuery         00000001800462b0     kernel32:KERNEL32.dll
 0002:000002b8       __imp_LoadLibraryExA       00000001800462b8     kernel32:KERNEL32.dll
 0002:000002c0       \177KERNEL32_NULL_THUNK_DATA 00000001800462c0     kernel32:KERNEL32.dll
 0002:000002c8       __guard_check_icall_fptr   00000001800462c8     LIBCMT:guard_support.obj
 0002:000002d0       __guard_dispatch_icall_fptr 00000001800462d0     LIBCMT:guard_support.obj
 0002:000002d8       __xc_a                     00000001800462d8     LIBCMT:initializers.obj
 0002:00000328       _register_zopfli_          0000000180046328     zopfli-binding.obj
 0002:00000330       __xc_z                     0000000180046330     LIBCMT:initializers.obj
 0002:00000338       __xi_a                     0000000180046338     LIBCMT:initializers.obj
 0002:00000350       __acrt_stdio_initializer   0000000180046350     libucrt:stdio_initializer.obj
 0002:00000358       __acrt_tran_fma3_initializer 0000000180046358     libucrt:fma3_initializer.obj
 0002:00000360       __acrt_timeset_initializer 0000000180046360     libucrt:timeset_initializer.obj
 0002:00000368       __acrt_multibyte_initializer 0000000180046368     libucrt:multibyte_initializer.obj
 0002:00000370       __xi_z                     0000000180046370     LIBCMT:initializers.obj
 0002:00000378       __xl_a                     0000000180046378     LIBCMT:tlssup.obj
 0002:00000380       __xl_z                     0000000180046380     LIBCMT:tlssup.obj
 0002:00000388       __xp_a                     0000000180046388     LIBCMT:initializers.obj
 0002:00000390       __acrt_locale_terminator   0000000180046390     libucrt:locale_initializer.obj
 0002:00000398       __dcrt_console_output_terminator 0000000180046398     libucrt:console_output_initializer.obj
 0002:000003a0       __acrt_stdio_terminator    00000001800463a0     libucrt:stdio_initializer.obj
 0002:000003a8       __xp_z                     00000001800463a8     LIBCMT:initializers.obj
 0002:000003b0       __xt_a                     00000001800463b0     LIBCMT:initializers.obj
 0002:000003b8       __xt_z                     00000001800463b8     LIBCMT:initializers.obj
 0002:000003c0       __sz_node_exe              00000001800463c0     node:node.exe
 0002:000003d8       ??_7exception@std@@6B@     00000001800463d8     libcpmt:xthrow.obj
 0002:000003e8       ??_C@_0BC@EOODALEL@Unknown?5exception?$AA@ 00000001800463e8     libcpmt:xthrow.obj
 0002:00000408       ??_7bad_alloc@std@@6B@     0000000180046408     libcpmt:xthrow.obj
 0002:00000418       ??_C@_0P@GHFPNOJB@bad?5allocation?$AA@ 0000000180046418     libcpmt:xthrow.obj
 0002:00000430       ??_7logic_error@std@@6B@   0000000180046430     libcpmt:xthrow.obj
 0002:00000448       ??_7length_error@std@@6B@  0000000180046448     libcpmt:xthrow.obj
 0002:00000460       ??_7out_of_range@std@@6B@  0000000180046460     libcpmt:xthrow.obj
 0002:00000478       ??_7runtime_error@std@@6B@ 0000000180046478     libcpmt:xthrow.obj
 0002:00000558       ??_7_Facet_base@std@@6B@   0000000180046558     libcpmt:locale0.obj
 0002:00000578       ??_7_Locimp@locale@std@@6B@ 0000000180046578     libcpmt:locale0.obj
 0002:00000590       ??_C@_01NBENCBCI@?$CK?$AA@ 0000000180046590     libcpmt:locale0.obj
 0002:00000594       ??_C@_01GFHCPBMG@C?$AA@    0000000180046594     libcpmt:locale0.obj
 0002:00000598       ?_BADOFF@std@@3_JB         0000000180046598     libcpmt:ios.obj
 0002:00000618       ??_C@_01KDCPPGHE@r?$AA@    0000000180046618     libcpmt:fiopen.obj
 0002:0000061c       ??_C@_01NOFIACDB@w?$AA@    000000018004661c     libcpmt:fiopen.obj
 0002:00000620       ??_C@_01MCMALHOG@a?$AA@    0000000180046620     libcpmt:fiopen.obj
 0002:00000624       ??_C@_02BOGAIONP@ab?$AA@   0000000180046624     libcpmt:fiopen.obj
 0002:00000628       ??_C@_02CBLLGHLK@r?$CL?$AA@ 0000000180046628     libcpmt:fiopen.obj
 0002:0000062c       ??_C@_02CHHAKFFB@w?$CL?$AA@ 000000018004662c     libcpmt:fiopen.obj
 0002:00000630       ??_C@_02DPNLHKJD@a?$CL?$AA@ 0000000180046630     libcpmt:fiopen.obj
 0002:00000634       ??_C@_03HMFOOINA@r?$CLb?$AA@ 0000000180046634     libcpmt:fiopen.obj
 0002:00000638       ??_C@_03ELIABIOC@w?$CLb?$AA@ 0000000180046638     libcpmt:fiopen.obj
 0002:0000063c       ??_C@_03DOPCBAKB@a?$CLb?$AA@ 000000018004663c     libcpmt:fiopen.obj
 0002:00000640       ?valid@?1???$_Xfiopen@D@std@@YAPEAU_iobuf@@PEBDHH@Z@4QBHB 0000000180046640     libcpmt:fiopen.obj
 0002:00000db0       ??_C@_0BN@LKKBCCDB@address?5family?5not?5supported?$AA@ 0000000180046db0     libcpmt:syserror.obj
 0002:00000dd0       ??_C@_0P@LDMLAFHI@address?5in?5use?$AA@ 0000000180046dd0     libcpmt:syserror.obj
 0002:00000de0       ??_C@_0BG@DHPCNBJB@address?5not?5available?$AA@ 0000000180046de0     libcpmt:syserror.obj
 0002:00000df8       ??_C@_0BC@DFIBIBIL@already?5connected?$AA@ 0000000180046df8     libcpmt:syserror.obj
 0002:00000e10       ??_C@_0BH@CAKOHOMI@argument?5list?5too?5long?$AA@ 0000000180046e10     libcpmt:syserror.obj
 0002:00000e28       ??_C@_0BH@CGIMPKIM@argument?5out?5of?5domain?$AA@ 0000000180046e28     libcpmt:syserror.obj
 0002:00000e40       ??_C@_0M@KGHGGJGL@bad?5address?$AA@ 0000000180046e40     libcpmt:syserror.obj
 0002:00000e50       ??_C@_0BE@MPJPGCEO@bad?5file?5descriptor?$AA@ 0000000180046e50     libcpmt:syserror.obj
 0002:00000e68       ??_C@_0M@PMMIEFCP@bad?5message?$AA@ 0000000180046e68     libcpmt:syserror.obj
 0002:00000e78       ??_C@_0M@KPHOFDBE@broken?5pipe?$AA@ 0000000180046e78     libcpmt:syserror.obj
 0002:00000e88       ??_C@_0BD@MGNDDEGM@connection?5aborted?$AA@ 0000000180046e88     libcpmt:syserror.obj
 0002:00000ea0       ??_C@_0BP@KAIHPOGN@connection?5already?5in?5progress?$AA@ 0000000180046ea0     libcpmt:syserror.obj
 0002:00000ec0       ??_C@_0BD@PJLIIJEL@connection?5refused?$AA@ 0000000180046ec0     libcpmt:syserror.obj
 0002:00000ed8       ??_C@_0BB@IECNJNOI@connection?5reset?$AA@ 0000000180046ed8     libcpmt:syserror.obj
 0002:00000ef0       ??_C@_0BC@PPHBOELF@cross?5device?5link?$AA@ 0000000180046ef0     libcpmt:syserror.obj
 0002:00000f08       ??_C@_0BN@KDMIFEIP@destination?5address?5required?$AA@ 0000000180046f08     libcpmt:syserror.obj
 0002:00000f28       ??_C@_0BI@NGCEHDD@device?5or?5resource?5busy?$AA@ 0000000180046f28     libcpmt:syserror.obj
 0002:00000f40       ??_C@_0BE@JIDOCPHM@directory?5not?5empty?$AA@ 0000000180046f40     libcpmt:syserror.obj
 0002:00000f58       ??_C@_0BI@BNCLIGPB@executable?5format?5error?$AA@ 0000000180046f58     libcpmt:syserror.obj
 0002:00000f70       ??_C@_0M@MIDIAGJP@file?5exists?$AA@ 0000000180046f70     libcpmt:syserror.obj
 0002:00000f80       ??_C@_0P@DNAJLBJK@file?5too?5large?$AA@ 0000000180046f80     libcpmt:syserror.obj
 0002:00000f90       ??_C@_0BC@EJHOMAAK@filename?5too?5long?$AA@ 0000000180046f90     libcpmt:syserror.obj
 0002:00000fa8       ??_C@_0BH@KEFGLDAF@function?5not?5supported?$AA@ 0000000180046fa8     libcpmt:syserror.obj
 0002:00000fc0       ??_C@_0BB@DHFDFGDM@host?5unreachable?$AA@ 0000000180046fc0     libcpmt:syserror.obj
 0002:00000fd8       ??_C@_0BD@JPHBMONG@identifier?5removed?$AA@ 0000000180046fd8     libcpmt:syserror.obj
 0002:00000ff0       ??_C@_0BG@CDNPAGJK@illegal?5byte?5sequence?$AA@ 0000000180046ff0     libcpmt:syserror.obj
 0002:00001008       ??_C@_0CD@BNPLBMNA@inappropriate?5io?5control?5operati@ 0000000180047008     libcpmt:syserror.obj
 0002:00001030       ??_C@_0M@EGEKIIMP@interrupted?$AA@ 0000000180047030     libcpmt:syserror.obj
 0002:00001040       ??_C@_0BB@FCMFBGOM@invalid?5argument?$AA@ 0000000180047040     libcpmt:syserror.obj
 0002:00001058       ??_C@_0N@OHAFKDEK@invalid?5seek?$AA@ 0000000180047058     libcpmt:syserror.obj
 0002:00001068       ??_C@_08GLNPIFBN@io?5error?$AA@ 0000000180047068     libcpmt:syserror.obj
 0002:00001078       ??_C@_0P@FLLDBIDK@is?5a?5directory?$AA@ 0000000180047078     libcpmt:syserror.obj
 0002:00001088       ??_C@_0N@IFLPBIOP@message?5size?$AA@ 0000000180047088     libcpmt:syserror.obj
 0002:00001098       ??_C@_0N@KIIEAAIO@network?5down?$AA@ 0000000180047098     libcpmt:syserror.obj
 0002:000010a8       ??_C@_0O@FNPDBHEE@network?5reset?$AA@ 00000001800470a8     libcpmt:syserror.obj
 0002:000010b8       ??_C@_0BE@IFNCKGE@network?5unreachable?$AA@ 00000001800470b8     libcpmt:syserror.obj
 0002:000010d0       ??_C@_0BA@PFFCAOFK@no?5buffer?5space?$AA@ 00000001800470d0     libcpmt:syserror.obj
 0002:000010e0       ??_C@_0BB@IEPBLJHK@no?5child?5process?$AA@ 00000001800470e0     libcpmt:syserror.obj
 0002:000010f8       ??_C@_07PLECNNKG@no?5link?$AA@ 00000001800470f8     libcpmt:syserror.obj
 0002:00001100       ??_C@_0BC@NJECKMKE@no?5lock?5available?$AA@ 0000000180047100     libcpmt:syserror.obj
 0002:00001118       ??_C@_0BF@PBGGPKKE@no?5message?5available?$AA@ 0000000180047118     libcpmt:syserror.obj
 0002:00001130       ??_C@_0L@EDOLMPAK@no?5message?$AA@ 0000000180047130     libcpmt:syserror.obj
 0002:00001140       ??_C@_0BD@EAMBFIDF@no?5protocol?5option?$AA@ 0000000180047140     libcpmt:syserror.obj
 0002:00001158       ??_C@_0BD@IJDJKDEA@no?5space?5on?5device?$AA@ 0000000180047158     libcpmt:syserror.obj
 0002:00001170       ??_C@_0BE@MKFDAFMP@no?5stream?5resources?$AA@ 0000000180047170     libcpmt:syserror.obj
 0002:00001188       ??_C@_0BK@IMCPHCBI@no?5such?5device?5or?5address?$AA@ 0000000180047188     libcpmt:syserror.obj
 0002:000011a8       ??_C@_0P@FDINDDOK@no?5such?5device?$AA@ 00000001800471a8     libcpmt:syserror.obj
 0002:000011b8       ??_C@_0BK@NDOCBPGE@no?5such?5file?5or?5directory?$AA@ 00000001800471b8     libcpmt:syserror.obj
 0002:000011d8       ??_C@_0BA@ENLPPKBN@no?5such?5process?$AA@ 00000001800471d8     libcpmt:syserror.obj
 0002:000011e8       ??_C@_0BA@DOCPFFJG@not?5a?5directory?$AA@ 00000001800471e8     libcpmt:syserror.obj
 0002:000011f8       ??_C@_0N@POEIPGGF@not?5a?5socket?$AA@ 00000001800471f8     libcpmt:syserror.obj
 0002:00001208       ??_C@_0N@LGAPMMPI@not?5a?5stream?$AA@ 0000000180047208     libcpmt:syserror.obj
 0002:00001218       ??_C@_0O@GLMIBBEG@not?5connected?$AA@ 0000000180047218     libcpmt:syserror.obj
 0002:00001228       ??_C@_0BC@ENOOLCNF@not?5enough?5memory?$AA@ 0000000180047228     libcpmt:syserror.obj
 0002:00001240       ??_C@_0O@NHEDABJP@not?5supported?$AA@ 0000000180047240     libcpmt:syserror.obj
 0002:00001250       ??_C@_0BD@MOLBPMEA@operation?5canceled?$AA@ 0000000180047250     libcpmt:syserror.obj
 0002:00001268       ??_C@_0BG@KDKHOPCO@operation?5in?5progress?$AA@ 0000000180047268     libcpmt:syserror.obj
 0002:00001280       ??_C@_0BI@OHIEJAAB@operation?5not?5permitted?$AA@ 0000000180047280     libcpmt:syserror.obj
 0002:00001298       ??_C@_0BI@LNEGIFLN@operation?5not?5supported?$AA@ 0000000180047298     libcpmt:syserror.obj
 0002:000012b0       ??_C@_0BG@OEMDKMEE@operation?5would?5block?$AA@ 00000001800472b0     libcpmt:syserror.obj
 0002:000012c8       ??_C@_0L@BLPOFLNJ@owner?5dead?$AA@ 00000001800472c8     libcpmt:syserror.obj
 0002:000012d8       ??_C@_0BC@CIJDGCDI@permission?5denied?$AA@ 00000001800472d8     libcpmt:syserror.obj
 0002:000012f0       ??_C@_0P@FNPOCJBE@protocol?5error?$AA@ 00000001800472f0     libcpmt:syserror.obj
 0002:00001300       ??_C@_0BH@JPPPLHJB@protocol?5not?5supported?$AA@ 0000000180047300     libcpmt:syserror.obj
 0002:00001318       ??_C@_0BG@EICBIHDP@read?5only?5file?5system?$AA@ 0000000180047318     libcpmt:syserror.obj
 0002:00001330       ??_C@_0BO@BJBOMOEJ@resource?5deadlock?5would?5occur?$AA@ 0000000180047330     libcpmt:syserror.obj
 0002:00001350       ??_C@_0BP@LKNGHENJ@resource?5unavailable?5try?5again?$AA@ 0000000180047350     libcpmt:syserror.obj
 0002:00001370       ??_C@_0BE@GOIPJJHG@result?5out?5of?5range?$AA@ 0000000180047370     libcpmt:syserror.obj
 0002:00001388       ??_C@_0BG@MPLKFPAE@state?5not?5recoverable?$AA@ 0000000180047388     libcpmt:syserror.obj
 0002:000013a0       ??_C@_0P@DIIFGFCG@stream?5timeout?$AA@ 00000001800473a0     libcpmt:syserror.obj
 0002:000013b0       ??_C@_0P@IPFDMIFL@text?5file?5busy?$AA@ 00000001800473b0     libcpmt:syserror.obj
 0002:000013c0       ??_C@_09KJPPMAOI@timed?5out?$AA@ 00000001800473c0     libcpmt:syserror.obj
 0002:000013d0       ??_C@_0BO@HACHBEKI@too?5many?5files?5open?5in?5system?$AA@ 00000001800473d0     libcpmt:syserror.obj
 0002:000013f0       ??_C@_0BE@GHAFMPAH@too?5many?5files?5open?$AA@ 00000001800473f0     libcpmt:syserror.obj
 0002:00001408       ??_C@_0P@HCOMKFCC@too?5many?5links?$AA@ 0000000180047408     libcpmt:syserror.obj
 0002:00001418       ??_C@_0BO@EFGOJEF@too?5many?5symbolic?5link?5levels?$AA@ 0000000180047418     libcpmt:syserror.obj
 0002:00001438       ??_C@_0BA@KGKGOOJA@value?5too?5large?$AA@ 0000000180047438     libcpmt:syserror.obj
 0002:00001448       ??_C@_0BE@MIEJDDNH@wrong?5protocol?5type?$AA@ 0000000180047448     libcpmt:syserror.obj
 0002:00001460       ??_C@_0O@BFJCFAAK@unknown?5error?$AA@ 0000000180047460     libcpmt:syserror.obj
 0002:000014a0       ??_7?$ctype@D@std@@6B@     00000001800474a0     libcpmt:cout.obj
 0002:00001500       ??_7error_category@std@@6B@ 0000000180047500     libcpmt:cout.obj
 0002:00001538       ??_7_System_error@std@@6B@ 0000000180047538     libcpmt:cout.obj
 0002:00001550       ??_7_Iostream_error_category@std@@6B@ 0000000180047550     libcpmt:cout.obj
 0002:00001588       ??_7failure@ios_base@std@@6B@ 0000000180047588     libcpmt:cout.obj
 0002:000015a0       ??_7ios_base@std@@6B@      00000001800475a0     libcpmt:cout.obj
 0002:000015b0       ??_7?$basic_streambuf@DU?$char_traits@D@std@@@std@@6B@ 00000001800475b0     libcpmt:cout.obj
 0002:00001630       ??_7?$basic_filebuf@DU?$char_traits@D@std@@@std@@6B@ 0000000180047630     libcpmt:cout.obj
 0002:000016b0       ??_7?$basic_ios@DU?$char_traits@D@std@@@std@@6B@ 00000001800476b0     libcpmt:cout.obj
 0002:000016c0       ??_7?$basic_ostream@DU?$char_traits@D@std@@@std@@6B@ 00000001800476c0     libcpmt:cout.obj
 0002:000016d0       ??_7?$codecvt@DDU_Mbstatet@@@std@@6B@ 00000001800476d0     libcpmt:cout.obj
 0002:00001748       ??_C@_1BK@MGMFAEKH@?$AAk?$AAe?$AAr?$AAn?$AAe?$AAl?$AA3?$AA2?$AA?4?$AAd?$AAl?$AAl?$AA?$AA@ 0000000180047748     libcpmt:winapisupp.obj
 0002:00001768       ??_C@_08KNHFBNJ@FlsAlloc?$AA@ 0000000180047768     libcpmt:winapisupp.obj
 0002:00001778       ??_C@_07PEJMOBNF@FlsFree?$AA@ 0000000180047778     libcpmt:winapisupp.obj
 0002:00001780       ??_C@_0M@GDNOONDI@FlsGetValue?$AA@ 0000000180047780     libcpmt:winapisupp.obj
 0002:00001790       ??_C@_0M@JCPCPOEF@FlsSetValue?$AA@ 0000000180047790     libcpmt:winapisupp.obj
 0002:000017a0       ??_C@_0BM@HCFOFFN@InitializeCriticalSectionEx?$AA@ 00000001800477a0     libcpmt:winapisupp.obj
 0002:000017c0       ??_C@_0BE@GPLMMCMH@InitOnceExecuteOnce?$AA@ 00000001800477c0     libcpmt:winapisupp.obj
 0002:000017d8       ??_C@_0P@DLHPPCNH@CreateEventExW?$AA@ 00000001800477d8     libcpmt:winapisupp.obj
 0002:000017e8       ??_C@_0BB@MEFPJLHN@CreateSemaphoreW?$AA@ 00000001800477e8     libcpmt:winapisupp.obj
 0002:00001800       ??_C@_0BD@KIEEOEEH@CreateSemaphoreExW?$AA@ 0000000180047800     libcpmt:winapisupp.obj
 0002:00001818       ??_C@_0BG@OGFAJCKC@CreateThreadpoolTimer?$AA@ 0000000180047818     libcpmt:winapisupp.obj
 0002:00001830       ??_C@_0BD@LPLEMMDI@SetThreadpoolTimer?$AA@ 0000000180047830     libcpmt:winapisupp.obj
 0002:00001848       ??_C@_0CA@FMNJENH@WaitForThreadpoolTimerCallbacks?$AA@ 0000000180047848     libcpmt:winapisupp.obj
 0002:00001868       ??_C@_0BF@DCFCCNOC@CloseThreadpoolTimer?$AA@ 0000000180047868     libcpmt:winapisupp.obj
 0002:00001880       ??_C@_0BF@FLABGKKM@CreateThreadpoolWait?$AA@ 0000000180047880     libcpmt:winapisupp.obj
 0002:00001898       ??_C@_0BC@MGCOHNA@SetThreadpoolWait?$AA@ 0000000180047898     libcpmt:winapisupp.obj
 0002:000018b0       ??_C@_0BE@OCIOMIMP@CloseThreadpoolWait?$AA@ 00000001800478b0     libcpmt:winapisupp.obj
 0002:000018c8       ??_C@_0BJ@LKGHFHBO@FlushProcessWriteBuffers?$AA@ 00000001800478c8     libcpmt:winapisupp.obj
 0002:000018e8       ??_C@_0BP@KALKKPMO@FreeLibraryWhenCallbackReturns?$AA@ 00000001800478e8     libcpmt:winapisupp.obj
 0002:00001908       ??_C@_0BK@DFNBACLA@GetCurrentProcessorNumber?$AA@ 0000000180047908     libcpmt:winapisupp.obj
 0002:00001928       ??_C@_0BE@FKKLLFLM@CreateSymbolicLinkW?$AA@ 0000000180047928     libcpmt:winapisupp.obj
 0002:00001940       ??_C@_0BE@JOGNEJCI@GetCurrentPackageId?$AA@ 0000000180047940     libcpmt:winapisupp.obj
 0002:00001958       ??_C@_0P@CDHHOHKP@GetTickCount64?$AA@ 0000000180047958     libcpmt:winapisupp.obj
 0002:00001968       ??_C@_0BN@NEEHBBPO@GetFileInformationByHandleEx?$AA@ 0000000180047968     libcpmt:winapisupp.obj
 0002:00001988       ??_C@_0BL@KBBHGKCM@SetFileInformationByHandle?$AA@ 0000000180047988     libcpmt:winapisupp.obj
 0002:000019a8       ??_C@_0BP@FPNJPEJC@GetSystemTimePreciseAsFileTime?$AA@ 00000001800479a8     libcpmt:winapisupp.obj
 0002:000019c8       ??_C@_0BM@HLJJNPAH@InitializeConditionVariable?$AA@ 00000001800479c8     libcpmt:winapisupp.obj
 0002:000019e8       ??_C@_0BG@BFNILBLN@WakeConditionVariable?$AA@ 00000001800479e8     libcpmt:winapisupp.obj
 0002:00001a00       ??_C@_0BJ@PGPPEPCC@WakeAllConditionVariable?$AA@ 0000000180047a00     libcpmt:winapisupp.obj
 0002:00001a20       ??_C@_0BJ@JEBJOJFJ@SleepConditionVariableCS?$AA@ 0000000180047a20     libcpmt:winapisupp.obj
 0002:00001a40       ??_C@_0BC@MMLHEBPB@InitializeSRWLock?$AA@ 0000000180047a40     libcpmt:winapisupp.obj
 0002:00001a58       ??_C@_0BI@OMNLIJDB@AcquireSRWLockExclusive?$AA@ 0000000180047a58     libcpmt:winapisupp.obj
 0002:00001a70       ??_C@_0BL@OGHFEMNA@TryAcquireSRWLockExclusive?$AA@ 0000000180047a70     libcpmt:winapisupp.obj
 0002:00001a90       ??_C@_0BI@HMIEPCNJ@ReleaseSRWLockExclusive?$AA@ 0000000180047a90     libcpmt:winapisupp.obj
 0002:00001aa8       ??_C@_0BK@LGACAGIC@SleepConditionVariableSRW?$AA@ 0000000180047aa8     libcpmt:winapisupp.obj
 0002:00001ac8       ??_C@_0BF@GGPHFPJA@CreateThreadpoolWork?$AA@ 0000000180047ac8     libcpmt:winapisupp.obj
 0002:00001ae0       ??_C@_0BF@NHDAIMMO@SubmitThreadpoolWork?$AA@ 0000000180047ae0     libcpmt:winapisupp.obj
 0002:00001af8       ??_C@_0BE@NPHIPNPD@CloseThreadpoolWork?$AA@ 0000000180047af8     libcpmt:winapisupp.obj
 0002:00001b10       ??_C@_0BA@IHGNDAEB@CompareStringEx?$AA@ 0000000180047b10     libcpmt:winapisupp.obj
 0002:00001b20       ??_C@_0BA@ONOKGCMP@GetLocaleInfoEx?$AA@ 0000000180047b20     libcpmt:winapisupp.obj
 0002:00001b30       ??_C@_0O@KKBNKAPF@LCMapStringEx?$AA@ 0000000180047b30     libcpmt:winapisupp.obj
 0002:00001b40       ??_C@_11LOCGONAA@?$AA?$AA@ 0000000180047b40     libcpmt:wlocale.obj
 0002:00001b44       ??_C@_01JOAMLHOP@?9?$AA@   0000000180047b44     libcpmt:wlocale.obj
 0002:00001be8       ??_C@_1M@JKFFICHJ@?$AAe?$AAs?$AA?9?$AAv?$AAe?$AA?$AA@ 0000000180047be8     libcpmt:winapinls.obj
 0002:00001bf8       ??_C@_1M@PNMLOJDF@?$AAe?$AAt?$AA?9?$AAe?$AAe?$AA?$AA@ 0000000180047bf8     libcpmt:winapinls.obj
 0002:00001c08       ??_C@_1M@GHHLIKEI@?$AAe?$AAu?$AA?9?$AAe?$AAs?$AA?$AA@ 0000000180047c08     libcpmt:winapinls.obj
 0002:00001c18       ??_C@_1M@PBNONODE@?$AAf?$AAa?$AA?9?$AAi?$AAr?$AA?$AA@ 0000000180047c18     libcpmt:winapinls.obj
 0002:00001c28       ??_C@_1M@JEEHPMIL@?$AAf?$AAi?$AA?9?$AAf?$AAi?$AA?$AA@ 0000000180047c28     libcpmt:winapinls.obj
 0002:00001c38       ??_C@_1M@LMDCNDBA@?$AAf?$AAo?$AA?9?$AAf?$AAo?$AA?$AA@ 0000000180047c38     libcpmt:winapinls.obj
 0002:00001c48       ??_C@_1M@JKEOHLDK@?$AAf?$AAr?$AA?9?$AAb?$AAe?$AA?$AA@ 0000000180047c48     libcpmt:winapinls.obj
 0002:00001c58       ??_C@_1M@NOHADPMI@?$AAf?$AAr?$AA?9?$AAc?$AAa?$AA?$AA@ 0000000180047c58     libcpmt:winapinls.obj
 0002:00001c68       ??_C@_1M@KDHIHAEC@?$AAf?$AAr?$AA?9?$AAc?$AAh?$AA?$AA@ 0000000180047c68     libcpmt:winapinls.obj
 0002:00001c78       ??_C@_1M@MMBBFGAK@?$AAf?$AAr?$AA?9?$AAf?$AAr?$AA?$AA@ 0000000180047c78     libcpmt:winapinls.obj
 0002:00001c88       ??_C@_1M@PAFNENNF@?$AAf?$AAr?$AA?9?$AAl?$AAu?$AA?$AA@ 0000000180047c88     libcpmt:winapinls.obj
 0002:00001c98       ??_C@_1M@EOHDJGDD@?$AAf?$AAr?$AA?9?$AAm?$AAc?$AA?$AA@ 0000000180047c98     libcpmt:winapinls.obj
 0002:00001ca8       ??_C@_1M@FAPLLOPF@?$AAg?$AAl?$AA?9?$AAe?$AAs?$AA?$AA@ 0000000180047ca8     libcpmt:winapinls.obj
 0002:00001cb8       ??_C@_1M@FOPBFLOO@?$AAg?$AAu?$AA?9?$AAi?$AAn?$AA?$AA@ 0000000180047cb8     libcpmt:winapinls.obj
 0002:00001cc8       ??_C@_1M@KBMCINPM@?$AAh?$AAe?$AA?9?$AAi?$AAl?$AA?$AA@ 0000000180047cc8     libcpmt:winapinls.obj
 0002:00001cd8       ??_C@_1M@BBPHKFPJ@?$AAh?$AAi?$AA?9?$AAi?$AAn?$AA?$AA@ 0000000180047cd8     libcpmt:winapinls.obj
 0002:00001ce8       ??_C@_1M@PMBNDPHD@?$AAh?$AAr?$AA?9?$AAb?$AAa?$AA?$AA@ 0000000180047ce8     libcpmt:winapinls.obj
 0002:00001cf8       ??_C@_1M@BPCKOEGE@?$AAh?$AAr?$AA?9?$AAh?$AAr?$AA?$AA@ 0000000180047cf8     libcpmt:winapinls.obj
 0002:00001d08       ??_C@_1M@GACBMHKE@?$AAh?$AAu?$AA?9?$AAh?$AAu?$AA?$AA@ 0000000180047d08     libcpmt:winapinls.obj
 0002:00001d18       ??_C@_1M@MILPAJJC@?$AAh?$AAy?$AA?9?$AAa?$AAm?$AA?$AA@ 0000000180047d18     libcpmt:winapinls.obj
 0002:00001d28       ??_C@_1M@BABBICEC@?$AAi?$AAd?$AA?9?$AAi?$AAd?$AA?$AA@ 0000000180047d28     libcpmt:winapinls.obj
 0002:00001d38       ??_C@_1M@BIKNHHPF@?$AAi?$AAs?$AA?9?$AAi?$AAs?$AA?$AA@ 0000000180047d38     libcpmt:winapinls.obj
 0002:00001d48       ??_C@_1M@NMPCJPHE@?$AAi?$AAt?$AA?9?$AAc?$AAh?$AA?$AA@ 0000000180047d48     libcpmt:winapinls.obj
 0002:00001d58       ??_C@_1M@GHKGFEDF@?$AAi?$AAt?$AA?9?$AAi?$AAt?$AA?$AA@ 0000000180047d58     libcpmt:winapinls.obj
 0002:00001d68       ??_C@_1M@NIEJCJJA@?$AAj?$AAa?$AA?9?$AAj?$AAp?$AA?$AA@ 0000000180047d68     libcpmt:winapinls.obj
 0002:00001d78       ??_C@_1M@JILFNBIM@?$AAk?$AAa?$AA?9?$AAg?$AAe?$AA?$AA@ 0000000180047d78     libcpmt:winapinls.obj
 0002:00001d88       ??_C@_1M@PACPMGPH@?$AAk?$AAk?$AA?9?$AAk?$AAz?$AA?$AA@ 0000000180047d88     libcpmt:winapinls.obj
 0002:00001d98       ??_C@_1M@IELFGMHA@?$AAk?$AAn?$AA?9?$AAi?$AAn?$AA?$AA@ 0000000180047d98     libcpmt:winapinls.obj
 0002:00001da8       ??_C@_1M@DMHAEOGC@?$AAk?$AAo?$AA?9?$AAk?$AAr?$AA?$AA@ 0000000180047da8     libcpmt:winapinls.obj
 0002:00001db8       ??_C@_1O@IBBJHCH@?$AAk?$AAo?$AAk?$AA?9?$AAi?$AAn?$AA?$AA@ 0000000180047db8     libcpmt:winapinls.obj
 0002:00001dc8       ??_C@_1M@HBAHBIGA@?$AAk?$AAy?$AA?9?$AAk?$AAg?$AA?$AA@ 0000000180047dc8     libcpmt:winapinls.obj
 0002:00001dd8       ??_C@_1M@KPMILCJG@?$AAl?$AAt?$AA?9?$AAl?$AAt?$AA?$AA@ 0000000180047dd8     libcpmt:winapinls.obj
 0002:00001de8       ??_C@_1M@BDEKKCA@?$AAl?$AAv?$AA?9?$AAl?$AAv?$AA?$AA@ 0000000180047de8     libcpmt:winapinls.obj
 0002:00001df8       ??_C@_1M@ELCKCCJJ@?$AAm?$AAi?$AA?9?$AAn?$AAz?$AA?$AA@ 0000000180047df8     libcpmt:winapinls.obj
 0002:00001e08       ??_C@_1M@CBOOLAPA@?$AAm?$AAk?$AA?9?$AAm?$AAk?$AA?$AA@ 0000000180047e08     libcpmt:winapinls.obj
 0002:00001e18       ??_C@_1M@GPHNBJKN@?$AAm?$AAl?$AA?9?$AAi?$AAn?$AA?$AA@ 0000000180047e18     libcpmt:winapinls.obj
 0002:00001e28       ??_C@_1M@PABJILIG@?$AAm?$AAn?$AA?9?$AAm?$AAn?$AA?$AA@ 0000000180047e28     libcpmt:winapinls.obj
 0002:00001e38       ??_C@_1M@FGBKKIPG@?$AAm?$AAr?$AA?9?$AAi?$AAn?$AA?$AA@ 0000000180047e38     libcpmt:winapinls.obj
 0002:00001e48       ??_C@_1M@NDBPDDAL@?$AAm?$AAs?$AA?9?$AAb?$AAn?$AA?$AA@ 0000000180047e48     libcpmt:winapinls.obj
 0002:00001e58       ??_C@_1M@OPIHOOPI@?$AAm?$AAs?$AA?9?$AAm?$AAy?$AA?$AA@ 0000000180047e58     libcpmt:winapinls.obj
 0002:00001e68       ??_C@_1M@PPDBCNFM@?$AAm?$AAt?$AA?9?$AAm?$AAt?$AA?$AA@ 0000000180047e68     libcpmt:winapinls.obj
 0002:00001e78       ??_C@_1M@KDJDKMDD@?$AAn?$AAb?$AA?9?$AAn?$AAo?$AA?$AA@ 0000000180047e78     libcpmt:winapinls.obj
 0002:00001e88       ??_C@_1M@KFCFLMJP@?$AAn?$AAl?$AA?9?$AAb?$AAe?$AA?$AA@ 0000000180047e88     libcpmt:winapinls.obj
 0002:00001e98       ??_C@_1M@KPOPDDGO@?$AAn?$AAl?$AA?9?$AAn?$AAl?$AA?$AA@ 0000000180047e98     libcpmt:winapinls.obj
 0002:00001ea8       ??_C@_1M@LJKPEMLN@?$AAn?$AAn?$AA?9?$AAn?$AAo?$AA?$AA@ 0000000180047ea8     libcpmt:winapinls.obj
 0002:00001eb8       ??_C@_1M@BDGHHBFL@?$AAn?$AAs?$AA?9?$AAz?$AAa?$AA?$AA@ 0000000180047eb8     libcpmt:winapinls.obj
 0002:00001ec8       ??_C@_1M@IDEHOAP@?$AAp?$AAa?$AA?9?$AAi?$AAn?$AA?$AA@ 0000000180047ec8     libcpmt:winapinls.obj
 0002:00001ed8       ??_C@_1M@HDBKGOGH@?$AAp?$AAl?$AA?9?$AAp?$AAl?$AA?$AA@ 0000000180047ed8     libcpmt:winapinls.obj
 0002:00001ee8       ??_C@_1M@LJLLCMEH@?$AAp?$AAt?$AA?9?$AAb?$AAr?$AA?$AA@ 0000000180047ee8     libcpmt:winapinls.obj
 0002:00001ef8       ??_C@_1M@NCMONAAL@?$AAp?$AAt?$AA?9?$AAp?$AAt?$AA?$AA@ 0000000180047ef8     libcpmt:winapinls.obj
 0002:00001f08       ??_C@_1O@EAKMAJDN@?$AAq?$AAu?$AAz?$AA?9?$AAb?$AAo?$AA?$AA@ 0000000180047f08     libcpmt:winapinls.obj
 0002:00001f18       ??_C@_1O@BHHPIGDN@?$AAq?$AAu?$AAz?$AA?9?$AAe?$AAc?$AA?$AA@ 0000000180047f18     libcpmt:winapinls.obj
 0002:00001f28       ??_C@_1O@GBAPEKMJ@?$AAq?$AAu?$AAz?$AA?9?$AAp?$AAe?$AA?$AA@ 0000000180047f28     libcpmt:winapinls.obj
 0002:00001f38       ??_C@_1M@CLGLEFBO@?$AAr?$AAo?$AA?9?$AAr?$AAo?$AA?$AA@ 0000000180047f38     libcpmt:winapinls.obj
 0002:00001f48       ??_C@_1M@CEEDODME@?$AAr?$AAu?$AA?9?$AAr?$AAu?$AA?$AA@ 0000000180047f48     libcpmt:winapinls.obj
 0002:00001f58       ??_C@_1M@HPKKKMPP@?$AAs?$AAa?$AA?9?$AAi?$AAn?$AA?$AA@ 0000000180047f58     libcpmt:winapinls.obj
 0002:00001f68       ??_C@_1M@BKMAIGOJ@?$AAs?$AAe?$AA?9?$AAf?$AAi?$AA?$AA@ 0000000180047f68     libcpmt:winapinls.obj
 0002:00001f78       ??_C@_1M@NDPIFLFI@?$AAs?$AAe?$AA?9?$AAn?$AAo?$AA?$AA@ 0000000180047f78     libcpmt:winapinls.obj
 0002:00001f88       ??_C@_1M@DANKKHJ@?$AAs?$AAe?$AA?9?$AAs?$AAe?$AA?$AA@ 0000000180047f88     libcpmt:winapinls.obj
 0002:00001f98       ??_C@_1M@PNBLONPJ@?$AAs?$AAk?$AA?9?$AAs?$AAk?$AA?$AA@ 0000000180047f98     libcpmt:winapinls.obj
 0002:00001fa8       ??_C@_1M@LFMODOAL@?$AAs?$AAl?$AA?9?$AAs?$AAi?$AA?$AA@ 0000000180047fa8     libcpmt:winapinls.obj
 0002:00001fb8       ??_C@_1O@DFKOMPG@?$AAs?$AAm?$AAa?$AA?9?$AAn?$AAo?$AA?$AA@ 0000000180047fb8     libcpmt:winapinls.obj
 0002:00001fc8       ??_C@_1O@NDKPBNNH@?$AAs?$AAm?$AAa?$AA?9?$AAs?$AAe?$AA?$AA@ 0000000180047fc8     libcpmt:winapinls.obj
 0002:00001fd8       ??_C@_1O@PLLKBHAB@?$AAs?$AAm?$AAj?$AA?9?$AAn?$AAo?$AA?$AA@ 0000000180047fd8     libcpmt:winapinls.obj
 0002:00001fe8       ??_C@_1O@CLEPOGCA@?$AAs?$AAm?$AAj?$AA?9?$AAs?$AAe?$AA?$AA@ 0000000180047fe8     libcpmt:winapinls.obj
 0002:00001ff8       ??_C@_1O@DLGJGKMK@?$AAs?$AAm?$AAn?$AA?9?$AAf?$AAi?$AA?$AA@ 0000000180047ff8     libcpmt:winapinls.obj
 0002:00002008       ??_C@_1O@OJDJGAJC@?$AAs?$AAm?$AAs?$AA?9?$AAf?$AAi?$AA?$AA@ 0000000180048008     libcpmt:winapinls.obj
 0002:00002018       ??_C@_1M@BOFOGHPB@?$AAs?$AAq?$AA?9?$AAa?$AAl?$AA?$AA@ 0000000180048018     libcpmt:winapinls.obj
 0002:00002028       ??_C@_1BG@LJBBIPGB@?$AAs?$AAr?$AA?9?$AAb?$AAa?$AA?9?$AAc?$AAy?$AAr?$AAl?$AA?$AA@ 0000000180048028     libcpmt:winapinls.obj
 0002:00002040       ??_C@_1BG@JLBENFOE@?$AAs?$AAr?$AA?9?$AAb?$AAa?$AA?9?$AAl?$AAa?$AAt?$AAn?$AA?$AA@ 0000000180048040     libcpmt:winapinls.obj
 0002:00002058       ??_C@_1BG@KODPNHE@?$AAs?$AAr?$AA?9?$AAs?$AAp?$AA?9?$AAc?$AAy?$AAr?$AAl?$AA?$AA@ 0000000180048058     libcpmt:winapinls.obj
 0002:00002070       ??_C@_1BG@CIOGKHPB@?$AAs?$AAr?$AA?9?$AAs?$AAp?$AA?9?$AAl?$AAa?$AAt?$AAn?$AA?$AA@ 0000000180048070     libcpmt:winapinls.obj
 0002:00002088       ??_C@_1M@NGFJLMAC@?$AAs?$AAv?$AA?9?$AAf?$AAi?$AA?$AA@ 0000000180048088     libcpmt:winapinls.obj
 0002:00002098       ??_C@_1M@MPJEJAJC@?$AAs?$AAv?$AA?9?$AAs?$AAe?$AA?$AA@ 0000000180048098     libcpmt:winapinls.obj
 0002:000020a8       ??_C@_1M@MPNDHLFK@?$AAs?$AAw?$AA?9?$AAk?$AAe?$AA?$AA@ 00000001800480a8     libcpmt:winapinls.obj
 0002:000020b8       ??_C@_1O@KOHBJJI@?$AAs?$AAy?$AAr?$AA?9?$AAs?$AAy?$AA?$AA@ 00000001800480b8     libcpmt:winapinls.obj
 0002:000020c8       ??_C@_1M@LDCEFHA@?$AAt?$AAa?$AA?9?$AAi?$AAn?$AA?$AA@ 00000001800480c8     libcpmt:winapinls.obj
 0002:000020d8       ??_C@_1M@CNJOFAK@?$AAt?$AAe?$AA?9?$AAi?$AAn?$AA?$AA@ 00000001800480d8     libcpmt:winapinls.obj
 0002:000020e8       ??_C@_1M@GNAECACD@?$AAt?$AAh?$AA?9?$AAt?$AAh?$AA?$AA@ 00000001800480e8     libcpmt:winapinls.obj
 0002:000020f8       ??_C@_1M@CHBIHOJO@?$AAt?$AAn?$AA?9?$AAz?$AAa?$AA?$AA@ 00000001800480f8     libcpmt:winapinls.obj
 0002:00002108       ??_C@_1M@GCCMIGPJ@?$AAt?$AAr?$AA?9?$AAt?$AAr?$AA?$AA@ 0000000180048108     libcpmt:winapinls.obj
 0002:00002118       ??_C@_1M@CELMCNBK@?$AAt?$AAt?$AA?9?$AAr?$AAu?$AA?$AA@ 0000000180048118     libcpmt:winapinls.obj
 0002:00002128       ??_C@_1M@KLMCELGA@?$AAu?$AAk?$AA?9?$AAu?$AAa?$AA?$AA@ 0000000180048128     libcpmt:winapinls.obj
 0002:00002138       ??_C@_1M@EPAJJAJF@?$AAu?$AAr?$AA?9?$AAp?$AAk?$AA?$AA@ 0000000180048138     libcpmt:winapinls.obj
 0002:00002148       ??_C@_1BG@GEGPMCDJ@?$AAu?$AAz?$AA?9?$AAu?$AAz?$AA?9?$AAc?$AAy?$AAr?$AAl?$AA?$AA@ 0000000180048148     libcpmt:winapinls.obj
 0002:00002160       ??_C@_1BG@EGGKJILM@?$AAu?$AAz?$AA?9?$AAu?$AAz?$AA?9?$AAl?$AAa?$AAt?$AAn?$AA?$AA@ 0000000180048160     libcpmt:winapinls.obj
 0002:00002178       ??_C@_1M@GFOCLFF@?$AAv?$AAi?$AA?9?$AAv?$AAn?$AA?$AA@ 0000000180048178     libcpmt:winapinls.obj
 0002:00002188       ??_C@_1M@CPAMEDFI@?$AAx?$AAh?$AA?9?$AAz?$AAa?$AA?$AA@ 0000000180048188     libcpmt:winapinls.obj
 0002:00002198       ??_C@_1O@EBKIFIGN@?$AAz?$AAh?$AA?9?$AAc?$AAh?$AAs?$AA?$AA@ 0000000180048198     libcpmt:winapinls.obj
 0002:000021a8       ??_C@_1O@NMHPGANE@?$AAz?$AAh?$AA?9?$AAc?$AAh?$AAt?$AA?$AA@ 00000001800481a8     libcpmt:winapinls.obj
 0002:000021b8       ??_C@_1M@LPINJOMC@?$AAz?$AAh?$AA?9?$AAc?$AAn?$AA?$AA@ 00000001800481b8     libcpmt:winapinls.obj
 0002:000021c8       ??_C@_1M@OCJEJODD@?$AAz?$AAh?$AA?9?$AAh?$AAk?$AA?$AA@ 00000001800481c8     libcpmt:winapinls.obj
 0002:000021d8       ??_C@_1M@DNDLJINH@?$AAz?$AAh?$AA?9?$AAm?$AAo?$AA?$AA@ 00000001800481d8     libcpmt:winapinls.obj
 0002:000021e8       ??_C@_1M@MBFDNDND@?$AAz?$AAh?$AA?9?$AAs?$AAg?$AA?$AA@ 00000001800481e8     libcpmt:winapinls.obj
 0002:000021f8       ??_C@_1M@IMEPLEPE@?$AAz?$AAh?$AA?9?$AAt?$AAw?$AA?$AA@ 00000001800481f8     libcpmt:winapinls.obj
 0002:00002208       ??_C@_1M@BBGHNHJP@?$AAz?$AAu?$AA?9?$AAz?$AAa?$AA?$AA@ 0000000180048208     libcpmt:winapinls.obj
 0002:00003ea0       ??_C@_15EMKDOKLE@?$AAa?$AAr?$AA?$AA@ 0000000180049ea0     libcpmt:winapinls.obj
 0002:00003ea8       ??_C@_15KNPADPLH@?$AAb?$AAg?$AA?$AA@ 0000000180049ea8     libcpmt:winapinls.obj
 0002:00003eb0       ??_C@_15EDMHLDMO@?$AAc?$AAa?$AA?$AA@ 0000000180049eb0     libcpmt:winapinls.obj
 0002:00003eb8       ??_C@_1O@BPEAJADD@?$AAz?$AAh?$AA?9?$AAC?$AAH?$AAS?$AA?$AA@ 0000000180049eb8     libcpmt:winapinls.obj
 0002:00003ec8       ??_C@_15LJNHCMNK@?$AAc?$AAs?$AA?$AA@ 0000000180049ec8     libcpmt:winapinls.obj
 0002:00003ed0       ??_C@_15FOMCIDHG@?$AAd?$AAa?$AA?$AA@ 0000000180049ed0     libcpmt:winapinls.obj
 0002:00003ed8       ??_C@_15NBKABECB@?$AAd?$AAe?$AA?$AA@ 0000000180049ed8     libcpmt:winapinls.obj
 0002:00003ee0       ??_C@_15GHPEIIAO@?$AAe?$AAl?$AA?$AA@ 0000000180049ee0     libcpmt:winapinls.obj
 0002:00003ee8       ??_C@_15MNPNEAIF@?$AAe?$AAn?$AA?$AA@ 0000000180049ee8     libcpmt:winapinls.obj
 0002:00003ef0       ??_C@_15GPIOMPMH@?$AAe?$AAs?$AA?$AA@ 0000000180049ef0     libcpmt:winapinls.obj
 0002:00003ef8       ??_C@_15NGLOAKJC@?$AAf?$AAi?$AA?$AA@ 0000000180049ef8     libcpmt:winapinls.obj
 0002:00003f00       ??_C@_15FBKGNKAM@?$AAf?$AAr?$AA?$AA@ 0000000180049f00     libcpmt:winapinls.obj
 0002:00003f08       ??_C@_15KGGCNEFK@?$AAh?$AAe?$AA?$AA@ 0000000180049f08     libcpmt:winapinls.obj
 0002:00003f10       ??_C@_15PGHLIDMF@?$AAh?$AAu?$AA?$AA@ 0000000180049f10     libcpmt:winapinls.obj
 0002:00003f18       ??_C@_15BIEMAPLM@?$AAi?$AAs?$AA?$AA@ 0000000180049f18     libcpmt:winapinls.obj
 0002:00003f20       ??_C@_15IFJLDHAF@?$AAi?$AAt?$AA?$AA@ 0000000180049f20     libcpmt:winapinls.obj
 0002:00003f28       ??_C@_15GEMIOCAG@?$AAj?$AAa?$AA?$AA@ 0000000180049f28     libcpmt:winapinls.obj
 0002:00003f30       ??_C@_15EPELEGJA@?$AAk?$AAo?$AA?$AA@ 0000000180049f30     libcpmt:winapinls.obj
 0002:00003f38       ??_C@_15NDDHIMN@?$AAn?$AAl?$AA?$AA@ 0000000180049f38     libcpmt:winapinls.obj
 0002:00003f40       ??_C@_15BPIGNHCD@?$AAn?$AAo?$AA?$AA@ 0000000180049f40     libcpmt:winapinls.obj
 0002:00003f48       ??_C@_15DEOPBLCG@?$AAp?$AAl?$AA?$AA@ 0000000180049f48     libcpmt:winapinls.obj
 0002:00003f50       ??_C@_15KBECGEFG@?$AAp?$AAt?$AA?$AA@ 0000000180049f50     libcpmt:winapinls.obj
 0002:00003f58       ??_C@_15GLJCBFMD@?$AAr?$AAo?$AA?$AA@ 0000000180049f58     libcpmt:winapinls.obj
 0002:00003f60       ??_C@_15FEDGKCDI@?$AAr?$AAu?$AA?$AA@ 0000000180049f60     libcpmt:winapinls.obj
 0002:00003f68       ??_C@_15GLKMLLHM@?$AAh?$AAr?$AA?$AA@ 0000000180049f68     libcpmt:winapinls.obj
 0002:00003f70       ??_C@_15CPKMFBDB@?$AAs?$AAk?$AA?$AA@ 0000000180049f70     libcpmt:winapinls.obj
 0002:00003f78       ??_C@_15BAAIOGMK@?$AAs?$AAq?$AA?$AA@ 0000000180049f78     libcpmt:winapinls.obj
 0002:00003f80       ??_C@_15INNPNOHD@?$AAs?$AAv?$AA?$AA@ 0000000180049f80     libcpmt:winapinls.obj
 0002:00003f88       ??_C@_15CABMMOGH@?$AAt?$AAh?$AA?$AA@ 0000000180049f88     libcpmt:winapinls.obj
 0002:00003f90       ??_C@_15BPLIHJJM@?$AAt?$AAr?$AA?$AA@ 0000000180049f90     libcpmt:winapinls.obj
 0002:00003f98       ??_C@_15NEOEKKDJ@?$AAu?$AAr?$AA?$AA@ 0000000180049f98     libcpmt:winapinls.obj
 0002:00003fa0       ??_C@_15NFICGAJK@?$AAi?$AAd?$AA?$AA@ 0000000180049fa0     libcpmt:winapinls.obj
 0002:00003fa8       ??_C@_15PJPFLCCM@?$AAu?$AAk?$AA?$AA@ 0000000180049fa8     libcpmt:winapinls.obj
 0002:00003fb0       ??_C@_15HPJPHDM@?$AAb?$AAe?$AA?$AA@ 0000000180049fb0     libcpmt:winapinls.obj
 0002:00003fb8       ??_C@_15LCHLGJII@?$AAs?$AAl?$AA?$AA@ 0000000180049fb8     libcpmt:winapinls.obj
 0002:00003fc0       ??_C@_15PCFJPHHO@?$AAe?$AAt?$AA?$AA@ 0000000180049fc0     libcpmt:winapinls.obj
 0002:00003fc8       ??_C@_15HPFPGODN@?$AAl?$AAv?$AA?$AA@ 0000000180049fc8     libcpmt:winapinls.obj
 0002:00003fd0       ??_C@_15NFFGKGLG@?$AAl?$AAt?$AA?$AA@ 0000000180049fd0     libcpmt:winapinls.obj
 0002:00003fd8       ??_C@_15BDAKCCHN@?$AAf?$AAa?$AA?$AA@ 0000000180049fd8     libcpmt:winapinls.obj
 0002:00003fe0       ??_C@_15NFGIAIAJ@?$AAv?$AAi?$AA?$AA@ 0000000180049fe0     libcpmt:winapinls.obj
 0002:00003fe8       ??_C@_15LMKNDMHN@?$AAh?$AAy?$AA?$AA@ 0000000180049fe8     libcpmt:winapinls.obj
 0002:00003ff0       ??_C@_15IJBHMCFL@?$AAa?$AAz?$AA?$AA@ 0000000180049ff0     libcpmt:winapinls.obj
 0002:00003ff8       ??_C@_15EKOFJABL@?$AAe?$AAu?$AA?$AA@ 0000000180049ff8     libcpmt:winapinls.obj
 0002:00004000       ??_C@_15BGHADCNK@?$AAm?$AAk?$AA?$AA@ 000000018004a000     libcpmt:winapinls.obj
 0002:00004008       ??_C@_15JDNICKHM@?$AAa?$AAf?$AA?$AA@ 000000018004a008     libcpmt:winapinls.obj
 0002:00004010       ??_C@_15KPJEDBKD@?$AAk?$AAa?$AA?$AA@ 000000018004a010     libcpmt:winapinls.obj
 0002:00004018       ??_C@_15PDNFFFEO@?$AAf?$AAo?$AA?$AA@ 000000018004a018     libcpmt:winapinls.obj
 0002:00004020       ??_C@_15OMLEGLOC@?$AAh?$AAi?$AA?$AA@ 000000018004a020     libcpmt:winapinls.obj
 0002:00004028       ??_C@_15IDNNENKK@?$AAm?$AAs?$AA?$AA@ 000000018004a028     libcpmt:winapinls.obj
 0002:00004030       ??_C@_15MACJNBMH@?$AAk?$AAk?$AA?$AA@ 000000018004a030     libcpmt:winapinls.obj
 0002:00004038       ??_C@_15DKDJEOND@?$AAk?$AAy?$AA?$AA@ 000000018004a038     libcpmt:winapinls.obj
 0002:00004040       ??_C@_15DFGDLJBG@?$AAs?$AAw?$AA?$AA@ 000000018004a040     libcpmt:winapinls.obj
 0002:00004048       ??_C@_15BBFAICNG@?$AAu?$AAz?$AA?$AA@ 000000018004a048     libcpmt:winapinls.obj
 0002:00004050       ??_C@_15DKNDCGEA@?$AAt?$AAt?$AA?$AA@ 000000018004a050     libcpmt:winapinls.obj
 0002:00004058       ??_C@_15MGIFMDPL@?$AAp?$AAa?$AA?$AA@ 000000018004a058     libcpmt:winapinls.obj
 0002:00004060       ??_C@_15HCNDBBA@?$AAg?$AAu?$AA?$AA@ 000000018004a060     libcpmt:winapinls.obj
 0002:00004068       ??_C@_15FNBEIBON@?$AAt?$AAa?$AA?$AA@ 000000018004a068     libcpmt:winapinls.obj
 0002:00004070       ??_C@_15NCHGBGLK@?$AAt?$AAe?$AA?$AA@ 000000018004a070     libcpmt:winapinls.obj
 0002:00004078       ??_C@_15PHPHCBPF@?$AAk?$AAn?$AA?$AA@ 000000018004a078     libcpmt:winapinls.obj
 0002:00004080       ??_C@_15DLGBCKMP@?$AAm?$AAr?$AA?$AA@ 000000018004a080     libcpmt:winapinls.obj
 0002:00004088       ??_C@_15EABBLBFF@?$AAs?$AAa?$AA?$AA@ 000000018004a088     libcpmt:winapinls.obj
 0002:00004090       ??_C@_15CBKOMCOI@?$AAm?$AAn?$AA?$AA@ 000000018004a090     libcpmt:winapinls.obj
 0002:00004098       ??_C@_15CKDMCJAF@?$AAg?$AAl?$AA?$AA@ 000000018004a098     libcpmt:winapinls.obj
 0002:000040a0       ??_C@_17CNJFBPG@?$AAk?$AAo?$AAk?$AA?$AA@ 000000018004a0a0     libcpmt:winapinls.obj
 0002:000040a8       ??_C@_17FFBJICPL@?$AAs?$AAy?$AAr?$AA?$AA@ 000000018004a0a8     libcpmt:winapinls.obj
 0002:000040b0       ??_C@_17KPNDCPAF@?$AAd?$AAi?$AAv?$AA?$AA@ 000000018004a0b0     libcpmt:winapinls.obj
 0002:000040b8       ??_C@_1M@OKAHONE@?$AAa?$AAr?$AA?9?$AAS?$AAA?$AA?$AA@ 000000018004a0b8     libcpmt:winapinls.obj
 0002:000040c8       ??_C@_1M@FFFIGIGK@?$AAb?$AAg?$AA?9?$AAB?$AAG?$AA?$AA@ 000000018004a0c8     libcpmt:winapinls.obj
 0002:000040d8       ??_C@_1M@BJNKEDC@?$AAc?$AAa?$AA?9?$AAE?$AAS?$AA?$AA@ 000000018004a0d8     libcpmt:winapinls.obj
 0002:000040e8       ??_C@_1M@CLNBBOPM@?$AAz?$AAh?$AA?9?$AAT?$AAW?$AA?$AA@ 000000018004a0e8     libcpmt:winapinls.obj
 0002:000040f8       ??_C@_1M@IJJHFJHA@?$AAc?$AAs?$AA?9?$AAC?$AAZ?$AA?$AA@ 000000018004a0f8     libcpmt:winapinls.obj
 0002:00004108       ??_C@_1M@CLPEOBGI@?$AAd?$AAa?$AA?9?$AAD?$AAK?$AA?$AA@ 000000018004a108     libcpmt:winapinls.obj
 0002:00004118       ??_C@_1M@MCMADGCB@?$AAd?$AAe?$AA?9?$AAD?$AAE?$AA?$AA@ 000000018004a118     libcpmt:winapinls.obj
 0002:00004128       ??_C@_1M@OOCKEMAM@?$AAe?$AAl?$AA?9?$AAG?$AAR?$AA?$AA@ 000000018004a128     libcpmt:winapinls.obj
 0002:00004138       ??_C@_1M@BMHNFIME@?$AAe?$AAn?$AA?9?$AAU?$AAS?$AA?$AA@ 000000018004a138     libcpmt:winapinls.obj
 0002:00004148       ??_C@_1M@DDNJFGID@?$AAf?$AAi?$AA?9?$AAF?$AAI?$AA?$AA@ 000000018004a148     libcpmt:winapinls.obj
 0002:00004158       ??_C@_1M@GLIPPMAC@?$AAf?$AAr?$AA?9?$AAF?$AAR?$AA?$AA@ 000000018004a158     libcpmt:winapinls.obj
 0002:00004168       ??_C@_1M@GFMCHPE@?$AAh?$AAe?$AA?9?$AAI?$AAL?$AA?$AA@ 000000018004a168     libcpmt:winapinls.obj
 0002:00004178       ??_C@_1M@MHLPGNKM@?$AAh?$AAu?$AA?9?$AAH?$AAU?$AA?$AA@ 000000018004a178     libcpmt:winapinls.obj
 0002:00004188       ??_C@_1M@LPDDNNPN@?$AAi?$AAs?$AA?9?$AAI?$AAS?$AA?$AA@ 000000018004a188     libcpmt:winapinls.obj
 0002:00004198       ??_C@_1M@MADIPODN@?$AAi?$AAt?$AA?9?$AAI?$AAT?$AA?$AA@ 000000018004a198     libcpmt:winapinls.obj
 0002:000041a8       ??_C@_1M@HPNHIDJI@?$AAj?$AAa?$AA?9?$AAJ?$AAP?$AA?$AA@ 000000018004a1a8     libcpmt:winapinls.obj
 0002:000041b8       ??_C@_1M@JLOOOEGK@?$AAk?$AAo?$AA?9?$AAK?$AAR?$AA?$AA@ 000000018004a1b8     libcpmt:winapinls.obj
 0002:000041c8       ??_C@_1M@IHBJJGG@?$AAn?$AAl?$AA?9?$AAN?$AAL?$AA?$AA@ 000000018004a1c8     libcpmt:winapinls.obj
 0002:000041d8       ??_C@_1M@EANAGDL@?$AAn?$AAb?$AA?9?$AAN?$AAO?$AA?$AA@ 000000018004a1d8     libcpmt:winapinls.obj
 0002:000041e8       ??_C@_1M@NEIEMEGP@?$AAp?$AAl?$AA?9?$AAP?$AAL?$AA?$AA@ 000000018004a1e8     libcpmt:winapinls.obj
 0002:000041f8       ??_C@_1M@BOCFIGEP@?$AAp?$AAt?$AA?9?$AAB?$AAR?$AA?$AA@ 000000018004a1f8     libcpmt:winapinls.obj
 0002:00004208       ??_C@_1M@IMPFOPBG@?$AAr?$AAo?$AA?9?$AAR?$AAO?$AA?$AA@ 000000018004a208     libcpmt:winapinls.obj
 0002:00004218       ??_C@_1M@IDNNEJMM@?$AAr?$AAu?$AA?9?$AAR?$AAU?$AA?$AA@ 000000018004a218     libcpmt:winapinls.obj
 0002:00004228       ??_C@_1M@LILEEOGM@?$AAh?$AAr?$AA?9?$AAH?$AAR?$AA?$AA@ 000000018004a228     libcpmt:winapinls.obj
 0002:00004238       ??_C@_1M@FKIFEHPB@?$AAs?$AAk?$AA?9?$AAS?$AAK?$AA?$AA@ 000000018004a238     libcpmt:winapinls.obj
 0002:00004248       ??_C@_1M@LJMAMNPJ@?$AAs?$AAq?$AA?9?$AAA?$AAL?$AA?$AA@ 000000018004a248     libcpmt:winapinls.obj
 0002:00004258       ??_C@_1M@GIAKDKJK@?$AAs?$AAv?$AA?9?$AAS?$AAE?$AA?$AA@ 000000018004a258     libcpmt:winapinls.obj
 0002:00004268       ??_C@_1M@MKJKIKCL@?$AAt?$AAh?$AA?9?$AAT?$AAH?$AA?$AA@ 000000018004a268     libcpmt:winapinls.obj
 0002:00004278       ??_C@_1M@MFLCCMPB@?$AAt?$AAr?$AA?9?$AAT?$AAR?$AA?$AA@ 000000018004a278     libcpmt:winapinls.obj
 0002:00004288       ??_C@_1M@OIJHDKJN@?$AAu?$AAr?$AA?9?$AAP?$AAK?$AA?$AA@ 000000018004a288     libcpmt:winapinls.obj
 0002:00004298       ??_C@_1M@LHIPCIEK@?$AAi?$AAd?$AA?9?$AAI?$AAD?$AA?$AA@ 000000018004a298     libcpmt:winapinls.obj
 0002:000042a8       ??_C@_1M@MFMOBGI@?$AAu?$AAk?$AA?9?$AAU?$AAA?$AA?$AA@ 000000018004a2a8     libcpmt:winapinls.obj
 0002:000042b8       ??_C@_1M@OBGLJIPL@?$AAb?$AAe?$AA?9?$AAB?$AAY?$AA?$AA@ 000000018004a2b8     libcpmt:winapinls.obj
 0002:000042c8       ??_C@_1M@BCFAJEAD@?$AAs?$AAl?$AA?9?$AAS?$AAI?$AA?$AA@ 000000018004a2c8     libcpmt:winapinls.obj
 0002:000042d8       ??_C@_1M@FKFFEDDN@?$AAe?$AAt?$AA?9?$AAE?$AAE?$AA?$AA@ 000000018004a2d8     libcpmt:winapinls.obj
 0002:000042e8       ??_C@_1M@KGKKAACI@?$AAl?$AAv?$AA?9?$AAL?$AAV?$AA?$AA@ 000000018004a2e8     libcpmt:winapinls.obj
 0002:000042f8       ??_C@_1M@IFGBIJO@?$AAl?$AAt?$AA?9?$AAL?$AAT?$AA?$AA@ 000000018004a2f8     libcpmt:winapinls.obj
 0002:00004308       ??_C@_1M@FGEAHEDM@?$AAf?$AAa?$AA?9?$AAI?$AAR?$AA?$AA@ 000000018004a308     libcpmt:winapinls.obj
 0002:00004318       ??_C@_1M@KBMAIBFN@?$AAv?$AAi?$AA?9?$AAV?$AAN?$AA?$AA@ 000000018004a318     libcpmt:winapinls.obj
 0002:00004328       ??_C@_1M@GPCBKDJK@?$AAh?$AAy?$AA?9?$AAA?$AAM?$AA?$AA@ 000000018004a328     libcpmt:winapinls.obj
 0002:00004338       ??_C@_1BG@BECMDDJB@?$AAa?$AAz?$AA?9?$AAA?$AAZ?$AA?9?$AAL?$AAa?$AAt?$AAn?$AA?$AA@ 000000018004a338     libcpmt:winapinls.obj
 0002:00004350       ??_C@_1M@MAOFCAEA@?$AAe?$AAu?$AA?9?$AAE?$AAS?$AA?$AA@ 000000018004a350     libcpmt:winapinls.obj
 0002:00004360       ??_C@_1M@IGHABKPI@?$AAm?$AAk?$AA?9?$AAM?$AAK?$AA?$AA@ 000000018004a360     libcpmt:winapinls.obj
 0002:00004370       ??_C@_1M@IAIGNEJG@?$AAt?$AAn?$AA?9?$AAZ?$AAA?$AA?$AA@ 000000018004a370     libcpmt:winapinls.obj
 0002:00004380       ??_C@_1M@IIJCOJFA@?$AAx?$AAh?$AA?9?$AAZ?$AAA?$AA?$AA@ 000000018004a380     libcpmt:winapinls.obj
 0002:00004390       ??_C@_1M@LGPJHNJH@?$AAz?$AAu?$AA?9?$AAZ?$AAA?$AA?$AA@ 000000018004a390     libcpmt:winapinls.obj
 0002:000043a0       ??_C@_1M@HOKAOIO@?$AAa?$AAf?$AA?9?$AAZ?$AAA?$AA?$AA@ 000000018004a3a0     libcpmt:winapinls.obj
 0002:000043b0       ??_C@_1M@DPCLHLIE@?$AAk?$AAa?$AA?9?$AAG?$AAE?$AA?$AA@ 000000018004a3b0     libcpmt:winapinls.obj
 0002:000043c0       ??_C@_1M@BLKMHJBI@?$AAf?$AAo?$AA?9?$AAF?$AAO?$AA?$AA@ 000000018004a3c0     libcpmt:winapinls.obj
 0002:000043d0       ??_C@_1M@LGGJAPPB@?$AAh?$AAi?$AA?9?$AAI?$AAN?$AA?$AA@ 000000018004a3d0     libcpmt:winapinls.obj
 0002:000043e0       ??_C@_1M@FIKPIHFE@?$AAm?$AAt?$AA?9?$AAM?$AAT?$AA?$AA@ 000000018004a3e0     libcpmt:winapinls.obj
 0002:000043f0       ??_C@_1M@HEGGPBFA@?$AAs?$AAe?$AA?9?$AAN?$AAO?$AA?$AA@ 000000018004a3f0     libcpmt:winapinls.obj
 0002:00004400       ??_C@_1M@EIBJEEPA@?$AAm?$AAs?$AA?9?$AAM?$AAY?$AA?$AA@ 000000018004a400     libcpmt:winapinls.obj
 0002:00004410       ??_C@_1M@FHLBGMPP@?$AAk?$AAk?$AA?9?$AAK?$AAZ?$AA?$AA@ 000000018004a410     libcpmt:winapinls.obj
 0002:00004420       ??_C@_1M@NGJJLCGI@?$AAk?$AAy?$AA?9?$AAK?$AAG?$AA?$AA@ 000000018004a420     libcpmt:winapinls.obj
 0002:00004430       ??_C@_1M@GIENNBFC@?$AAs?$AAw?$AA?9?$AAK?$AAE?$AA?$AA@ 000000018004a430     libcpmt:winapinls.obj
 0002:00004440       ??_C@_1BG@NDGMJIMJ@?$AAu?$AAz?$AA?9?$AAU?$AAZ?$AA?9?$AAL?$AAa?$AAt?$AAn?$AA?$AA@ 000000018004a440     libcpmt:winapinls.obj
 0002:00004458       ??_C@_1M@IDCCIHBC@?$AAt?$AAt?$AA?9?$AAR?$AAU?$AA?$AA@ 000000018004a458     libcpmt:winapinls.obj
 0002:00004468       ??_C@_1M@LOICPMOJ@?$AAb?$AAn?$AA?9?$AAI?$AAN?$AA?$AA@ 000000018004a468     libcpmt:winapinls.obj
 0002:00004478       ??_C@_1M@KPKKNEAH@?$AAp?$AAa?$AA?9?$AAI?$AAN?$AA?$AA@ 000000018004a478     libcpmt:winapinls.obj
 0002:00004488       ??_C@_1M@PJGPPBOG@?$AAg?$AAu?$AA?9?$AAI?$AAN?$AA?$AA@ 000000018004a488     libcpmt:winapinls.obj
 0002:00004498       ??_C@_1M@KMKMOPHI@?$AAt?$AAa?$AA?9?$AAI?$AAN?$AA?$AA@ 000000018004a498     libcpmt:winapinls.obj
 0002:000044a8       ??_C@_1M@KFEHEPAC@?$AAt?$AAe?$AA?9?$AAI?$AAN?$AA?$AA@ 000000018004a4a8     libcpmt:winapinls.obj
 0002:000044b8       ??_C@_1M@CDCLMGHI@?$AAk?$AAn?$AA?9?$AAI?$AAN?$AA?$AA@ 000000018004a4b8     libcpmt:winapinls.obj
 0002:000044c8       ??_C@_1M@MIODLDKF@?$AAm?$AAl?$AA?9?$AAI?$AAN?$AA?$AA@ 000000018004a4c8     libcpmt:winapinls.obj
 0002:000044d8       ??_C@_1M@PBIEACPO@?$AAm?$AAr?$AA?9?$AAI?$AAN?$AA?$AA@ 000000018004a4d8     libcpmt:winapinls.obj
 0002:000044e8       ??_C@_1M@NIDEAGPH@?$AAs?$AAa?$AA?9?$AAI?$AAN?$AA?$AA@ 000000018004a4e8     libcpmt:winapinls.obj
 0002:000044f8       ??_C@_1M@FHIHCBIO@?$AAm?$AAn?$AA?9?$AAM?$AAN?$AA?$AA@ 000000018004a4f8     libcpmt:winapinls.obj
 0002:00004508       ??_C@_1M@JAIJPENP@?$AAc?$AAy?$AA?9?$AAG?$AAB?$AA?$AA@ 000000018004a508     libcpmt:winapinls.obj
 0002:00004518       ??_C@_1M@PHGFBEPN@?$AAg?$AAl?$AA?9?$AAE?$AAS?$AA?$AA@ 000000018004a518     libcpmt:winapinls.obj
 0002:00004528       ??_C@_1O@KPIPDNCP@?$AAk?$AAo?$AAk?$AA?9?$AAI?$AAN?$AA?$AA@ 000000018004a528     libcpmt:winapinls.obj
 0002:00004538       ??_C@_1O@KNHJLDJA@?$AAs?$AAy?$AAr?$AA?9?$AAS?$AAY?$AA?$AA@ 000000018004a538     libcpmt:winapinls.obj
 0002:00004548       ??_C@_1O@MKEKBLAH@?$AAd?$AAi?$AAv?$AA?9?$AAM?$AAV?$AA?$AA@ 000000018004a548     libcpmt:winapinls.obj
 0002:00004558       ??_C@_1O@OHDCKDDF@?$AAq?$AAu?$AAz?$AA?9?$AAB?$AAO?$AA?$AA@ 000000018004a558     libcpmt:winapinls.obj
 0002:00004568       ??_C@_1M@LEPJNLFD@?$AAn?$AAs?$AA?9?$AAZ?$AAA?$AA?$AA@ 000000018004a568     libcpmt:winapinls.obj
 0002:00004578       ??_C@_1M@OMLEIIJB@?$AAm?$AAi?$AA?9?$AAN?$AAZ?$AA?$AA@ 000000018004a578     libcpmt:winapinls.obj
 0002:00004588       ??_C@_1M@PMPEAILG@?$AAa?$AAr?$AA?9?$AAI?$AAQ?$AA?$AA@ 000000018004a588     libcpmt:winapinls.obj
 0002:00004598       ??_C@_1M@BIBDDEMK@?$AAz?$AAh?$AA?9?$AAC?$AAN?$AA?$AA@ 000000018004a598     libcpmt:winapinls.obj
 0002:000045a8       ??_C@_1M@CNKPNOEE@?$AAd?$AAe?$AA?9?$AAC?$AAH?$AA?$AA@ 000000018004a5a8     libcpmt:winapinls.obj
 0002:000045b8       ??_C@_1M@LKMGMLKO@?$AAe?$AAn?$AA?9?$AAG?$AAB?$AA?$AA@ 000000018004a5b8     libcpmt:winapinls.obj
 0002:000045c8       ??_C@_1M@PGKJFFGL@?$AAe?$AAs?$AA?9?$AAM?$AAX?$AA?$AA@ 000000018004a5c8     libcpmt:winapinls.obj
 0002:000045d8       ??_C@_1M@DNNANBDC@?$AAf?$AAr?$AA?9?$AAB?$AAE?$AA?$AA@ 000000018004a5d8     libcpmt:winapinls.obj
 0002:000045e8       ??_C@_1M@HLGMDFHM@?$AAi?$AAt?$AA?9?$AAC?$AAH?$AA?$AA@ 000000018004a5e8     libcpmt:winapinls.obj
 0002:000045f8       ??_C@_1M@CLLBGJH@?$AAn?$AAl?$AA?9?$AAB?$AAE?$AA?$AA@ 000000018004a5f8     libcpmt:winapinls.obj
 0002:00004608       ??_C@_1M@BODBOGLF@?$AAn?$AAn?$AA?9?$AAN?$AAO?$AA?$AA@ 000000018004a608     libcpmt:winapinls.obj
 0002:00004618       ??_C@_1M@HFFAHKAD@?$AAp?$AAt?$AA?9?$AAP?$AAT?$AA?$AA@ 000000018004a618     libcpmt:winapinls.obj
 0002:00004628       ??_C@_1BG@LNOAKHIE@?$AAs?$AAr?$AA?9?$AAS?$AAP?$AA?9?$AAL?$AAa?$AAt?$AAn?$AA?$AA@ 000000018004a628     libcpmt:winapinls.obj
 0002:00004640       ??_C@_1M@HBMHBGAK@?$AAs?$AAv?$AA?9?$AAF?$AAI?$AA?$AA@ 000000018004a640     libcpmt:winapinls.obj
 0002:00004650       ??_C@_1BG@DGCJGJBE@?$AAa?$AAz?$AA?9?$AAA?$AAZ?$AA?9?$AAC?$AAy?$AAr?$AAl?$AA?$AA@ 000000018004a650     libcpmt:winapinls.obj
 0002:00004668       ??_C@_1M@KEJDAAHB@?$AAs?$AAe?$AA?9?$AAS?$AAE?$AA?$AA@ 000000018004a668     libcpmt:winapinls.obj
 0002:00004678       ??_C@_1M@HEIBJJAD@?$AAm?$AAs?$AA?9?$AAB?$AAN?$AA?$AA@ 000000018004a678     libcpmt:winapinls.obj
 0002:00004688       ??_C@_1BG@PBGJMCEM@?$AAu?$AAz?$AA?9?$AAU?$AAZ?$AA?9?$AAC?$AAy?$AAr?$AAl?$AA?$AA@ 000000018004a688     libcpmt:winapinls.obj
 0002:000046a0       ??_C@_1O@LAOBCMDF@?$AAq?$AAu?$AAz?$AA?9?$AAE?$AAC?$AA?$AA@ 000000018004a6a0     libcpmt:winapinls.obj
 0002:000046b0       ??_C@_1M@POEEMAIO@?$AAa?$AAr?$AA?9?$AAE?$AAG?$AA?$AA@ 000000018004a6b0     libcpmt:winapinls.obj
 0002:000046c0       ??_C@_1M@EFAKDEDL@?$AAz?$AAh?$AA?9?$AAH?$AAK?$AA?$AA@ 000000018004a6c0     libcpmt:winapinls.obj
 0002:000046d0       ??_C@_1M@HKKIJHGI@?$AAd?$AAe?$AA?9?$AAA?$AAT?$AA?$AA@ 000000018004a6d0     libcpmt:winapinls.obj
 0002:000046e0       ??_C@_1M@KBFBEHJF@?$AAe?$AAn?$AA?9?$AAA?$AAU?$AA?$AA@ 000000018004a6e0     libcpmt:winapinls.obj
 0002:000046f0       ??_C@_1M@MNPLFAAH@?$AAe?$AAs?$AA?9?$AAE?$AAS?$AA?$AA@ 000000018004a6f0     libcpmt:winapinls.obj
 0002:00004700       ??_C@_1M@HJOOJFMA@?$AAf?$AAr?$AA?9?$AAC?$AAA?$AA?$AA@ 000000018004a700     libcpmt:winapinls.obj
 0002:00004710       ??_C@_1BG@JPOFPNAB@?$AAs?$AAr?$AA?9?$AAS?$AAP?$AA?9?$AAC?$AAy?$AAr?$AAl?$AA?$AA@ 000000018004a710     libcpmt:winapinls.obj
 0002:00004728       ??_C@_1M@LNFOCMOB@?$AAs?$AAe?$AA?9?$AAF?$AAI?$AA?$AA@ 000000018004a728     libcpmt:winapinls.obj
 0002:00004738       ??_C@_1O@MGJBOAMB@?$AAq?$AAu?$AAz?$AA?9?$AAP?$AAE?$AA?$AA@ 000000018004a738     libcpmt:winapinls.obj
 0002:00004748       ??_C@_1M@GJINLBOK@?$AAa?$AAr?$AA?9?$AAL?$AAY?$AA?$AA@ 000000018004a748     libcpmt:winapinls.obj
 0002:00004758       ??_C@_1M@GGMNHJNL@?$AAz?$AAh?$AA?9?$AAS?$AAG?$AA?$AA@ 000000018004a758     libcpmt:winapinls.obj
 0002:00004768       ??_C@_1M@HOIKODND@?$AAd?$AAe?$AA?9?$AAL?$AAU?$AA?$AA@ 000000018004a768     libcpmt:winapinls.obj
 0002:00004778       ??_C@_1M@DDOCCGFG@?$AAe?$AAn?$AA?9?$AAC?$AAA?$AA?$AA@ 000000018004a778     libcpmt:winapinls.obj
 0002:00004788       ??_C@_1M@BNOEMJLF@?$AAe?$AAs?$AA?9?$AAG?$AAT?$AA?$AA@ 000000018004a788     libcpmt:winapinls.obj
 0002:00004798       ??_C@_1M@EOGNKEK@?$AAf?$AAr?$AA?9?$AAC?$AAH?$AA?$AA@ 000000018004a798     libcpmt:winapinls.obj
 0002:000047a8       ??_C@_1M@FLIDJFHL@?$AAh?$AAr?$AA?9?$AAB?$AAA?$AA?$AA@ 000000018004a7a8     libcpmt:winapinls.obj
 0002:000047b8       ??_C@_1O@FMCELNAJ@?$AAs?$AAm?$AAj?$AA?9?$AAN?$AAO?$AA?$AA@ 000000018004a7b8     libcpmt:winapinls.obj
 0002:000047c8       ??_C@_1M@JHGLJMGJ@?$AAa?$AAr?$AA?9?$AAD?$AAZ?$AA?$AA@ 000000018004a7c8     libcpmt:winapinls.obj
 0002:000047d8       ??_C@_1M@JKKFDCNP@?$AAz?$AAh?$AA?9?$AAM?$AAO?$AA?$AA@ 000000018004a7d8     libcpmt:winapinls.obj
 0002:000047e8       ??_C@_1M@GEEFALPE@?$AAd?$AAe?$AA?9?$AAL?$AAI?$AA?$AA@ 000000018004a7e8     libcpmt:winapinls.obj
 0002:000047f8       ??_C@_1M@IGEOFBG@?$AAe?$AAn?$AA?9?$AAN?$AAZ?$AA?$AA@ 000000018004a7f8     libcpmt:winapinls.obj
 0002:00004808       ??_C@_1M@KDBONEHP@?$AAe?$AAs?$AA?9?$AAC?$AAR?$AA?$AA@ 000000018004a808     libcpmt:winapinls.obj
 0002:00004818       ??_C@_1M@FHMDOHNN@?$AAf?$AAr?$AA?9?$AAL?$AAU?$AA?$AA@ 000000018004a818     libcpmt:winapinls.obj
 0002:00004828       ??_C@_1BG@NFKKMAFG@?$AAb?$AAs?$AA?9?$AAB?$AAA?$AA?9?$AAL?$AAa?$AAt?$AAn?$AA?$AA@ 000000018004a828     libcpmt:winapinls.obj
 0002:00004840       ??_C@_1O@IMNBEMCI@?$AAs?$AAm?$AAj?$AA?9?$AAS?$AAE?$AA?$AA@ 000000018004a840     libcpmt:winapinls.obj
 0002:00004850       ??_C@_1M@DHHMBNDP@?$AAa?$AAr?$AA?9?$AAM?$AAA?$AA?$AA@ 000000018004a850     libcpmt:winapinls.obj
 0002:00004860       ??_C@_1M@BNBLJCGH@?$AAe?$AAn?$AA?9?$AAI?$AAE?$AA?$AA@ 000000018004a860     libcpmt:winapinls.obj
 0002:00004870       ??_C@_1M@GEPAFMDL@?$AAe?$AAs?$AA?9?$AAP?$AAA?$AA?$AA@ 000000018004a870     libcpmt:winapinls.obj
 0002:00004880       ??_C@_1M@OJONDMDL@?$AAf?$AAr?$AA?9?$AAM?$AAC?$AA?$AA@ 000000018004a880     libcpmt:winapinls.obj
 0002:00004890       ??_C@_1BG@OBCNFJB@?$AAs?$AAr?$AA?9?$AAB?$AAA?$AA?9?$AAL?$AAa?$AAt?$AAn?$AA?$AA@ 000000018004a890     libcpmt:winapinls.obj
 0002:000048a8       ??_C@_1O@KEMEEGPO@?$AAs?$AAm?$AAa?$AA?9?$AAN?$AAO?$AA?$AA@ 000000018004a8a8     libcpmt:winapinls.obj
 0002:000048b8       ??_C@_1M@ELMGFODK@?$AAa?$AAr?$AA?9?$AAT?$AAN?$AA?$AA@ 000000018004a8b8     libcpmt:winapinls.obj
 0002:000048c8       ??_C@_1M@BHDLHFAF@?$AAe?$AAn?$AA?9?$AAZ?$AAA?$AA?$AA@ 000000018004a8c8     libcpmt:winapinls.obj
 0002:000048d8       ??_C@_1M@BMGIGLIF@?$AAe?$AAs?$AA?9?$AAD?$AAO?$AA?$AA@ 000000018004a8d8     libcpmt:winapinls.obj
 0002:000048e8       ??_C@_1BG@CMBHIPBE@?$AAs?$AAr?$AA?9?$AAB?$AAA?$AA?9?$AAC?$AAy?$AAr?$AAl?$AA?$AA@ 000000018004a8e8     libcpmt:winapinls.obj
 0002:00004900       ??_C@_1O@HEDBLHNP@?$AAs?$AAm?$AAa?$AA?9?$AAS?$AAE?$AA?$AA@ 000000018004a900     libcpmt:winapinls.obj
 0002:00004910       ??_C@_1M@DAGCADIM@?$AAa?$AAr?$AA?9?$AAO?$AAM?$AA?$AA@ 000000018004a910     libcpmt:winapinls.obj
 0002:00004920       ??_C@_1M@FODLMICG@?$AAe?$AAn?$AA?9?$AAJ?$AAM?$AA?$AA@ 000000018004a920     libcpmt:winapinls.obj
 0002:00004930       ??_C@_1M@DNMLCIHB@?$AAe?$AAs?$AA?9?$AAV?$AAE?$AA?$AA@ 000000018004a930     libcpmt:winapinls.obj
 0002:00004940       ??_C@_1O@EOKHMKJK@?$AAs?$AAm?$AAs?$AA?9?$AAF?$AAI?$AA?$AA@ 000000018004a940     libcpmt:winapinls.obj
 0002:00004950       ??_C@_1M@CAFJMKOF@?$AAa?$AAr?$AA?9?$AAY?$AAE?$AA?$AA@ 000000018004a950     libcpmt:winapinls.obj
 0002:00004960       ??_C@_1M@CBFHIJLI@?$AAe?$AAn?$AA?9?$AAC?$AAB?$AA?$AA@ 000000018004a960     libcpmt:winapinls.obj
 0002:00004970       ??_C@_1M@BGNFLDN@?$AAe?$AAs?$AA?9?$AAC?$AAO?$AA?$AA@ 000000018004a970     libcpmt:winapinls.obj
 0002:00004980       ??_C@_1O@JMPHMAMC@?$AAs?$AAm?$AAn?$AA?9?$AAF?$AAI?$AA?$AA@ 000000018004a980     libcpmt:winapinls.obj
 0002:00004990       ??_C@_1M@JLANABKE@?$AAa?$AAr?$AA?9?$AAS?$AAY?$AA?$AA@ 000000018004a990     libcpmt:winapinls.obj
 0002:000049a0       ??_C@_1M@HPKGCFGN@?$AAe?$AAn?$AA?9?$AAB?$AAZ?$AA?$AA@ 000000018004a9a0     libcpmt:winapinls.obj
 0002:000049b0       ??_C@_1M@OLJCMLGM@?$AAe?$AAs?$AA?9?$AAP?$AAE?$AA?$AA@ 000000018004a9b0     libcpmt:winapinls.obj
 0002:000049c0       ??_C@_1M@MKKGFKLE@?$AAa?$AAr?$AA?9?$AAJ?$AAO?$AA?$AA@ 000000018004a9c0     libcpmt:winapinls.obj
 0002:000049d0       ??_C@_1M@EKPGLDNI@?$AAe?$AAn?$AA?9?$AAT?$AAT?$AA?$AA@ 000000018004a9d0     libcpmt:winapinls.obj
 0002:000049e0       ??_C@_1M@OONGHFHE@?$AAe?$AAs?$AA?9?$AAA?$AAR?$AA?$AA@ 000000018004a9e0     libcpmt:winapinls.obj
 0002:000049f0       ??_C@_1M@OOJFGBHE@?$AAa?$AAr?$AA?9?$AAL?$AAB?$AA?$AA@ 000000018004a9f0     libcpmt:winapinls.obj
 0002:00004a00       ??_C@_1M@GCEJHNEG@?$AAe?$AAn?$AA?9?$AAZ?$AAW?$AA?$AA@ 000000018004aa00     libcpmt:winapinls.obj
 0002:00004a10       ??_C@_1M@JNOCAHJI@?$AAe?$AAs?$AA?9?$AAE?$AAC?$AA?$AA@ 000000018004aa10     libcpmt:winapinls.obj
 0002:00004a20       ??_C@_1M@JEFHPGGB@?$AAa?$AAr?$AA?9?$AAK?$AAW?$AA?$AA@ 000000018004aa20     libcpmt:winapinls.obj
 0002:00004a30       ??_C@_1M@MLKIBJOJ@?$AAe?$AAn?$AA?9?$AAP?$AAH?$AA?$AA@ 000000018004aa30     libcpmt:winapinls.obj
 0002:00004a40       ??_C@_1M@BDNIPEND@?$AAe?$AAs?$AA?9?$AAC?$AAL?$AA?$AA@ 000000018004aa40     libcpmt:winapinls.obj
 0002:00004a50       ??_C@_1M@MPNMEKBD@?$AAa?$AAr?$AA?9?$AAA?$AAE?$AA?$AA@ 000000018004aa50     libcpmt:winapinls.obj
 0002:00004a60       ??_C@_1M@KBJALCPI@?$AAe?$AAs?$AA?9?$AAU?$AAY?$AA?$AA@ 000000018004aa60     libcpmt:winapinls.obj
 0002:00004a70       ??_C@_1M@LLCCOAGA@?$AAa?$AAr?$AA?9?$AAB?$AAH?$AA?$AA@ 000000018004aa70     libcpmt:winapinls.obj
 0002:00004a80       ??_C@_1M@PBFNCDEL@?$AAe?$AAs?$AA?9?$AAP?$AAY?$AA?$AA@ 000000018004aa80     libcpmt:winapinls.obj
 0002:00004a90       ??_C@_1M@EDGINPNP@?$AAa?$AAr?$AA?9?$AAQ?$AAA?$AA?$AA@ 000000018004aa90     libcpmt:winapinls.obj
 0002:00004aa0       ??_C@_1M@MKDBIIJI@?$AAe?$AAs?$AA?9?$AAB?$AAO?$AA?$AA@ 000000018004aaa0     libcpmt:winapinls.obj
 0002:00004ab0       ??_C@_1M@CPKKEBLD@?$AAe?$AAs?$AA?9?$AAS?$AAV?$AA?$AA@ 000000018004aab0     libcpmt:winapinls.obj
 0002:00004ac0       ??_C@_1M@NDBGMMJL@?$AAe?$AAs?$AA?9?$AAH?$AAN?$AA?$AA@ 000000018004aac0     libcpmt:winapinls.obj
 0002:00004ad0       ??_C@_1M@JIJIBHDP@?$AAe?$AAs?$AA?9?$AAN?$AAI?$AA?$AA@ 000000018004aad0     libcpmt:winapinls.obj
 0002:00004ae0       ??_C@_1M@CGFMKEEK@?$AAe?$AAs?$AA?9?$AAP?$AAR?$AA?$AA@ 000000018004aae0     libcpmt:winapinls.obj
 0002:00004af0       ??_C@_1O@ICJHKIIK@?$AAz?$AAh?$AA?9?$AAC?$AAH?$AAT?$AA?$AA@ 000000018004aaf0     libcpmt:winapinls.obj
 0002:00004b00       ??_C@_15CLNEJCE@?$AAs?$AAr?$AA?$AA@ 000000018004ab00     libcpmt:winapinls.obj
 0002:00004b08       ??_C@_1M@KAHEKEIG@?$AAa?$AAf?$AA?9?$AAz?$AAa?$AA?$AA@ 000000018004ab08     libcpmt:winapinls.obj
 0002:00004b18       ??_C@_1M@GIECOABL@?$AAa?$AAr?$AA?9?$AAa?$AAe?$AA?$AA@ 000000018004ab18     libcpmt:winapinls.obj
 0002:00004b28       ??_C@_1M@BMLMEKGI@?$AAa?$AAr?$AA?9?$AAb?$AAh?$AA?$AA@ 000000018004ab28     libcpmt:winapinls.obj
 0002:00004b38       ??_C@_1M@DAPFDGGB@?$AAa?$AAr?$AA?9?$AAd?$AAz?$AA?$AA@ 000000018004ab38     libcpmt:winapinls.obj
 0002:00004b48       ??_C@_1M@FJNKGKIG@?$AAa?$AAr?$AA?9?$AAe?$AAg?$AA?$AA@ 000000018004ab48     libcpmt:winapinls.obj
 0002:00004b58       ??_C@_1M@FLGKKCLO@?$AAa?$AAr?$AA?9?$AAi?$AAq?$AA?$AA@ 000000018004ab58     libcpmt:winapinls.obj
 0002:00004b68       ??_C@_1M@GNDIPALM@?$AAa?$AAr?$AA?9?$AAj?$AAo?$AA?$AA@ 000000018004ab68     libcpmt:winapinls.obj
 0002:00004b78       ??_C@_1M@DDMJFMGJ@?$AAa?$AAr?$AA?9?$AAk?$AAw?$AA?$AA@ 000000018004ab78     libcpmt:winapinls.obj
 0002:00004b88       ??_C@_1M@EJALMLHM@?$AAa?$AAr?$AA?9?$AAl?$AAb?$AA?$AA@ 000000018004ab88     libcpmt:winapinls.obj
 0002:00004b98       ??_C@_1M@MOBDBLOC@?$AAa?$AAr?$AA?9?$AAl?$AAy?$AA?$AA@ 000000018004ab98     libcpmt:winapinls.obj
 0002:00004ba8       ??_C@_1M@JAOCLHDH@?$AAa?$AAr?$AA?9?$AAm?$AAa?$AA?$AA@ 000000018004aba8     libcpmt:winapinls.obj
 0002:00004bb8       ??_C@_1M@JHPMKJIE@?$AAa?$AAr?$AA?9?$AAo?$AAm?$AA?$AA@ 000000018004abb8     libcpmt:winapinls.obj
 0002:00004bc8       ??_C@_1M@OEPGHFNH@?$AAa?$AAr?$AA?9?$AAq?$AAa?$AA?$AA@ 000000018004abc8     libcpmt:winapinls.obj
 0002:00004bd8       ??_C@_1M@KJDONENM@?$AAa?$AAr?$AA?9?$AAs?$AAa?$AA?$AA@ 000000018004abd8     libcpmt:winapinls.obj
 0002:00004be8       ??_C@_1M@DMJDKLKM@?$AAa?$AAr?$AA?9?$AAs?$AAy?$AA?$AA@ 000000018004abe8     libcpmt:winapinls.obj
 0002:00004bf8       ??_C@_1M@OMFIPEDC@?$AAa?$AAr?$AA?9?$AAt?$AAn?$AA?$AA@ 000000018004abf8     libcpmt:winapinls.obj
 0002:00004c08       ??_C@_1M@IHMHGAON@?$AAa?$AAr?$AA?9?$AAy?$AAe?$AA?$AA@ 000000018004ac08     libcpmt:winapinls.obj
 0002:00004c18       ??_C@_1BG@KDCPGJGB@?$AAa?$AAz?$AA?9?$AAa?$AAz?$AA?9?$AAc?$AAy?$AAr?$AAl?$AA?$AA@ 000000018004ac18     libcpmt:winapinls.obj
 0002:00004c30       ??_C@_1BG@IBCKDDOE@?$AAa?$AAz?$AA?9?$AAa?$AAz?$AA?9?$AAl?$AAa?$AAt?$AAn?$AA?$AA@ 000000018004ac30     libcpmt:winapinls.obj
 0002:00004c48       ??_C@_1M@EGPFDCPD@?$AAb?$AAe?$AA?9?$AAb?$AAy?$AA?$AA@ 000000018004ac48     libcpmt:winapinls.obj
 0002:00004c58       ??_C@_1M@PCMGMCGC@?$AAb?$AAg?$AA?9?$AAb?$AAg?$AA?$AA@ 000000018004ac58     libcpmt:winapinls.obj
 0002:00004c68       ??_C@_1M@BJBMFGOB@?$AAb?$AAn?$AA?9?$AAi?$AAn?$AA?$AA@ 000000018004ac68     libcpmt:winapinls.obj
 0002:00004c78       ??_C@_1BG@EAKMMACD@?$AAb?$AAs?$AA?9?$AAb?$AAa?$AA?9?$AAl?$AAa?$AAt?$AAn?$AA?$AA@ 000000018004ac78     libcpmt:winapinls.obj
 0002:00004c90       ??_C@_1M@KGADAODK@?$AAc?$AAa?$AA?9?$AAe?$AAs?$AA?$AA@ 000000018004ac90     libcpmt:winapinls.obj
 0002:00004ca0       ??_C@_1M@COAJPDHI@?$AAc?$AAs?$AA?9?$AAc?$AAz?$AA?$AA@ 000000018004aca0     libcpmt:winapinls.obj
 0002:00004cb0       ??_C@_1M@DHBHFONH@?$AAc?$AAy?$AA?9?$AAg?$AAb?$AA?$AA@ 000000018004acb0     libcpmt:winapinls.obj
 0002:00004cc0       ??_C@_1M@IMGKELGA@?$AAd?$AAa?$AA?9?$AAd?$AAk?$AA?$AA@ 000000018004acc0     libcpmt:winapinls.obj
 0002:00004cd0       ??_C@_1M@NNDGDNGA@?$AAd?$AAe?$AA?9?$AAa?$AAt?$AA?$AA@ 000000018004acd0     libcpmt:winapinls.obj
 0002:00004ce0       ??_C@_1M@IKDBHEEM@?$AAd?$AAe?$AA?9?$AAc?$AAh?$AA?$AA@ 000000018004ace0     libcpmt:winapinls.obj
 0002:00004cf0       ??_C@_1M@GFFOJMCJ@?$AAd?$AAe?$AA?9?$AAd?$AAe?$AA?$AA@ 000000018004acf0     libcpmt:winapinls.obj
 0002:00004d00       ??_C@_1M@MDNLKBPM@?$AAd?$AAe?$AA?9?$AAl?$AAi?$AA?$AA@ 000000018004ad00     libcpmt:winapinls.obj
 0002:00004d10       ??_C@_1M@NJBEEJNL@?$AAd?$AAe?$AA?9?$AAl?$AAu?$AA?$AA@ 000000018004ad10     libcpmt:winapinls.obj
 0002:00004d20       ??_C@_1O@GNNELBAP@?$AAd?$AAi?$AAv?$AA?9?$AAm?$AAv?$AA?$AA@ 000000018004ad20     libcpmt:winapinls.obj
 0002:00004d30       ??_C@_1M@EJLEOGAE@?$AAe?$AAl?$AA?9?$AAg?$AAr?$AA?$AA@ 000000018004ad30     libcpmt:winapinls.obj
 0002:00004d40       ??_C@_1M@GMPONJN@?$AAe?$AAn?$AA?9?$AAa?$AAu?$AA?$AA@ 000000018004ad40     libcpmt:winapinls.obj
 0002:00004d50       ??_C@_1M@NIDIIPGF@?$AAe?$AAn?$AA?9?$AAb?$AAz?$AA?$AA@ 000000018004ad50     libcpmt:winapinls.obj
 0002:00004d60       ??_C@_1M@JEHMIMFO@?$AAe?$AAn?$AA?9?$AAc?$AAa?$AA?$AA@ 000000018004ad60     libcpmt:winapinls.obj
 0002:00004d70       ??_C@_1M@IGMJCDLA@?$AAe?$AAn?$AA?9?$AAc?$AAb?$AA?$AA@ 000000018004ad70     libcpmt:winapinls.obj
 0002:00004d80       ??_C@_1M@BNFIGBKG@?$AAe?$AAn?$AA?9?$AAg?$AAb?$AA?$AA@ 000000018004ad80     libcpmt:winapinls.obj
 0002:00004d90       ??_C@_1M@LKIFDIGP@?$AAe?$AAn?$AA?9?$AAi?$AAe?$AA?$AA@ 000000018004ad90     libcpmt:winapinls.obj
 0002:00004da0       ??_C@_1M@PJKFGCCO@?$AAe?$AAn?$AA?9?$AAj?$AAm?$AA?$AA@ 000000018004ada0     libcpmt:winapinls.obj
 0002:00004db0       ??_C@_1M@KPPKEPBO@?$AAe?$AAn?$AA?9?$AAn?$AAz?$AA?$AA@ 000000018004adb0     libcpmt:winapinls.obj
 0002:00004dc0       ??_C@_1M@GMDGLDOB@?$AAe?$AAn?$AA?9?$AAp?$AAh?$AA?$AA@ 000000018004adc0     libcpmt:winapinls.obj
 0002:00004dd0       ??_C@_1M@ONGIBJNA@?$AAe?$AAn?$AA?9?$AAt?$AAt?$AA?$AA@ 000000018004add0     libcpmt:winapinls.obj
 0002:00004de0       ??_C@_1M@LLODPCMM@?$AAe?$AAn?$AA?9?$AAu?$AAs?$AA?$AA@ 000000018004ade0     libcpmt:winapinls.obj
 0002:00004df0       ??_C@_1M@LAKFNPAN@?$AAe?$AAn?$AA?9?$AAz?$AAa?$AA?$AA@ 000000018004adf0     libcpmt:winapinls.obj
 0002:00004e00       ??_C@_1M@MFNHNHEO@?$AAe?$AAn?$AA?9?$AAz?$AAw?$AA?$AA@ 000000018004ae00     libcpmt:winapinls.obj
 0002:00004e10       ??_C@_1M@EJEINPHM@?$AAe?$AAs?$AA?9?$AAa?$AAr?$AA?$AA@ 000000018004ae10     libcpmt:winapinls.obj
 0002:00004e20       ??_C@_1M@GNKPCCJA@?$AAe?$AAs?$AA?9?$AAb?$AAo?$AA?$AA@ 000000018004ae20     libcpmt:winapinls.obj
 0002:00004e30       ??_C@_1M@LEEGFONL@?$AAe?$AAs?$AA?9?$AAc?$AAl?$AA?$AA@ 000000018004ae30     libcpmt:winapinls.obj
 0002:00004e40       ??_C@_1M@KGPDPBDF@?$AAe?$AAs?$AA?9?$AAc?$AAo?$AA?$AA@ 000000018004ae40     libcpmt:winapinls.obj
 0002:00004e50       ??_C@_1M@EIAHOHH@?$AAe?$AAs?$AA?9?$AAc?$AAr?$AA?$AA@ 000000018004ae50     libcpmt:winapinls.obj
 0002:00004e60       ??_C@_1M@LLPGMBIN@?$AAe?$AAs?$AA?9?$AAd?$AAo?$AA?$AA@ 000000018004ae60     libcpmt:winapinls.obj
 0002:00004e70       ??_C@_1M@DKHMKNJA@?$AAe?$AAs?$AA?9?$AAe?$AAc?$AA?$AA@ 000000018004ae70     libcpmt:winapinls.obj
 0002:00004e80       ??_C@_1M@GKGFPKAP@?$AAe?$AAs?$AA?9?$AAe?$AAs?$AA?$AA@ 000000018004ae80     libcpmt:winapinls.obj
 0002:00004e90       ??_C@_1M@LKHKGDLN@?$AAe?$AAs?$AA?9?$AAg?$AAt?$AA?$AA@ 000000018004ae90     libcpmt:winapinls.obj
 0002:00004ea0       ??_C@_1M@HEIIGGJD@?$AAe?$AAs?$AA?9?$AAh?$AAn?$AA?$AA@ 000000018004aea0     libcpmt:winapinls.obj
 0002:00004eb0       ??_C@_1M@FBDHPPGD@?$AAe?$AAs?$AA?9?$AAm?$AAx?$AA?$AA@ 000000018004aeb0     libcpmt:winapinls.obj
 0002:00004ec0       ??_C@_1M@DPAGLNDH@?$AAe?$AAs?$AA?9?$AAn?$AAi?$AA?$AA@ 000000018004aec0     libcpmt:winapinls.obj
 0002:00004ed0       ??_C@_1M@MDGOPGDD@?$AAe?$AAs?$AA?9?$AAp?$AAa?$AA?$AA@ 000000018004aed0     libcpmt:winapinls.obj
 0002:00004ee0       ??_C@_1M@EMAMGBGE@?$AAe?$AAs?$AA?9?$AAp?$AAe?$AA?$AA@ 000000018004aee0     libcpmt:winapinls.obj
 0002:00004ef0       ??_C@_1M@IBMCAOEC@?$AAe?$AAs?$AA?9?$AAp?$AAr?$AA?$AA@ 000000018004aef0     libcpmt:winapinls.obj
 0002:00004f00       ??_C@_1M@FGMDIJED@?$AAe?$AAs?$AA?9?$AAp?$AAy?$AA?$AA@ 000000018004af00     libcpmt:winapinls.obj
 0002:00004f10       ??_C@_1M@IIDEOLLL@?$AAe?$AAs?$AA?9?$AAs?$AAv?$AA?$AA@ 000000018004af10     libcpmt:winapinls.obj
 0002:00004f20       ??_C@_1M@GAOBIPA@?$AAe?$AAs?$AA?9?$AAu?$AAy?$AA?$AA@ 000000018004af20     libcpmt:winapinls.obj
 0002:00004f30       _pRawDllMain               000000018004af30     LIBCMT:dll_dllmain.obj
 0002:00004f30       _pDefaultRawDllMain        000000018004af30     LIBCMT:dll_dllmain.obj
 0002:00004f40       ??_7type_info@@6B@         000000018004af40     LIBCMT:std_type_info_static.obj
 0002:00004f60       ??_7bad_array_new_length@std@@6B@ 000000018004af60     LIBCMT:throw_bad_alloc.obj
 0002:00004f70       ??_C@_0BF@KINCDENJ@bad?5array?5new?5length?$AA@ 000000018004af70     LIBCMT:throw_bad_alloc.obj
 0002:00004f88       _pDestructExceptionObject  000000018004af88     libvcruntime:frame.obj
 0002:00004f98       ??_7bad_exception@std@@6B@ 000000018004af98     libvcruntime:frame.obj
 0002:00004fa8       ??_C@_0O@DPKOEFFH@bad?5exception?$AA@ 000000018004afa8     libvcruntime:frame.obj
 0002:000050b8       ??_C@_1BC@DNHGCMLG@?$AAa?$AAd?$AAv?$AAa?$AAp?$AAi?$AA3?$AA2?$AA?$AA@ 000000018004b0b8     libvcruntime:winapi_downlevel.obj
 0002:000050d0       ??_C@_1DM@KHCHBNEB@?$AAa?$AAp?$AAi?$AA?9?$AAm?$AAs?$AA?9?$AAw?$AAi?$AAn?$AA?9?$AAc?$AAo?$AAr?$AAe?$AA?9?$AAf?$AAi?$AAb?$AAe?$AAr?$AAs?$AA?9?$AAl?$AA1?$AA?9?$AA1?$AA?9?$AA1?$AA?$AA@ 000000018004b0d0     libvcruntime:winapi_downlevel.obj
 0002:00005110       ??_C@_1DK@LPPGFMPP@?$AAa?$AAp?$AAi?$AA?9?$AAm?$AAs?$AA?9?$AAw?$AAi?$AAn?$AA?9?$AAc?$AAo?$AAr?$AAe?$AA?9?$AAs?$AAy?$AAn?$AAc?$AAh?$AA?9?$AAl?$AA1?$AA?9?$AA2?$AA?9?$AA0?$AA?$AA@ 000000018004b110     libvcruntime:winapi_downlevel.obj
 0002:00005150       ??_C@_1BC@GDMECMAK@?$AAk?$AAe?$AAr?$AAn?$AAe?$AAl?$AA3?$AA2?$AA?$AA@ 000000018004b150     libvcruntime:winapi_downlevel.obj
 0002:000054b0       ??_C@_08EHJDFFNH@__based?$CI?$AA@ 000000018004b4b0     libvcruntime:undname.obj
 0002:000054c0       ??_C@_07KOLFKCDI@__cdecl?$AA@ 000000018004b4c0     libvcruntime:undname.obj
 0002:000054c8       ??_C@_08GHMPAG@__pascal?$AA@ 000000018004b4c8     libvcruntime:undname.obj
 0002:000054d8       ??_C@_09IFJBGAPI@__stdcall?$AA@ 000000018004b4d8     libvcruntime:undname.obj
 0002:000054e8       ??_C@_0L@NPHFGOKO@__thiscall?$AA@ 000000018004b4e8     libvcruntime:undname.obj
 0002:000054f8       ??_C@_0L@JMKHOMEK@__fastcall?$AA@ 000000018004b4f8     libvcruntime:undname.obj
 0002:00005508       ??_C@_0N@BCKKPABJ@__vectorcall?$AA@ 000000018004b508     libvcruntime:undname.obj
 0002:00005518       ??_C@_09HIJEGCPM@__clrcall?$AA@ 000000018004b518     libvcruntime:undname.obj
 0002:00005524       ??_C@_06GHPCKEAG@__eabi?$AA@ 000000018004b524     libvcruntime:undname.obj
 0002:00005530       ??_C@_07JOMMBBKO@__ptr64?$AA@ 000000018004b530     libvcruntime:undname.obj
 0002:00005538       ??_C@_0L@PILCLIHE@__restrict?$AA@ 000000018004b538     libvcruntime:undname.obj
 0002:00005548       ??_C@_0M@GFIIJFMG@__unaligned?$AA@ 000000018004b548     libvcruntime:undname.obj
 0002:00005558       ??_C@_09DHDLOLLB@restrict?$CI?$AA@ 000000018004b558     libvcruntime:undname.obj
 0002:00005564       ??_C@_04NIHEBCM@?5new?$AA@ 000000018004b564     libvcruntime:undname.obj
 0002:00005570       ??_C@_07FPCDHGMM@?5delete?$AA@ 000000018004b570     libvcruntime:undname.obj
 0002:00005578       ??_C@_01NEMOKFLO@?$DN?$AA@ 000000018004b578     libvcruntime:undname.obj
 0002:0000557c       ??_C@_02GPIOPFAK@?$DO?$DO?$AA@ 000000018004b57c     libvcruntime:undname.obj
 0002:00005580       ??_C@_02FODMEDOG@?$DM?$DM?$AA@ 000000018004b580     libvcruntime:undname.obj
 0002:00005584       ??_C@_01DCLJPIOD@?$CB?$AA@ 000000018004b584     libvcruntime:undname.obj
 0002:00005588       ??_C@_02EGOFBIJA@?$DN?$DN?$AA@ 000000018004b588     libvcruntime:undname.obj
 0002:0000558c       ??_C@_02FDNJECIE@?$CB?$DN?$AA@ 000000018004b58c     libvcruntime:undname.obj
 0002:00005590       ??_C@_02GPECMEKF@?$FL?$FN?$AA@ 000000018004b590     libvcruntime:undname.obj
 0002:00005598       ??_C@_08LHJFAFGD@operator?$AA@ 000000018004b598     libvcruntime:undname.obj
 0002:000055a4       ??_C@_02HBOOOICD@?9?$DO?$AA@ 000000018004b5a4     libvcruntime:undname.obj
 0002:000055a8       ??_C@_02ECNGHCIF@?$CL?$CL?$AA@ 000000018004b5a8     libvcruntime:undname.obj
 0002:000055ac       ??_C@_02BAABKJLB@?9?9?$AA@ 000000018004b5ac     libvcruntime:undname.obj
 0002:000055b0       ??_C@_01MIFGBAGJ@?$CL?$AA@ 000000018004b5b0     libvcruntime:undname.obj
 0002:000055b4       ??_C@_01HNPIGOCE@?$CG?$AA@ 000000018004b5b4     libvcruntime:undname.obj
 0002:000055b8       ??_C@_03MNHNFDLC@?9?$DO?$CK?$AA@ 000000018004b5b8     libvcruntime:undname.obj
 0002:000055bc       ??_C@_01KMDKNFGN@?1?$AA@   000000018004b5bc     libvcruntime:undname.obj
 0002:000055c0       ??_C@_01FGNFDNOH@?$CF?$AA@ 000000018004b5c0     libvcruntime:undname.obj
 0002:000055c4       ??_C@_01MNNFJEPP@?$DM?$AA@ 000000018004b5c4     libvcruntime:undname.obj
 0002:000055c8       ??_C@_02EHCHHCKH@?$DM?$DN?$AA@ 000000018004b5c8     libvcruntime:undname.obj
 0002:000055cc       ??_C@_01PPODPGHN@?$DO?$AA@ 000000018004b5cc     libvcruntime:undname.obj
 0002:000055d0       ??_C@_02EEKDKGMJ@?$DO?$DN?$AA@ 000000018004b5d0     libvcruntime:undname.obj
 0002:000055d4       ??_C@_01IHBHIGKO@?0?$AA@   000000018004b5d4     libvcruntime:undname.obj
 0002:000055d8       ??_C@_02HCKGKOFO@?$CI?$CJ?$AA@ 000000018004b5d8     libvcruntime:undname.obj
 0002:000055dc       ??_C@_01PJKLJHI@?$HO?$AA@  000000018004b5dc     libvcruntime:undname.obj
 0002:000055e0       ??_C@_01JKBOJNNK@?$FO?$AA@ 000000018004b5e0     libvcruntime:undname.obj
 0002:000055e4       ??_C@_01DNKMNLPK@?$HM?$AA@ 000000018004b5e4     libvcruntime:undname.obj
 0002:000055e8       ??_C@_02PPKAJPJL@?$CG?$CG?$AA@ 000000018004b5e8     libvcruntime:undname.obj
 0002:000055ec       ??_C@_02NONPIBCD@?$HM?$HM?$AA@ 000000018004b5ec     libvcruntime:undname.obj
 0002:000055f0       ??_C@_02FPIMKNGF@?$CK?$DN?$AA@ 000000018004b5f0     libvcruntime:undname.obj
 0002:000055f4       ??_C@_02FOEOMHFC@?$CL?$DN?$AA@ 000000018004b5f4     libvcruntime:undname.obj
 0002:000055f8       ??_C@_02FKMDLLOA@?9?$DN?$AA@ 000000018004b5f8     libvcruntime:undname.obj
 0002:000055fc       ??_C@_02FJEHGPIO@?1?$DN?$AA@ 000000018004b5fc     libvcruntime:undname.obj
 0002:00005600       ??_C@_02FENAOKFI@?$CF?$DN?$AA@ 000000018004b600     libvcruntime:undname.obj
 0002:00005604       ??_C@_03IKFCCPFF@?$DO?$DO?$DN?$AA@ 000000018004b604     libvcruntime:undname.obj
 0002:00005608       ??_C@_03CDNPDDLA@?$DM?$DM?$DN?$AA@ 000000018004b608     libvcruntime:undname.obj
 0002:0000560c       ??_C@_02FGJGFEAB@?$CG?$DN?$AA@ 000000018004b60c     libvcruntime:undname.obj
 0002:00005610       ??_C@_02DHLNPPGH@?$HM?$DN?$AA@ 000000018004b610     libvcruntime:undname.obj
 0002:00005614       ??_C@_02MHEGNOJ@?$FO?$DN?$AA@ 000000018004b614     libvcruntime:undname.obj
 0002:00005618       ??_C@_09IFPLHPGF@?$GAvftable?8?$AA@ 000000018004b618     libvcruntime:undname.obj
 0002:00005628       ??_C@_09BLBHBJP@?$GAvbtable?8?$AA@ 000000018004b628     libvcruntime:undname.obj
 0002:00005638       ??_C@_07FEEIOKP@?$GAvcall?8?$AA@ 000000018004b638     libvcruntime:undname.obj
 0002:00005640       ??_C@_08LLFFHHDJ@?$GAtypeof?8?$AA@ 000000018004b640     libvcruntime:undname.obj
 0002:00005650       ??_C@_0BF@KDPPACIK@?$GAlocal?5static?5guard?8?$AA@ 000000018004b650     libvcruntime:undname.obj
 0002:00005668       ??_C@_08OBABFOLI@?$GAstring?8?$AA@ 000000018004b668     libvcruntime:undname.obj
 0002:00005678       ??_C@_0BD@JDLKDPAB@?$GAvbase?5destructor?8?$AA@ 000000018004b678     libvcruntime:undname.obj
 0002:00005690       ??_C@_0BN@DEGPLNFK@?$GAvector?5deleting?5destructor?8?$AA@ 000000018004b690     libvcruntime:undname.obj
 0002:000056b0       ??_C@_0BO@OBMKPJIG@?$GAdefault?5constructor?5closure?8?$AA@ 000000018004b6b0     libvcruntime:undname.obj
 0002:000056d0       ??_C@_0BN@IMDCHIKM@?$GAscalar?5deleting?5destructor?8?$AA@ 000000018004b6d0     libvcruntime:undname.obj
 0002:000056f0       ??_C@_0BO@PFGOCPJJ@?$GAvector?5constructor?5iterator?8?$AA@ 000000018004b6f0     libvcruntime:undname.obj
 0002:00005710       ??_C@_0BN@LFPFMEDL@?$GAvector?5destructor?5iterator?8?$AA@ 000000018004b710     libvcruntime:undname.obj
 0002:00005730       ??_C@_0CE@IKBNEHA@?$GAvector?5vbase?5constructor?5iterat@ 000000018004b730     libvcruntime:undname.obj
 0002:00005758       ??_C@_0BL@NILFHHPC@?$GAvirtual?5displacement?5map?8?$AA@ 000000018004b758     libvcruntime:undname.obj
 0002:00005778       ??_C@_0CB@JONCMFFK@?$GAeh?5vector?5constructor?5iterator?8@ 000000018004b778     libvcruntime:undname.obj
 0002:000057a0       ??_C@_0CA@GCEOPDGL@?$GAeh?5vector?5destructor?5iterator?8?$AA@ 000000018004b7a0     libvcruntime:undname.obj
 0002:000057c0       ??_C@_0CH@OOJPLCPH@?$GAeh?5vector?5vbase?5constructor?5ite@ 000000018004b7c0     libvcruntime:undname.obj
 0002:000057e8       ??_C@_0BL@LLKPOHJI@?$GAcopy?5constructor?5closure?8?$AA@ 000000018004b7e8     libvcruntime:undname.obj
 0002:00005808       ??_C@_0BA@KBCDOMBN@?$GAudt?5returning?8?$AA@ 000000018004b808     libvcruntime:undname.obj
 0002:00005818       ??_C@_03KLGMFNMG@?$GAEH?$AA@ 000000018004b818     libvcruntime:undname.obj
 0002:0000581c       ??_C@_05KHLCHHI@?$GARTTI?$AA@ 000000018004b81c     libvcruntime:undname.obj
 0002:00005828       ??_C@_0BA@KKLDJDLB@?$GAlocal?5vftable?8?$AA@ 000000018004b828     libvcruntime:undname.obj
 0002:00005838       ??_C@_0CE@IIHCMGGL@?$GAlocal?5vftable?5constructor?5closu@ 000000018004b838     libvcruntime:undname.obj
 0002:0000585c       ??_C@_06FHBGPFGH@?5new?$FL?$FN?$AA@ 000000018004b85c     libvcruntime:undname.obj
 0002:00005868       ??_C@_09LBNFPBCA@?5delete?$FL?$FN?$AA@ 000000018004b868     libvcruntime:undname.obj
 0002:00005878       ??_C@_0P@HJKNJFNN@?$GAomni?5callsig?8?$AA@ 000000018004b878     libvcruntime:undname.obj
 0002:00005888       ??_C@_0BL@CNOONJFP@?$GAplacement?5delete?5closure?8?$AA@ 000000018004b888     libvcruntime:undname.obj
 0002:000058a8       ??_C@_0BN@CKNJLHMB@?$GAplacement?5delete?$FL?$FN?5closure?8?$AA@ 000000018004b8a8     libvcruntime:undname.obj
 0002:000058c8       ??_C@_0CG@CFDHKGGD@?$GAmanaged?5vector?5constructor?5iter@ 000000018004b8c8     libvcruntime:undname.obj
 0002:000058f0       ??_C@_0CF@IMGKMJNO@?$GAmanaged?5vector?5destructor?5itera@ 000000018004b8f0     libvcruntime:undname.obj
 0002:00005918       ??_C@_0CG@HLDDJMAG@?$GAeh?5vector?5copy?5constructor?5iter@ 000000018004b918     libvcruntime:undname.obj
 0002:00005940       ??_C@_0CM@FCBBDIGB@?$GAeh?5vector?5vbase?5copy?5constructo@ 000000018004b940     libvcruntime:undname.obj
 0002:00005970       ??_C@_0BL@CLIPGLGB@?$GAdynamic?5initializer?5for?5?8?$AA@ 000000018004b970     libvcruntime:undname.obj
 0002:00005990       ??_C@_0CB@PDBIFEP@?$GAdynamic?5atexit?5destructor?5for?5?8@ 000000018004b990     libvcruntime:undname.obj
 0002:000059b8       ??_C@_0CD@CGAJBKEJ@?$GAvector?5copy?5constructor?5iterato@ 000000018004b9b8     libvcruntime:undname.obj
 0002:000059e0       ??_C@_0CJ@GJELGAMM@?$GAvector?5vbase?5copy?5constructor?5i@ 000000018004b9e0     libvcruntime:undname.obj
 0002:00005a10       ??_C@_0CL@FGIJHLCE@?$GAmanaged?5vector?5copy?5constructor@ 000000018004ba10     libvcruntime:undname.obj
 0002:00005a40       ??_C@_0BM@PMGGMLDN@?$GAlocal?5static?5thread?5guard?8?$AA@ 000000018004ba40     libvcruntime:undname.obj
 0002:00005a60       ??_C@_0N@BDNMDMOL@operator?5?$CC?$CC?5?$AA@ 000000018004ba60     libvcruntime:undname.obj
 0002:00005a70       ??_C@_0BC@DAFEJGAK@?5Type?5Descriptor?8?$AA@ 000000018004ba70     libvcruntime:undname.obj
 0002:00005a88       ??_C@_0BM@LDKODKLH@?5Base?5Class?5Descriptor?5at?5?$CI?$AA@ 000000018004ba88     libvcruntime:undname.obj
 0002:00005aa8       ??_C@_0BD@LGICGFMM@?5Base?5Class?5Array?8?$AA@ 000000018004baa8     libvcruntime:undname.obj
 0002:00005ac0       ??_C@_0BN@MECKDCOJ@?5Class?5Hierarchy?5Descriptor?8?$AA@ 000000018004bac0     libvcruntime:undname.obj
 0002:00005ae0       ??_C@_0BK@CFCOFLF@?5Complete?5Object?5Locator?8?$AA@ 000000018004bae0     libvcruntime:undname.obj
 0002:00005b00       ??_C@_1EK@MBDPDCGA@?$AAM?$AAi?$AAc?$AAr?$AAo?$AAs?$AAo?$AAf?$AAt?$AA?5?$AAV?$AAi?$AAs?$AAu?$AAa?$AAl?$AA?5?$AAC?$AA?$CL?$AA?$CL?$AA?5?$AAR?$AAu?$AAn?$AAt?$AAi?$AAm?$AAe?$AA?5?$AAL?$AAi?$AAb@ 000000018004bb00     libucrt:assert.obj
 0002:00005b50       ??_C@_1FE@LHBLIKM@?$AAA?$AAs?$AAs?$AAe?$AAr?$AAt?$AAi?$AAo?$AAn?$AA?5?$AAf?$AAa?$AAi?$AAl?$AAe?$AAd?$AA?3?$AA?5?$AA?$CF?$AAT?$AAs?$AA?0?$AA?5?$AAf?$AAi?$AAl?$AAe?$AA?5?$AA?$CF?$AAT?$AAs?$AA?0@ 000000018004bb50     libucrt:assert.obj
 0002:00005ba8       ??_C@_1CE@OJBNHDMO@?$AAA?$AAs?$AAs?$AAe?$AAr?$AAt?$AAi?$AAo?$AAn?$AA?5?$AAf?$AAa?$AAi?$AAl?$AAe?$AAd?$AA?$CB?$AA?$AA@ 000000018004bba8     libucrt:assert.obj
 0002:00005bd0       ??_C@_1BE@PHKBBGE@?$AAP?$AAr?$AAo?$AAg?$AAr?$AAa?$AAm?$AA?3?$AA?5?$AA?$AA@ 000000018004bbd0     libucrt:assert.obj
 0002:00005be8       ??_C@_1O@HEMHKNDC@?$AAF?$AAi?$AAl?$AAe?$AA?3?$AA?5?$AA?$AA@ 000000018004bbe8     libucrt:assert.obj
 0002:00005bf8       ??_C@_1O@KCAFKHJE@?$AAL?$AAi?$AAn?$AAe?$AA?3?$AA?5?$AA?$AA@ 000000018004bbf8     libucrt:assert.obj
 0002:00005c08       ??_C@_1BK@PEDCIPMA@?$AAE?$AAx?$AAp?$AAr?$AAe?$AAs?$AAs?$AAi?$AAo?$AAn?$AA?3?$AA?5?$AA?$AA@ 000000018004bc08     libucrt:assert.obj
 0002:00005c30       ??_C@_1OA@EGMLFBHJ@?$AAF?$AAo?$AAr?$AA?5?$AAi?$AAn?$AAf?$AAo?$AAr?$AAm?$AAa?$AAt?$AAi?$AAo?$AAn?$AA?5?$AAo?$AAn?$AA?5?$AAh?$AAo?$AAw?$AA?5?$AAy?$AAo?$AAu?$AAr?$AA?5?$AAp?$AAr?$AAo?$AAg@ 000000018004bc30     libucrt:assert.obj
 0002:00005d10       ??_C@_1HK@POCJMFGK@?$AA?$CI?$AAP?$AAr?$AAe?$AAs?$AAs?$AA?5?$AAR?$AAe?$AAt?$AAr?$AAy?$AA?5?$AAt?$AAo?$AA?5?$AAd?$AAe?$AAb?$AAu?$AAg?$AA?5?$AAt?$AAh?$AAe?$AA?5?$AAa?$AAp?$AAp?$AAl?$AAi?$AAc@ 000000018004bd10     libucrt:assert.obj
 0002:00005d90       ??_C@_17LGKOMLJ@?$AA?4?$AA?4?$AA?4?$AA?$AA@ 000000018004bd90     libucrt:assert.obj
 0002:00005d98       ??_C@_13LBAGMAIH@?$AA?6?$AA?$AA@ 000000018004bd98     libucrt:assert.obj
 0002:00005d9c       ??_C@_15IABLJNFO@?$AA?6?$AA?6?$AA?$AA@ 000000018004bd9c     libucrt:assert.obj
 0002:00005da8       ??_C@_1CO@EAEJAADC@?$AA?$DM?$AAp?$AAr?$AAo?$AAg?$AAr?$AAa?$AAm?$AA?5?$AAn?$AAa?$AAm?$AAe?$AA?5?$AAu?$AAn?$AAk?$AAn?$AAo?$AAw?$AAn?$AA?$DO?$AA?$AA@ 000000018004bda8     libucrt:assert.obj
 0002:00005de0       standard_lookup_table      000000018004bde0     libucrt:output.obj
 0002:00005e3c       ??_C@_06OJHGLDPL@?$CInull?$CJ?$AA@ 000000018004be3c     libucrt:output.obj
 0002:00005e48       ??_C@_1O@CEDCILHN@?$AA?$CI?$AAn?$AAu?$AAl?$AAl?$AA?$CJ?$AA?$AA@ 000000018004be48     libucrt:output.obj
 0002:00005e58       ??_C@_1BI@BGOHAHKC@?$AAm?$AAs?$AAc?$AAo?$AAr?$AAe?$AAe?$AA?4?$AAd?$AAl?$AAl?$AA?$AA@ 000000018004be58     libucrt:exit.obj
 0002:00005e70       ??_C@_0P@MIGLKIOC@CorExitProcess?$AA@ 000000018004be70     libucrt:exit.obj
 0002:00005ff0       __newctype                 000000018004bff0     libucrt:ctype.obj
 0002:000062f0       __newclmap                 000000018004c2f0     libucrt:ctype.obj
 0002:00006470       __newcumap                 000000018004c470     libucrt:ctype.obj
 0002:000065f0       _wctype                    000000018004c5f0     libucrt:ctype.obj
 0002:00006800       ?large_power_data@?1??multiply_by_power_of_ten@__crt_strtox@@YA_NAEAUbig_integer@2@I@Z@4QBIB 000000018004c800     libucrt:strtod.obj
 0002:00007110       ?large_power_indices@?1??multiply_by_power_of_ten@__crt_strtox@@YA_NAEAUbig_integer@2@I@Z@4QBUunpack_index@?1??12@YA_N0I@Z@B 000000018004d110     libucrt:strtod.obj
 0002:000071a8       ?small_powers_of_ten@?6??multiply_by_power_of_ten@__crt_strtox@@YA_NAEAUbig_integer@2@I@Z@4QBIB 000000018004d1a8     libucrt:strtod.obj
 0002:00008e80       __acrt_exception_action_table 000000018004ee80     libucrt:exception_filter.obj
 0002:00008f40       __acrt_signal_action_table_count 000000018004ef40     libucrt:exception_filter.obj
 0002:00008f48       __acrt_signal_action_first_fpe_index 000000018004ef48     libucrt:exception_filter.obj
 0002:00008f50       __acrt_signal_action_fpe_count 000000018004ef50     libucrt:exception_filter.obj
 0002:000090f0       ??_C@_1EG@CNNIPFIM@?$AAa?$AAp?$AAi?$AA?9?$AAm?$AAs?$AA?9?$AAw?$AAi?$AAn?$AA?9?$AAa?$AAp?$AAp?$AAm?$AAo?$AAd?$AAe?$AAl?$AA?9?$AAr?$AAu?$AAn?$AAt?$AAi?$AAm?$AAe?$AA?9?$AAl?$AA1?$AA?9?$AA1@ 000000018004f0f0     libucrt:winapi_thunks.obj
 0002:00009140       ??_C@_1EA@JGEFHKEI@?$AAa?$AAp?$AAi?$AA?9?$AAm?$AAs?$AA?9?$AAw?$AAi?$AAn?$AA?9?$AAc?$AAo?$AAr?$AAe?$AA?9?$AAd?$AAa?$AAt?$AAe?$AAt?$AAi?$AAm?$AAe?$AA?9?$AAl?$AA1?$AA?9?$AA1?$AA?9?$AA1?$AA?$AA@ 000000018004f140     libucrt:winapi_thunks.obj
 0002:00009180       ??_C@_1DI@GCIAAENM@?$AAa?$AAp?$AAi?$AA?9?$AAm?$AAs?$AA?9?$AAw?$AAi?$AAn?$AA?9?$AAc?$AAo?$AAr?$AAe?$AA?9?$AAf?$AAi?$AAl?$AAe?$AA?9?$AAl?$AA2?$AA?9?$AA1?$AA?9?$AA1?$AA?$AA@ 000000018004f180     libucrt:winapi_thunks.obj
 0002:000091c0       ??_C@_1EI@MPIAOHOC@?$AAa?$AAp?$AAi?$AA?9?$AAm?$AAs?$AA?9?$AAw?$AAi?$AAn?$AA?9?$AAc?$AAo?$AAr?$AAe?$AA?9?$AAl?$AAo?$AAc?$AAa?$AAl?$AAi?$AAz?$AAa?$AAt?$AAi?$AAo?$AAn?$AA?9?$AAl?$AA1?$AA?9@ 000000018004f1c0     libucrt:winapi_thunks.obj
 0002:00009210       ??_C@_1FK@FPHCKFIE@?$AAa?$AAp?$AAi?$AA?9?$AAm?$AAs?$AA?9?$AAw?$AAi?$AAn?$AA?9?$AAc?$AAo?$AAr?$AAe?$AA?9?$AAl?$AAo?$AAc?$AAa?$AAl?$AAi?$AAz?$AAa?$AAt?$AAi?$AAo?$AAn?$AA?9?$AAo?$AAb?$AAs@ 000000018004f210     libucrt:winapi_thunks.obj
 0002:00009270       ??_C@_1EM@DILCGIIO@?$AAa?$AAp?$AAi?$AA?9?$AAm?$AAs?$AA?9?$AAw?$AAi?$AAn?$AA?9?$AAc?$AAo?$AAr?$AAe?$AA?9?$AAp?$AAr?$AAo?$AAc?$AAe?$AAs?$AAs?$AAt?$AAh?$AAr?$AAe?$AAa?$AAd?$AAs?$AA?9?$AAl@ 000000018004f270     libucrt:winapi_thunks.obj
 0002:000092c0       ??_C@_1DM@LNCGDDPN@?$AAa?$AAp?$AAi?$AA?9?$AAm?$AAs?$AA?9?$AAw?$AAi?$AAn?$AA?9?$AAc?$AAo?$AAr?$AAe?$AA?9?$AAs?$AAt?$AAr?$AAi?$AAn?$AAg?$AA?9?$AAl?$AA1?$AA?9?$AA1?$AA?9?$AA0?$AA?$AA@ 000000018004f2c0     libucrt:winapi_thunks.obj
 0002:00009300       ??_C@_1DO@FPAPJEMD@?$AAa?$AAp?$AAi?$AA?9?$AAm?$AAs?$AA?9?$AAw?$AAi?$AAn?$AA?9?$AAc?$AAo?$AAr?$AAe?$AA?9?$AAs?$AAy?$AAs?$AAi?$AAn?$AAf?$AAo?$AA?9?$AAl?$AA1?$AA?9?$AA2?$AA?9?$AA1?$AA?$AA@ 000000018004f300     libucrt:winapi_thunks.obj
 0002:00009340       ??_C@_1DK@NDHNAHIO@?$AAa?$AAp?$AAi?$AA?9?$AAm?$AAs?$AA?9?$AAw?$AAi?$AAn?$AA?9?$AAc?$AAo?$AAr?$AAe?$AA?9?$AAw?$AAi?$AAn?$AAr?$AAt?$AA?9?$AAl?$AA1?$AA?9?$AA1?$AA?9?$AA0?$AA?$AA@ 000000018004f340     libucrt:winapi_thunks.obj
 0002:00009380       ??_C@_1DM@KGHDGBCM@?$AAa?$AAp?$AAi?$AA?9?$AAm?$AAs?$AA?9?$AAw?$AAi?$AAn?$AA?9?$AAc?$AAo?$AAr?$AAe?$AA?9?$AAx?$AAs?$AAt?$AAa?$AAt?$AAe?$AA?9?$AAl?$AA2?$AA?9?$AA1?$AA?9?$AA0?$AA?$AA@ 000000018004f380     libucrt:winapi_thunks.obj
 0002:000093c0       ??_C@_1EO@IJIOEFOH@?$AAa?$AAp?$AAi?$AA?9?$AAm?$AAs?$AA?9?$AAw?$AAi?$AAn?$AA?9?$AAr?$AAt?$AAc?$AAo?$AAr?$AAe?$AA?9?$AAn?$AAt?$AAu?$AAs?$AAe?$AAr?$AA?9?$AAw?$AAi?$AAn?$AAd?$AAo?$AAw?$AA?9@ 000000018004f3c0     libucrt:winapi_thunks.obj
 0002:00009410       ??_C@_1FG@HHGEKANL@?$AAa?$AAp?$AAi?$AA?9?$AAm?$AAs?$AA?9?$AAw?$AAi?$AAn?$AA?9?$AAs?$AAe?$AAc?$AAu?$AAr?$AAi?$AAt?$AAy?$AA?9?$AAs?$AAy?$AAs?$AAt?$AAe?$AAm?$AAf?$AAu?$AAn?$AAc?$AAt?$AAi@ 000000018004f410     libucrt:winapi_thunks.obj
 0002:00009470       ??_C@_1FG@NCKKOLKO@?$AAe?$AAx?$AAt?$AA?9?$AAm?$AAs?$AA?9?$AAw?$AAi?$AAn?$AA?9?$AAk?$AAe?$AAr?$AAn?$AAe?$AAl?$AA3?$AA2?$AA?9?$AAp?$AAa?$AAc?$AAk?$AAa?$AAg?$AAe?$AA?9?$AAc?$AAu?$AAr?$AAr@ 000000018004f470     libucrt:winapi_thunks.obj
 0002:000094d0       ??_C@_1EG@DBIOJECG@?$AAe?$AAx?$AAt?$AA?9?$AAm?$AAs?$AA?9?$AAw?$AAi?$AAn?$AA?9?$AAn?$AAt?$AAu?$AAs?$AAe?$AAr?$AA?9?$AAd?$AAi?$AAa?$AAl?$AAo?$AAg?$AAb?$AAo?$AAx?$AA?9?$AAl?$AA1?$AA?9?$AA1@ 000000018004f4d0     libucrt:winapi_thunks.obj
 0002:00009520       ??_C@_1EO@FIHMJCLF@?$AAe?$AAx?$AAt?$AA?9?$AAm?$AAs?$AA?9?$AAw?$AAi?$AAn?$AA?9?$AAn?$AAt?$AAu?$AAs?$AAe?$AAr?$AA?9?$AAw?$AAi?$AAn?$AAd?$AAo?$AAw?$AAs?$AAt?$AAa?$AAt?$AAi?$AAo?$AAn?$AA?9@ 000000018004f520     libucrt:winapi_thunks.obj
 0002:00009570       ??_C@_1O@BCCLBEOE@?$AAu?$AAs?$AAe?$AAr?$AA3?$AA2?$AA?$AA@ 000000018004f570     libucrt:winapi_thunks.obj
 0002:00009588       ??_C@_0BA@FHFNEAED@AreFileApisANSI?$AA@ 000000018004f588     libucrt:winapi_thunks.obj
 0002:000095a8       ??_C@_0BE@LJANKFHF@EnumSystemLocalesEx?$AA@ 000000018004f5a8     libucrt:winapi_thunks.obj
 0002:000095e8       ??_C@_0BA@HNOPNCHB@GetActiveWindow?$AA@ 000000018004f5e8     libucrt:winapi_thunks.obj
 0002:00009608       ??_C@_0BD@HHGDFDBJ@GetLastActivePopup?$AA@ 000000018004f608     libucrt:winapi_thunks.obj
 0002:00009630       ??_C@_0BI@DFKBFLJE@GetProcessWindowStation?$AA@ 000000018004f630     libucrt:winapi_thunks.obj
 0002:00009650       ??_C@_0BJ@PBCCBIPI@GetUserDefaultLocaleName?$AA@ 000000018004f650     libucrt:winapi_thunks.obj
 0002:00009678       ??_C@_0BK@DEKFELLI@GetUserObjectInformationW?$AA@ 000000018004f678     libucrt:winapi_thunks.obj
 0002:000096a8       ??_C@_0BC@CELBKLLA@IsValidLocaleName?$AA@ 000000018004f6a8     libucrt:winapi_thunks.obj
 0002:000096d0       ??_C@_0BB@CDHDDLLP@LCIDToLocaleName?$AA@ 000000018004f6d0     libucrt:winapi_thunks.obj
 0002:000096f0       ??_C@_0BB@HBDEELFH@LocaleNameToLCID?$AA@ 000000018004f6f0     libucrt:winapi_thunks.obj
 0002:00009710       ??_C@_0M@CHKKJDAI@MessageBoxA?$AA@ 000000018004f710     libucrt:winapi_thunks.obj
 0002:00009728       ??_C@_0M@DLDCCGNP@MessageBoxW?$AA@ 000000018004f728     libucrt:winapi_thunks.obj
 0002:00009734       ??_C@_03OEIAHPBN@INF?$AA@  000000018004f734     libucrt:cvt.obj
 0002:00009738       ??_C@_03OJHLLCGB@inf?$AA@  000000018004f738     libucrt:cvt.obj
 0002:0000973c       ??_C@_03LKNCIKJB@NAN?$AA@  000000018004f73c     libucrt:cvt.obj
 0002:00009740       ??_C@_03LHCJEHON@nan?$AA@  000000018004f740     libucrt:cvt.obj
 0002:00009748       ??_C@_09OFJJIMPC@NAN?$CISNAN?$CJ?$AA@ 000000018004f748     libucrt:cvt.obj
 0002:00009758       ??_C@_09IPFBKMDL@nan?$CIsnan?$CJ?$AA@ 000000018004f758     libucrt:cvt.obj
 0002:00009768       ??_C@_08IKHNHAJ@NAN?$CIIND?$CJ?$AA@ 000000018004f768     libucrt:cvt.obj
 0002:00009778       ??_C@_08OFCDMILK@nan?$CIind?$CJ?$AA@ 000000018004f778     libucrt:cvt.obj
 0002:00009784       ??_C@_05KLBDPFGC@e?$CL000?$AA@ 000000018004f784     libucrt:cvt.obj
 0002:00009790       __lc_category              000000018004f790     libucrt:wsetlocale.obj
 0002:00009820       ??_C@_1O@GIFLHMA@?$AAL?$AAC?$AA_?$AAA?$AAL?$AAL?$AA?$AA@ 000000018004f820     libucrt:wsetlocale.obj
 0002:00009830       ??_C@_1BG@PPOMIBNJ@?$AAL?$AAC?$AA_?$AAC?$AAO?$AAL?$AAL?$AAA?$AAT?$AAE?$AA?$AA@ 000000018004f830     libucrt:wsetlocale.obj
 0002:00009848       ??_C@_1BC@FFJGAPJM@?$AAL?$AAC?$AA_?$AAC?$AAT?$AAY?$AAP?$AAE?$AA?$AA@ 000000018004f848     libucrt:wsetlocale.obj
 0002:00009860       ??_C@_1BI@PCKFNJFB@?$AAL?$AAC?$AA_?$AAM?$AAO?$AAN?$AAE?$AAT?$AAA?$AAR?$AAY?$AA?$AA@ 000000018004f860     libucrt:wsetlocale.obj
 0002:00009878       ??_C@_1BG@ENIEDKID@?$AAL?$AAC?$AA_?$AAN?$AAU?$AAM?$AAE?$AAR?$AAI?$AAC?$AA?$AA@ 000000018004f878     libucrt:wsetlocale.obj
 0002:00009890       ??_C@_1BA@HAAOMIIG@?$AAL?$AAC?$AA_?$AAT?$AAI?$AAM?$AAE?$AA?$AA@ 000000018004f890     libucrt:wsetlocale.obj
 0002:00009920       ??_C@_15NBPDDFIP@?$AA?$DN?$AA?$DL?$AA?$AA@ 000000018004f920     libucrt:wsetlocale.obj
 0002:00009928       ??_C@_13PJJBFPED@?$AA?$DL?$AA?$AA@ 000000018004f928     libucrt:wsetlocale.obj
 0002:0000992c       ??_C@_13NMPKAAJP@?$AA?$DN?$AA?$AA@ 000000018004f92c     libucrt:wsetlocale.obj
 0002:00009930       ??_C@_13FHBKNHDA@?$AAC?$AA?$AA@ 000000018004f930     libucrt:wsetlocale.obj
 0002:00009938       ??_C@_17MBJJLFDM@?$AA_?$AA?4?$AA?0?$AA?$AA@ 000000018004f938     libucrt:wsetlocale.obj
 0002:00009940       ??_C@_13ENNFDPBH@?$AA_?$AA?$AA@ 000000018004f940     libucrt:wsetlocale.obj
 0002:00009944       ??_C@_13JOFGPIOO@?$AA?4?$AA?$AA@ 000000018004f944     libucrt:wsetlocale.obj
 0002:00009950       __lc_time_c                000000018004f950     libucrt:nlsdata.obj
 0002:00009c10       ??_C@_03KOEHGMDN@Sun?$AA@  000000018004fc10     libucrt:nlsdata.obj
 0002:00009c14       ??_C@_03PDAGKDH@Mon?$AA@   000000018004fc14     libucrt:nlsdata.obj
 0002:00009c18       ??_C@_03NAGEINEP@Tue?$AA@  000000018004fc18     libucrt:nlsdata.obj
 0002:00009c1c       ??_C@_03MHOMLAJA@Wed?$AA@  000000018004fc1c     libucrt:nlsdata.obj
 0002:00009c20       ??_C@_03IOFIKPDN@Thu?$AA@  000000018004fc20     libucrt:nlsdata.obj
 0002:00009c24       ??_C@_03IDIOELNC@Fri?$AA@  000000018004fc24     libucrt:nlsdata.obj
 0002:00009c28       ??_C@_03FEFJNEK@Sat?$AA@   000000018004fc28     libucrt:nlsdata.obj
 0002:00009c2c       ??_C@_06OOPIFAJ@Sunday?$AA@ 000000018004fc2c     libucrt:nlsdata.obj
 0002:00009c34       ??_C@_06JLEDEDGH@Monday?$AA@ 000000018004fc34     libucrt:nlsdata.obj
 0002:00009c40       ??_C@_07BAAGCFCM@Tuesday?$AA@ 000000018004fc40     libucrt:nlsdata.obj
 0002:00009c48       ??_C@_09DLIGFAKA@Wednesday?$AA@ 000000018004fc48     libucrt:nlsdata.obj
 0002:00009c58       ??_C@_08HACCIKIA@Thursday?$AA@ 000000018004fc58     libucrt:nlsdata.obj
 0002:00009c64       ??_C@_06JECMNKMI@Friday?$AA@ 000000018004fc64     libucrt:nlsdata.obj
 0002:00009c70       ??_C@_08INBOOONO@Saturday?$AA@ 000000018004fc70     libucrt:nlsdata.obj
 0002:00009c7c       ??_C@_03JIHJHPIE@Jan?$AA@  000000018004fc7c     libucrt:nlsdata.obj
 0002:00009c80       ??_C@_03HJBDCHOM@Feb?$AA@  000000018004fc80     libucrt:nlsdata.obj
 0002:00009c84       ??_C@_03ODNJBKGA@Mar?$AA@  000000018004fc84     libucrt:nlsdata.obj
 0002:00009c88       ??_C@_03LEOLGMJP@Apr?$AA@  000000018004fc88     libucrt:nlsdata.obj
 0002:00009c8c       ??_C@_03CNMDKL@May?$AA@    000000018004fc8c     libucrt:nlsdata.obj
 0002:00009c90       ??_C@_03IDFGHECI@Jun?$AA@  000000018004fc90     libucrt:nlsdata.obj
 0002:00009c94       ??_C@_03LBGABGKK@Jul?$AA@  000000018004fc94     libucrt:nlsdata.obj
 0002:00009c98       ??_C@_03IFJFEIGA@Aug?$AA@  000000018004fc98     libucrt:nlsdata.obj
 0002:00009c9c       ??_C@_03GGCAPAJC@Sep?$AA@  000000018004fc9c     libucrt:nlsdata.obj
 0002:00009ca0       ??_C@_03BMAOKBAD@Oct?$AA@  000000018004fca0     libucrt:nlsdata.obj
 0002:00009ca4       ??_C@_03JPJOFNIA@Nov?$AA@  000000018004fca4     libucrt:nlsdata.obj
 0002:00009ca8       ??_C@_03MKABNOCG@Dec?$AA@  000000018004fca8     libucrt:nlsdata.obj
 0002:00009cb0       ??_C@_07CGJPFGJA@January?$AA@ 000000018004fcb0     libucrt:nlsdata.obj
 0002:00009cb8       ??_C@_08GNJGEPFN@February?$AA@ 000000018004fcb8     libucrt:nlsdata.obj
 0002:00009cc4       ??_C@_05HPCKOFNC@March?$AA@ 000000018004fcc4     libucrt:nlsdata.obj
 0002:00009ccc       ??_C@_05DMJDNLEJ@April?$AA@ 000000018004fccc     libucrt:nlsdata.obj
 0002:00009cd4       ??_C@_04CNLMGBGM@June?$AA@ 000000018004fcd4     libucrt:nlsdata.obj
 0002:00009cdc       ??_C@_04MIEPOIFP@July?$AA@ 000000018004fcdc     libucrt:nlsdata.obj
 0002:00009ce4       ??_C@_06LBBHFDDG@August?$AA@ 000000018004fce4     libucrt:nlsdata.obj
 0002:00009cf0       ??_C@_09BHHEALKD@September?$AA@ 000000018004fcf0     libucrt:nlsdata.obj
 0002:00009d00       ??_C@_07JJNFCEND@October?$AA@ 000000018004fd00     libucrt:nlsdata.obj
 0002:00009d08       ??_C@_08HCHEGEOA@November?$AA@ 000000018004fd08     libucrt:nlsdata.obj
 0002:00009d18       ??_C@_08EDHMEBNP@December?$AA@ 000000018004fd18     libucrt:nlsdata.obj
 0002:00009d24       ??_C@_02DEDBPAFC@AM?$AA@   000000018004fd24     libucrt:nlsdata.obj
 0002:00009d28       ??_C@_02CJNFDJBF@PM?$AA@   000000018004fd28     libucrt:nlsdata.obj
 0002:00009d30       ??_C@_08BPBNCDIB@MM?1dd?1yy?$AA@ 000000018004fd30     libucrt:nlsdata.obj
 0002:00009d40       ??_C@_0BE@CKGJFCPC@dddd?0?5MMMM?5dd?0?5yyyy?$AA@ 000000018004fd40     libucrt:nlsdata.obj
 0002:00009d58       ??_C@_08JCCMCCIL@HH?3mm?3ss?$AA@ 000000018004fd58     libucrt:nlsdata.obj
 0002:00009d68       ??_C@_17MBGCMIPB@?$AAS?$AAu?$AAn?$AA?$AA@ 000000018004fd68     libucrt:nlsdata.obj
 0002:00009d70       ??_C@_17KBOMKBF@?$AAM?$AAo?$AAn?$AA?$AA@ 000000018004fd70     libucrt:nlsdata.obj
 0002:00009d78       ??_C@_17BMKGEGOJ@?$AAT?$AAu?$AAe?$AA?$AA@ 000000018004fd78     libucrt:nlsdata.obj
 0002:00009d80       ??_C@_17CJEDCEPE@?$AAW?$AAe?$AAd?$AA?$AA@ 000000018004fd80     libucrt:nlsdata.obj
 0002:00009d88       ??_C@_17PDPHAADD@?$AAT?$AAh?$AAu?$AA?$AA@ 000000018004fd88     libucrt:nlsdata.obj
 0002:00009d90       ??_C@_17HFOLPPLP@?$AAF?$AAr?$AAi?$AA?$AA@ 000000018004fd90     libucrt:nlsdata.obj
 0002:00009d98       ??_C@_17GGIBDPIH@?$AAS?$AAa?$AAt?$AA?$AA@ 000000018004fd98     libucrt:nlsdata.obj
 0002:00009da0       ??_C@_1O@IHNHDHPB@?$AAS?$AAu?$AAn?$AAd?$AAa?$AAy?$AA?$AA@ 000000018004fda0     libucrt:nlsdata.obj
 0002:00009db0       ??_C@_1O@MMNBFLIA@?$AAM?$AAo?$AAn?$AAd?$AAa?$AAy?$AA?$AA@ 000000018004fdb0     libucrt:nlsdata.obj
 0002:00009dc0       ??_C@_1BA@ENFBFFEK@?$AAT?$AAu?$AAe?$AAs?$AAd?$AAa?$AAy?$AA?$AA@ 000000018004fdc0     libucrt:nlsdata.obj
 0002:00009dd0       ??_C@_1BE@EBOGMDOH@?$AAW?$AAe?$AAd?$AAn?$AAe?$AAs?$AAd?$AAa?$AAy?$AA?$AA@ 000000018004fdd0     libucrt:nlsdata.obj
 0002:00009de8       ??_C@_1BC@HHMNLIHE@?$AAT?$AAh?$AAu?$AAr?$AAs?$AAd?$AAa?$AAy?$AA?$AA@ 000000018004fde8     libucrt:nlsdata.obj
 0002:00009e00       ??_C@_1O@PDICJHAG@?$AAF?$AAr?$AAi?$AAd?$AAa?$AAy?$AA?$AA@ 000000018004fe00     libucrt:nlsdata.obj
 0002:00009e10       ??_C@_1BC@ENMNNPAJ@?$AAS?$AAa?$AAt?$AAu?$AAr?$AAd?$AAa?$AAy?$AA?$AA@ 000000018004fe10     libucrt:nlsdata.obj
 0002:00009e28       ??_C@_17DKNBKCHM@?$AAJ?$AAa?$AAn?$AA?$AA@ 000000018004fe28     libucrt:nlsdata.obj
 0002:00009e30       ??_C@_17LMDJEKJN@?$AAF?$AAe?$AAb?$AA?$AA@ 000000018004fe30     libucrt:nlsdata.obj
 0002:00009e38       ??_C@_17CKNLEDEC@?$AAM?$AAa?$AAr?$AA?$AA@ 000000018004fe38     libucrt:nlsdata.obj
 0002:00009e40       ??_C@_17LFPOIHDD@?$AAA?$AAp?$AAr?$AA?$AA@ 000000018004fe40     libucrt:nlsdata.obj
 0002:00009e48       ??_C@_17PNNKMEED@?$AAM?$AAa?$AAy?$AA?$AA@ 000000018004fe48     libucrt:nlsdata.obj
 0002:00009e50       ??_C@_17KCJGOCPB@?$AAJ?$AAu?$AAn?$AA?$AA@ 000000018004fe50     libucrt:nlsdata.obj
 0002:00009e58       ??_C@_17IJPCKHK@?$AAJ?$AAu?$AAl?$AA?$AA@ 000000018004fe58     libucrt:nlsdata.obj
 0002:00009e60       ??_C@_17ICPELBCN@?$AAA?$AAu?$AAg?$AA?$AA@ 000000018004fe60     libucrt:nlsdata.obj
 0002:00009e68       ??_C@_17HCHCOKMG@?$AAS?$AAe?$AAp?$AA?$AA@ 000000018004fe68     libucrt:nlsdata.obj
 0002:00009e70       ??_C@_17FNLKOI@?$AAO?$AAc?$AAt?$AA?$AA@ 000000018004fe70     libucrt:nlsdata.obj
 0002:00009e78       ??_C@_17BBDMLCIG@?$AAN?$AAo?$AAv?$AA?$AA@ 000000018004fe78     libucrt:nlsdata.obj
 0002:00009e80       ??_C@_17EGKACKIF@?$AAD?$AAe?$AAc?$AA?$AA@ 000000018004fe80     libucrt:nlsdata.obj
 0002:00009e88       ??_C@_1BA@EFMEIEBA@?$AAJ?$AAa?$AAn?$AAu?$AAa?$AAr?$AAy?$AA?$AA@ 000000018004fe88     libucrt:nlsdata.obj
 0002:00009e98       ??_C@_1BC@JGDDFFAM@?$AAF?$AAe?$AAb?$AAr?$AAu?$AAa?$AAr?$AAy?$AA?$AA@ 000000018004fe98     libucrt:nlsdata.obj
 0002:00009eb0       ??_C@_1M@IKEENEDF@?$AAM?$AAa?$AAr?$AAc?$AAh?$AA?$AA@ 000000018004feb0     libucrt:nlsdata.obj
 0002:00009ec0       ??_C@_1M@GJNLMHFD@?$AAA?$AAp?$AAr?$AAi?$AAl?$AA?$AA@ 000000018004fec0     libucrt:nlsdata.obj
 0002:00009ed0       ??_C@_19EPFLPGAP@?$AAJ?$AAu?$AAn?$AAe?$AA?$AA@ 000000018004fed0     libucrt:nlsdata.obj
 0002:00009ee0       ??_C@_19BIFMLPCD@?$AAJ?$AAu?$AAl?$AAy?$AA?$AA@ 000000018004fee0     libucrt:nlsdata.obj
 0002:00009ef0       ??_C@_1O@PAHLKOAC@?$AAA?$AAu?$AAg?$AAu?$AAs?$AAt?$AA?$AA@ 000000018004fef0     libucrt:nlsdata.obj
 0002:00009f00       ??_C@_1BE@DKAAMBJL@?$AAS?$AAe?$AAp?$AAt?$AAe?$AAm?$AAb?$AAe?$AAr?$AA?$AA@ 000000018004ff00     libucrt:nlsdata.obj
 0002:00009f18       ??_C@_1BA@EPANDLNG@?$AAO?$AAc?$AAt?$AAo?$AAb?$AAe?$AAr?$AA?$AA@ 000000018004ff18     libucrt:nlsdata.obj
 0002:00009f28       ??_C@_1BC@BGLIFPF@?$AAN?$AAo?$AAv?$AAe?$AAm?$AAb?$AAe?$AAr?$AA?$AA@ 000000018004ff28     libucrt:nlsdata.obj
 0002:00009f40       ??_C@_1BC@FEMKIFH@?$AAD?$AAe?$AAc?$AAe?$AAm?$AAb?$AAe?$AAr?$AA?$AA@ 000000018004ff40     libucrt:nlsdata.obj
 0002:00009f54       ??_C@_15ODEHAHHF@?$AAA?$AAM?$AA?$AA@ 000000018004ff54     libucrt:nlsdata.obj
 0002:00009f5c       ??_C@_15CLMNNGEL@?$AAP?$AAM?$AA?$AA@ 000000018004ff5c     libucrt:nlsdata.obj
 0002:00009f68       ??_C@_1BC@IEBCMHCM@?$AAM?$AAM?$AA?1?$AAd?$AAd?$AA?1?$AAy?$AAy?$AA?$AA@ 000000018004ff68     libucrt:nlsdata.obj
 0002:00009f80       ??_C@_1CI@KNAKOEBC@?$AAd?$AAd?$AAd?$AAd?$AA?0?$AA?5?$AAM?$AAM?$AAM?$AAM?$AA?5?$AAd?$AAd?$AA?0?$AA?5?$AAy?$AAy?$AAy?$AAy?$AA?$AA@ 000000018004ff80     libucrt:nlsdata.obj
 0002:00009fa8       ??_C@_1BC@GDGBMEMK@?$AAH?$AAH?$AA?3?$AAm?$AAm?$AA?3?$AAs?$AAs?$AA?$AA@ 000000018004ffa8     libucrt:nlsdata.obj
 0002:00009fbc       ?ccs@?BL@???$__acrt_stdio_parse_mode@D@@YA?AU__acrt_stdio_stream_mode@@QEBD@Z@4QBDB 000000018004ffbc     libucrt:openfile.obj
 0002:00009fc0       ?utf8_encoding@?BL@???$__acrt_stdio_parse_mode@D@@YA?AU__acrt_stdio_stream_mode@@QEBD@Z@4QBDB 000000018004ffc0     libucrt:openfile.obj
 0002:00009fc8       ?utf16_encoding@?BL@???$__acrt_stdio_parse_mode@D@@YA?AU__acrt_stdio_stream_mode@@QEBD@Z@4QBDB 000000018004ffc8     libucrt:openfile.obj
 0002:00009fd0       ?unicode_encoding@?BL@???$__acrt_stdio_parse_mode@D@@YA?AU__acrt_stdio_stream_mode@@QEBD@Z@4QBDB 000000018004ffd0     libucrt:openfile.obj
 0002:00009fd8       ??_C@_03JGHBODFD@pow?$AA@  000000018004ffd8     libucrt:fpexcept.obj
 0002:00009fdc       ??_C@_03MGHMBJCF@log?$AA@  000000018004ffdc     libucrt:fpexcept.obj
 0002:00009fe0       ??_C@_05HGHHAHAP@log10?$AA@ 000000018004ffe0     libucrt:fpexcept.obj
 0002:00009ff0       __log_256_lead             000000018004fff0     libucrt:log_256_lead_tail_table.obj
 0002:0000a800       __log_256_tail             0000000180050800     libucrt:log_256_lead_tail_table.obj
 0002:0000b010       __two_to_jby64_head_table  0000000180051010     libucrt:two_to_jby64_head_tail_table.obj
 0002:0000b210       __two_to_jby64_tail_table  0000000180051210     libucrt:two_to_jby64_head_tail_table.obj
 0002:0000b410       ??_C@_04MBFDLNIM@powf?$AA@ 0000000180051410     libucrt:pow_special.obj
 0002:0000b420       __two_to_jby64_table       0000000180051420     libucrt:two_to_jby64_table.obj
 0002:0000b620       __log_F_inv_qword          0000000180051620     libucrt:log_f_inv_qword_table.obj
 0002:0000dad0       ??_C@_01GBGANLPD@0?$AA@    0000000180053ad0     libucrt:cfout.obj
 0002:0000dad4       ??_C@_05DNEBIAHO@1?$CDINF?$AA@ 0000000180053ad4     libucrt:cfout.obj
 0002:0000dadc       ??_C@_06IMKFLFPG@1?$CDQNAN?$AA@ 0000000180053adc     libucrt:cfout.obj
 0002:0000dae4       ??_C@_06PGGFOGJG@1?$CDSNAN?$AA@ 0000000180053ae4     libucrt:cfout.obj
 0002:0000daec       ??_C@_05PHHOCPM@1?$CDIND?$AA@ 0000000180053aec     libucrt:cfout.obj
 0002:0000db00       __acrt_rg_language         0000000180053b00     libucrt:get_qualified_locale.obj
 0002:0000df10       __acrt_rg_language_count   0000000180053f10     libucrt:get_qualified_locale.obj
 0002:0000df20       __acrt_rg_country          0000000180053f20     libucrt:get_qualified_locale.obj
 0002:0000e090       __acrt_rg_country_count    0000000180054090     libucrt:get_qualified_locale.obj
 0002:0000e098       ??_C@_1BC@LLOKLNP@?$AAa?$AAm?$AAe?$AAr?$AAi?$AAc?$AAa?$AAn?$AA?$AA@ 0000000180054098     libucrt:get_qualified_locale.obj
 0002:0000e0b0       ??_C@_1CC@HEIGCDGG@?$AAa?$AAm?$AAe?$AAr?$AAi?$AAc?$AAa?$AAn?$AA?5?$AAe?$AAn?$AAg?$AAl?$AAi?$AAs?$AAh?$AA?$AA@ 00000001800540b0     libucrt:get_qualified_locale.obj
 0002:0000e0d8       ??_C@_1CC@IHCNOMIN@?$AAa?$AAm?$AAe?$AAr?$AAi?$AAc?$AAa?$AAn?$AA?9?$AAe?$AAn?$AAg?$AAl?$AAi?$AAs?$AAh?$AA?$AA@ 00000001800540d8     libucrt:get_qualified_locale.obj
 0002:0000e100       ??_C@_1BG@GKAGPCGG@?$AAa?$AAu?$AAs?$AAt?$AAr?$AAa?$AAl?$AAi?$AAa?$AAn?$AA?$AA@ 0000000180054100     libucrt:get_qualified_locale.obj
 0002:0000e118       ??_C@_1BA@GMENCENF@?$AAb?$AAe?$AAl?$AAg?$AAi?$AAa?$AAn?$AA?$AA@ 0000000180054118     libucrt:get_qualified_locale.obj
 0002:0000e128       ??_C@_1BC@PJMIIAAN@?$AAc?$AAa?$AAn?$AAa?$AAd?$AAi?$AAa?$AAn?$AA?$AA@ 0000000180054128     libucrt:get_qualified_locale.obj
 0002:0000e140       ??_C@_17NOIMNFBF@?$AAc?$AAh?$AAh?$AA?$AA@ 0000000180054140     libucrt:get_qualified_locale.obj
 0002:0000e148       ??_C@_17GGDALCHA@?$AAc?$AAh?$AAi?$AA?$AA@ 0000000180054148     libucrt:get_qualified_locale.obj
 0002:0000e150       ??_C@_1BA@NPNJKIBL@?$AAc?$AAh?$AAi?$AAn?$AAe?$AAs?$AAe?$AA?$AA@ 0000000180054150     libucrt:get_qualified_locale.obj
 0002:0000e160       ??_C@_1CC@DINBAMMJ@?$AAc?$AAh?$AAi?$AAn?$AAe?$AAs?$AAe?$AA?9?$AAh?$AAo?$AAn?$AAg?$AAk?$AAo?$AAn?$AAg?$AA?$AA@ 0000000180054160     libucrt:get_qualified_locale.obj
 0002:0000e188       ??_C@_1CG@IOBJPACO@?$AAc?$AAh?$AAi?$AAn?$AAe?$AAs?$AAe?$AA?9?$AAs?$AAi?$AAm?$AAp?$AAl?$AAi?$AAf?$AAi?$AAe?$AAd?$AA?$AA@ 0000000180054188     libucrt:get_qualified_locale.obj
 0002:0000e1b0       ??_C@_1CE@GAJNDCKG@?$AAc?$AAh?$AAi?$AAn?$AAe?$AAs?$AAe?$AA?9?$AAs?$AAi?$AAn?$AAg?$AAa?$AAp?$AAo?$AAr?$AAe?$AA?$AA@ 00000001800541b0     libucrt:get_qualified_locale.obj
 0002:0000e1d8       ??_C@_1CI@PAJPIOOD@?$AAc?$AAh?$AAi?$AAn?$AAe?$AAs?$AAe?$AA?9?$AAt?$AAr?$AAa?$AAd?$AAi?$AAt?$AAi?$AAo?$AAn?$AAa?$AAl?$AA?$AA@ 00000001800541d8     libucrt:get_qualified_locale.obj
 0002:0000e200       ??_C@_1BM@NILJBMMD@?$AAd?$AAu?$AAt?$AAc?$AAh?$AA?9?$AAb?$AAe?$AAl?$AAg?$AAi?$AAa?$AAn?$AA?$AA@ 0000000180054200     libucrt:get_qualified_locale.obj
 0002:0000e220       ??_C@_1CC@OOJPJNEJ@?$AAe?$AAn?$AAg?$AAl?$AAi?$AAs?$AAh?$AA?9?$AAa?$AAm?$AAe?$AAr?$AAi?$AAc?$AAa?$AAn?$AA?$AA@ 0000000180054220     libucrt:get_qualified_locale.obj
 0002:0000e248       ??_C@_1BI@IOLFEEM@?$AAe?$AAn?$AAg?$AAl?$AAi?$AAs?$AAh?$AA?9?$AAa?$AAu?$AAs?$AA?$AA@ 0000000180054248     libucrt:get_qualified_locale.obj
 0002:0000e260       ??_C@_1BO@HFFNLENJ@?$AAe?$AAn?$AAg?$AAl?$AAi?$AAs?$AAh?$AA?9?$AAb?$AAe?$AAl?$AAi?$AAz?$AAe?$AA?$AA@ 0000000180054260     libucrt:get_qualified_locale.obj
 0002:0000e280       ??_C@_1BI@HAPKJMPO@?$AAe?$AAn?$AAg?$AAl?$AAi?$AAs?$AAh?$AA?9?$AAc?$AAa?$AAn?$AA?$AA@ 0000000180054280     libucrt:get_qualified_locale.obj
 0002:0000e298       ??_C@_1CE@HLNDMIOJ@?$AAe?$AAn?$AAg?$AAl?$AAi?$AAs?$AAh?$AA?9?$AAc?$AAa?$AAr?$AAi?$AAb?$AAb?$AAe?$AAa?$AAn?$AA?$AA@ 0000000180054298     libucrt:get_qualified_locale.obj
 0002:0000e2c0       ??_C@_1BI@LDHJHHAC@?$AAe?$AAn?$AAg?$AAl?$AAi?$AAs?$AAh?$AA?9?$AAi?$AAr?$AAe?$AA?$AA@ 00000001800542c0     libucrt:get_qualified_locale.obj
 0002:0000e2d8       ??_C@_1CA@NJMMCFOC@?$AAe?$AAn?$AAg?$AAl?$AAi?$AAs?$AAh?$AA?9?$AAj?$AAa?$AAm?$AAa?$AAi?$AAc?$AAa?$AA?$AA@ 00000001800542d8     libucrt:get_qualified_locale.obj
 0002:0000e2f8       ??_C@_1BG@BHJEBBGG@?$AAe?$AAn?$AAg?$AAl?$AAi?$AAs?$AAh?$AA?9?$AAn?$AAz?$AA?$AA@ 00000001800542f8     libucrt:get_qualified_locale.obj
 0002:0000e310       ??_C@_1CK@FGOEJJCO@?$AAe?$AAn?$AAg?$AAl?$AAi?$AAs?$AAh?$AA?9?$AAs?$AAo?$AAu?$AAt?$AAh?$AA?5?$AAa?$AAf?$AAr?$AAi?$AAc?$AAa?$AA?$AA@ 0000000180054310     libucrt:get_qualified_locale.obj
 0002:0000e340       ??_C@_1DE@PDBJPCJ@?$AAe?$AAn?$AAg?$AAl?$AAi?$AAs?$AAh?$AA?9?$AAt?$AAr?$AAi?$AAn?$AAi?$AAd?$AAa?$AAd?$AA?5?$AAy?$AA?5?$AAt?$AAo?$AAb?$AAa?$AAg?$AAo?$AA?$AA@ 0000000180054340     libucrt:get_qualified_locale.obj
 0002:0000e378       ??_C@_1BG@JGCANDME@?$AAe?$AAn?$AAg?$AAl?$AAi?$AAs?$AAh?$AA?9?$AAu?$AAk?$AA?$AA@ 0000000180054378     libucrt:get_qualified_locale.obj
 0002:0000e390       ??_C@_1BG@DINKMLE@?$AAe?$AAn?$AAg?$AAl?$AAi?$AAs?$AAh?$AA?9?$AAu?$AAs?$AA?$AA@ 0000000180054390     libucrt:get_qualified_locale.obj
 0002:0000e3a8       ??_C@_1BI@NMFDBHJE@?$AAe?$AAn?$AAg?$AAl?$AAi?$AAs?$AAh?$AA?9?$AAu?$AAs?$AAa?$AA?$AA@ 00000001800543a8     libucrt:get_qualified_locale.obj
 0002:0000e3c0       ??_C@_1BO@OIHKJKII@?$AAf?$AAr?$AAe?$AAn?$AAc?$AAh?$AA?9?$AAb?$AAe?$AAl?$AAg?$AAi?$AAa?$AAn?$AA?$AA@ 00000001800543c0     libucrt:get_qualified_locale.obj
 0002:0000e3e0       ??_C@_1CA@NKAELJKI@?$AAf?$AAr?$AAe?$AAn?$AAc?$AAh?$AA?9?$AAc?$AAa?$AAn?$AAa?$AAd?$AAi?$AAa?$AAn?$AA?$AA@ 00000001800543e0     libucrt:get_qualified_locale.obj
 0002:0000e400       ??_C@_1CE@MGKCNLGN@?$AAf?$AAr?$AAe?$AAn?$AAc?$AAh?$AA?9?$AAl?$AAu?$AAx?$AAe?$AAm?$AAb?$AAo?$AAu?$AAr?$AAg?$AA?$AA@ 0000000180054400     libucrt:get_qualified_locale.obj
 0002:0000e428       ??_C@_1BK@CEGEAILM@?$AAf?$AAr?$AAe?$AAn?$AAc?$AAh?$AA?9?$AAs?$AAw?$AAi?$AAs?$AAs?$AA?$AA@ 0000000180054428     libucrt:get_qualified_locale.obj
 0002:0000e448       ??_C@_1CA@PAFKEOCC@?$AAg?$AAe?$AAr?$AAm?$AAa?$AAn?$AA?9?$AAa?$AAu?$AAs?$AAt?$AAr?$AAi?$AAa?$AAn?$AA?$AA@ 0000000180054448     libucrt:get_qualified_locale.obj
 0002:0000e468       ??_C@_1CI@HCFHGOFD@?$AAg?$AAe?$AAr?$AAm?$AAa?$AAn?$AA?9?$AAl?$AAi?$AAc?$AAh?$AAt?$AAe?$AAn?$AAs?$AAt?$AAe?$AAi?$AAn?$AA?$AA@ 0000000180054468     libucrt:get_qualified_locale.obj
 0002:0000e490       ??_C@_1CE@FEDDNPDG@?$AAg?$AAe?$AAr?$AAm?$AAa?$AAn?$AA?9?$AAl?$AAu?$AAx?$AAe?$AAm?$AAb?$AAo?$AAu?$AAr?$AAg?$AA?$AA@ 0000000180054490     libucrt:get_qualified_locale.obj
 0002:0000e4b8       ??_C@_1BK@LIMINNMN@?$AAg?$AAe?$AAr?$AAm?$AAa?$AAn?$AA?9?$AAs?$AAw?$AAi?$AAs?$AAs?$AA?$AA@ 00000001800544b8     libucrt:get_qualified_locale.obj
 0002:0000e4d8       ??_C@_1BM@LGMDBEPD@?$AAi?$AAr?$AAi?$AAs?$AAh?$AA?9?$AAe?$AAn?$AAg?$AAl?$AAi?$AAs?$AAh?$AA?$AA@ 00000001800544d8     libucrt:get_qualified_locale.obj
 0002:0000e4f8       ??_C@_1BM@NNCFBAEE@?$AAi?$AAt?$AAa?$AAl?$AAi?$AAa?$AAn?$AA?9?$AAs?$AAw?$AAi?$AAs?$AAs?$AA?$AA@ 00000001800544f8     libucrt:get_qualified_locale.obj
 0002:0000e518       ??_C@_1BE@FEDJNPIB@?$AAn?$AAo?$AAr?$AAw?$AAe?$AAg?$AAi?$AAa?$AAn?$AA?$AA@ 0000000180054518     libucrt:get_qualified_locale.obj
 0002:0000e530       ??_C@_1CC@CILKDEIE@?$AAn?$AAo?$AAr?$AAw?$AAe?$AAg?$AAi?$AAa?$AAn?$AA?9?$AAb?$AAo?$AAk?$AAm?$AAa?$AAl?$AA?$AA@ 0000000180054530     libucrt:get_qualified_locale.obj
 0002:0000e558       ??_C@_1CE@DHMMHEPL@?$AAn?$AAo?$AAr?$AAw?$AAe?$AAg?$AAi?$AAa?$AAn?$AA?9?$AAn?$AAy?$AAn?$AAo?$AAr?$AAs?$AAk?$AA?$AA@ 0000000180054558     libucrt:get_qualified_locale.obj
 0002:0000e580       ??_C@_1CK@OPNMHECD@?$AAp?$AAo?$AAr?$AAt?$AAu?$AAg?$AAu?$AAe?$AAs?$AAe?$AA?9?$AAb?$AAr?$AAa?$AAz?$AAi?$AAl?$AAi?$AAa?$AAn?$AA?$AA@ 0000000180054580     libucrt:get_qualified_locale.obj
 0002:0000e5b0       ??_C@_1CE@KEEHCDB@?$AAs?$AAp?$AAa?$AAn?$AAi?$AAs?$AAh?$AA?9?$AAa?$AAr?$AAg?$AAe?$AAn?$AAt?$AAi?$AAn?$AAa?$AA?$AA@ 00000001800545b0     libucrt:get_qualified_locale.obj
 0002:0000e5d8       ??_C@_1CA@GIAOLHJD@?$AAs?$AAp?$AAa?$AAn?$AAi?$AAs?$AAh?$AA?9?$AAb?$AAo?$AAl?$AAi?$AAv?$AAi?$AAa?$AA?$AA@ 00000001800545d8     libucrt:get_qualified_locale.obj
 0002:0000e5f8       ??_C@_1BM@OJNDFNPD@?$AAs?$AAp?$AAa?$AAn?$AAi?$AAs?$AAh?$AA?9?$AAc?$AAh?$AAi?$AAl?$AAe?$AA?$AA@ 00000001800545f8     libucrt:get_qualified_locale.obj
 0002:0000e618       ??_C@_1CC@OCOLPALL@?$AAs?$AAp?$AAa?$AAn?$AAi?$AAs?$AAh?$AA?9?$AAc?$AAo?$AAl?$AAo?$AAm?$AAb?$AAi?$AAa?$AA?$AA@ 0000000180054618     libucrt:get_qualified_locale.obj
 0002:0000e640       ??_C@_1CG@BPOFMKBB@?$AAs?$AAp?$AAa?$AAn?$AAi?$AAs?$AAh?$AA?9?$AAc?$AAo?$AAs?$AAt?$AAa?$AA?5?$AAr?$AAi?$AAc?$AAa?$AA?$AA@ 0000000180054640     libucrt:get_qualified_locale.obj
 0002:0000e668       ??_C@_1DG@IGOBAPBB@?$AAs?$AAp?$AAa?$AAn?$AAi?$AAs?$AAh?$AA?9?$AAd?$AAo?$AAm?$AAi?$AAn?$AAi?$AAc?$AAa?$AAn?$AA?5?$AAr?$AAe?$AAp?$AAu?$AAb?$AAl?$AAi?$AAc?$AA?$AA@ 0000000180054668     libucrt:get_qualified_locale.obj
 0002:0000e6a0       ??_C@_1CA@JHAPGEGI@?$AAs?$AAp?$AAa?$AAn?$AAi?$AAs?$AAh?$AA?9?$AAe?$AAc?$AAu?$AAa?$AAd?$AAo?$AAr?$AA?$AA@ 00000001800546a0     libucrt:get_qualified_locale.obj
 0002:0000e6c0       ??_C@_1CI@LAPALJPP@?$AAs?$AAp?$AAa?$AAn?$AAi?$AAs?$AAh?$AA?9?$AAe?$AAl?$AA?5?$AAs?$AAa?$AAl?$AAv?$AAa?$AAd?$AAo?$AAr?$AA?$AA@ 00000001800546c0     libucrt:get_qualified_locale.obj
 0002:0000e6e8       ??_C@_1CE@PDGBOFOM@?$AAs?$AAp?$AAa?$AAn?$AAi?$AAs?$AAh?$AA?9?$AAg?$AAu?$AAa?$AAt?$AAe?$AAm?$AAa?$AAl?$AAa?$AA?$AA@ 00000001800546e8     libucrt:get_qualified_locale.obj
 0002:0000e710       ??_C@_1CC@NBEBAODI@?$AAs?$AAp?$AAa?$AAn?$AAi?$AAs?$AAh?$AA?9?$AAh?$AAo?$AAn?$AAd?$AAu?$AAr?$AAa?$AAs?$AA?$AA@ 0000000180054710     libucrt:get_qualified_locale.obj
 0002:0000e738       ??_C@_1CA@LLKGHBMF@?$AAs?$AAp?$AAa?$AAn?$AAi?$AAs?$AAh?$AA?9?$AAm?$AAe?$AAx?$AAi?$AAc?$AAa?$AAn?$AA?$AA@ 0000000180054738     libucrt:get_qualified_locale.obj
 0002:0000e758       ??_C@_1BO@LKNDOIGD@?$AAs?$AAp?$AAa?$AAn?$AAi?$AAs?$AAh?$AA?9?$AAm?$AAo?$AAd?$AAe?$AAr?$AAn?$AA?$AA@ 0000000180054758     libucrt:get_qualified_locale.obj
 0002:0000e778       ??_C@_1CE@NMDMOEEB@?$AAs?$AAp?$AAa?$AAn?$AAi?$AAs?$AAh?$AA?9?$AAn?$AAi?$AAc?$AAa?$AAr?$AAa?$AAg?$AAu?$AAa?$AA?$AA@ 0000000180054778     libucrt:get_qualified_locale.obj
 0002:0000e7a0       ??_C@_1BO@LLCBEJGB@?$AAs?$AAp?$AAa?$AAn?$AAi?$AAs?$AAh?$AA?9?$AAp?$AAa?$AAn?$AAa?$AAm?$AAa?$AA?$AA@ 00000001800547a0     libucrt:get_qualified_locale.obj
 0002:0000e7c0       ??_C@_1CC@FKPGGIHO@?$AAs?$AAp?$AAa?$AAn?$AAi?$AAs?$AAh?$AA?9?$AAp?$AAa?$AAr?$AAa?$AAg?$AAu?$AAa?$AAy?$AA?$AA@ 00000001800547c0     libucrt:get_qualified_locale.obj
 0002:0000e7e8       ??_C@_1BK@CDEIHOOP@?$AAs?$AAp?$AAa?$AAn?$AAi?$AAs?$AAh?$AA?9?$AAp?$AAe?$AAr?$AAu?$AA?$AA@ 00000001800547e8     libucrt:get_qualified_locale.obj
 0002:0000e808       ??_C@_1CI@GAHAKKGP@?$AAs?$AAp?$AAa?$AAn?$AAi?$AAs?$AAh?$AA?9?$AAp?$AAu?$AAe?$AAr?$AAt?$AAo?$AA?5?$AAr?$AAi?$AAc?$AAo?$AA?$AA@ 0000000180054808     libucrt:get_qualified_locale.obj
 0002:0000e830       ??_C@_1CA@NKJBCAGP@?$AAs?$AAp?$AAa?$AAn?$AAi?$AAs?$AAh?$AA?9?$AAu?$AAr?$AAu?$AAg?$AAu?$AAa?$AAy?$AA?$AA@ 0000000180054830     libucrt:get_qualified_locale.obj
 0002:0000e850       ??_C@_1CE@ODILCONM@?$AAs?$AAp?$AAa?$AAn?$AAi?$AAs?$AAh?$AA?9?$AAv?$AAe?$AAn?$AAe?$AAz?$AAu?$AAe?$AAl?$AAa?$AA?$AA@ 0000000180054850     libucrt:get_qualified_locale.obj
 0002:0000e878       ??_C@_1CA@OBNMCGFO@?$AAs?$AAw?$AAe?$AAd?$AAi?$AAs?$AAh?$AA?9?$AAf?$AAi?$AAn?$AAl?$AAa?$AAn?$AAd?$AA?$AA@ 0000000180054878     libucrt:get_qualified_locale.obj
 0002:0000e898       ??_C@_1M@PIPDDPPI@?$AAs?$AAw?$AAi?$AAs?$AAs?$AA?$AA@ 0000000180054898     libucrt:get_qualified_locale.obj
 0002:0000e8a4       ??_C@_15GMFIMNFM@?$AAu?$AAs?$AA?$AA@ 00000001800548a4     libucrt:get_qualified_locale.obj
 0002:0000e8b0       ??_C@_17HAEBFAGL@?$AAu?$AAs?$AAa?$AA?$AA@ 00000001800548b0     libucrt:get_qualified_locale.obj
 0002:0000e8b8       ??_C@_1BA@DPFJEPHB@?$AAa?$AAm?$AAe?$AAr?$AAi?$AAc?$AAa?$AA?$AA@ 00000001800548b8     libucrt:get_qualified_locale.obj
 0002:0000e8c8       ??_C@_1BA@ELOGGFK@?$AAb?$AAr?$AAi?$AAt?$AAa?$AAi?$AAn?$AA?$AA@ 00000001800548c8     libucrt:get_qualified_locale.obj
 0002:0000e8d8       ??_C@_1M@GHBGIGDA@?$AAc?$AAh?$AAi?$AAn?$AAa?$AA?$AA@ 00000001800548d8     libucrt:get_qualified_locale.obj
 0002:0000e8e8       ??_C@_1M@NCHEJOPO@?$AAc?$AAz?$AAe?$AAc?$AAh?$AA?$AA@ 00000001800548e8     libucrt:get_qualified_locale.obj
 0002:0000e8f8       ??_C@_1BA@BKPAPBLA@?$AAe?$AAn?$AAg?$AAl?$AAa?$AAn?$AAd?$AA?$AA@ 00000001800548f8     libucrt:get_qualified_locale.obj
 0002:0000e908       ??_C@_1BM@HKBCKIPC@?$AAg?$AAr?$AAe?$AAa?$AAt?$AA?5?$AAb?$AAr?$AAi?$AAt?$AAa?$AAi?$AAn?$AA?$AA@ 0000000180054908     libucrt:get_qualified_locale.obj
 0002:0000e928       ??_C@_1BA@PPCHPGJB@?$AAh?$AAo?$AAl?$AAl?$AAa?$AAn?$AAd?$AA?$AA@ 0000000180054928     libucrt:get_qualified_locale.obj
 0002:0000e938       ??_C@_1BE@JBMPEGDG@?$AAh?$AAo?$AAn?$AAg?$AA?9?$AAk?$AAo?$AAn?$AAg?$AA?$AA@ 0000000180054938     libucrt:get_qualified_locale.obj
 0002:0000e950       ??_C@_1BI@KOELBBPJ@?$AAn?$AAe?$AAw?$AA?9?$AAz?$AAe?$AAa?$AAl?$AAa?$AAn?$AAd?$AA?$AA@ 0000000180054950     libucrt:get_qualified_locale.obj
 0002:0000e968       ??_C@_15HIEBHAIO@?$AAn?$AAz?$AA?$AA@ 0000000180054968     libucrt:get_qualified_locale.obj
 0002:0000e970       ??_C@_1BC@CHBCPFPI@?$AAp?$AAr?$AA?5?$AAc?$AAh?$AAi?$AAn?$AAa?$AA?$AA@ 0000000180054970     libucrt:get_qualified_locale.obj
 0002:0000e988       ??_C@_1BC@JAOIIFKD@?$AAp?$AAr?$AA?9?$AAc?$AAh?$AAi?$AAn?$AAa?$AA?$AA@ 0000000180054988     libucrt:get_qualified_locale.obj
 0002:0000e9a0       ??_C@_1BI@BEHPPHKC@?$AAp?$AAu?$AAe?$AAr?$AAt?$AAo?$AA?9?$AAr?$AAi?$AAc?$AAo?$AA?$AA@ 00000001800549a0     libucrt:get_qualified_locale.obj
 0002:0000e9b8       ??_C@_1O@PAEOFKDI@?$AAs?$AAl?$AAo?$AAv?$AAa?$AAk?$AA?$AA@ 00000001800549b8     libucrt:get_qualified_locale.obj
 0002:0000e9c8       ??_C@_1BK@FIHMCKAM@?$AAs?$AAo?$AAu?$AAt?$AAh?$AA?5?$AAa?$AAf?$AAr?$AAi?$AAc?$AAa?$AA?$AA@ 00000001800549c8     libucrt:get_qualified_locale.obj
 0002:0000e9e8       ??_C@_1BI@NAEOODKB@?$AAs?$AAo?$AAu?$AAt?$AAh?$AA?5?$AAk?$AAo?$AAr?$AAe?$AAa?$AA?$AA@ 00000001800549e8     libucrt:get_qualified_locale.obj
 0002:0000ea00       ??_C@_1BK@FBDGGIFF@?$AAs?$AAo?$AAu?$AAt?$AAh?$AA?9?$AAa?$AAf?$AAr?$AAi?$AAc?$AAa?$AA?$AA@ 0000000180054a00     libucrt:get_qualified_locale.obj
 0002:0000ea20       ??_C@_1BI@GHLEJDPK@?$AAs?$AAo?$AAu?$AAt?$AAh?$AA?9?$AAk?$AAo?$AAr?$AAe?$AAa?$AA?$AA@ 0000000180054a20     libucrt:get_qualified_locale.obj
 0002:0000ea38       ??_C@_1CE@PLHLOMJF@?$AAt?$AAr?$AAi?$AAn?$AAi?$AAd?$AAa?$AAd?$AA?5?$AA?$CG?$AA?5?$AAt?$AAo?$AAb?$AAa?$AAg?$AAo?$AA?$AA@ 0000000180054a38     libucrt:get_qualified_locale.obj
 0002:0000ea60       ??_C@_1BO@MODIMHHI@?$AAu?$AAn?$AAi?$AAt?$AAe?$AAd?$AA?9?$AAk?$AAi?$AAn?$AAg?$AAd?$AAo?$AAm?$AA?$AA@ 0000000180054a60     libucrt:get_qualified_locale.obj
 0002:0000ea80       ??_C@_1BM@FFHJONBJ@?$AAu?$AAn?$AAi?$AAt?$AAe?$AAd?$AA?9?$AAs?$AAt?$AAa?$AAt?$AAe?$AAs?$AA?$AA@ 0000000180054a80     libucrt:get_qualified_locale.obj
 0002:0000eaa0       ??_C@_17DNCLJFIF@?$AAA?$AAC?$AAP?$AA?$AA@ 0000000180054aa0     libucrt:get_qualified_locale.obj
 0002:0000eaa8       ??_C@_17CIKBIHLH@?$AAO?$AAC?$AAP?$AA?$AA@ 0000000180054aa8     libucrt:get_qualified_locale.obj
 0002:0000eab0       __rglangidNotDefault       0000000180054ab0     libucrt:getqloc_downlevel.obj
 0002:0000ed30       ??_C@_1BA@BALFACEM@?$AAC?$AAO?$AAN?$AAO?$AAU?$AAT?$AA$?$AA?$AA@ 0000000180054d30     libucrt:initcon.obj
 0002:0000ed40       __log10_256_lead           0000000180054d40     libucrt:log10_256_lead_tail_table.obj
 0002:0000f550       __log10_256_tail           0000000180055550     libucrt:log10_256_lead_tail_table.obj
 0002:0000fd58       ??_C@_1BK@DBDEIDLH@?$AAK?$AAE?$AAR?$AAN?$AAE?$AAL?$AA3?$AA2?$AA?4?$AAD?$AAL?$AAL?$AA?$AA@ 0000000180055d58     DelayImp:delayhlp.obj
 0002:0000fd78       __pfnDliFailureHook2       0000000180055d78     DelayImp:delayhk1.obj
 0002:0000fd80       _load_config_used          0000000180055d80     LIBCMT:loadcfg.obj
 0002:0000fe18       ??_C@_0BA@JFNIOLAK@string?5too?5long?$AA@ 0000000180055e18     zopfli-binding.obj
 0002:0000fe30       ??_C@_1HC@DCCKAJJB@?$AAC?$AA?3?$AA?2?$AAc?$AAo?$AAd?$AAe?$AAb?$AAa?$AAs?$AAe?$AA?2?$AAt?$AAe?$AAs?$AAt?$AA?2?$AAn?$AAo?$AAd?$AAe?$AA?2?$AAy?$AAe?$AAo?$AAm?$AAa?$AAn?$AA_?$AAt?$AAe?$AAs@ 0000000180055e30     zopfli-binding.obj
 0002:0000feb0       ??_C@_1FM@LOELJOFK@?$AAs?$AAi?$AAz?$AAe?$AA?5?$AA?$DM?$AA?$DN?$AA?5?$AAi?$AAm?$AAp?$AA?3?$AA?3?$AAk?$AAM?$AAa?$AAx?$AAL?$AAe?$AAn?$AAg?$AAt?$AAh?$AA?5?$AA?$CG?$AA?$CG?$AA?5?$AA?$CC?$AAt?$AAo?$AAo?$AA?5@ 0000000180055eb0     zopfli-binding.obj
 0002:0000ff10       ??_C@_1BO@OPFMAOCA@?$AAl?$AAe?$AAn?$AA?5?$AA?$DM?$AA?$DN?$AA?5?$AAI?$AAN?$AAT?$AA_?$AAM?$AAA?$AAX?$AA?$AA@ 0000000180055f10     zopfli-binding.obj
 0002:0000ff30       ??_C@_1BE@CKDJNAPC@?$AAs?$AAt?$AAr?$AA_?$AA?5?$AA?$CB?$AA?$DN?$AA?5?$AA0?$AA?$AA@ 0000000180055f30     zopfli-binding.obj
 0002:0000ff48       ??_C@_0CA@LFHFNPL@First?5argument?5must?5be?5a?5buffer?$AA@ 0000000180055f48     zopfli-binding.obj
 0002:0000ff68       ??_C@_04HOHEGKBO@gzip?$AA@ 0000000180055f68     zopfli-binding.obj
 0002:0000ff70       ??_C@_04OLICEBLN@zlib?$AA@ 0000000180055f70     zopfli-binding.obj
 0002:0000ff78       ??_C@_07FNHFFEJG@deflate?$AA@ 0000000180055f78     zopfli-binding.obj
 0002:0000ff80       ??_C@_0BG@CDGLDNGO@Invalid?5Zopfli?5format?$AA@ 0000000180055f80     zopfli-binding.obj
 0002:0000ff98       ??_C@_0CB@NMCDMDOG@Second?5argument?5must?5be?5a?5string@ 0000000180055f98     zopfli-binding.obj
 0002:0000ffc0       ??_C@_07KBAMPNJK@verbose?$AA@ 0000000180055fc0     zopfli-binding.obj
 0002:0000ffc8       ??_C@_0N@OBHMEIFA@verbose_more?$AA@ 0000000180055fc8     zopfli-binding.obj
 0002:0000ffd8       ??_C@_0O@FINABHEJ@numiterations?$AA@ 0000000180055fd8     zopfli-binding.obj
 0002:0000ffe8       ??_C@_0P@KHILFNBG@blocksplitting?$AA@ 0000000180055fe8     zopfli-binding.obj
 0002:0000fff8       ??_C@_0BD@EDGPKCLK@blocksplittinglast?$AA@ 0000000180055ff8     zopfli-binding.obj
 0002:00010010       ??_C@_0BC@KGLNLOD@blocksplittingmax?$AA@ 0000000180056010     zopfli-binding.obj
 0002:00010028       ??_C@_0CB@OJMBMDPG@Third?5argument?5must?5be?5an?5object@ 0000000180056028     zopfli-binding.obj
 0002:00010050       ??_C@_0CK@JBLKFGIN@Last?5argument?5must?5be?5a?5callback@ 0000000180056050     zopfli-binding.obj
 0002:00010080       ??_C@_0CC@HABKMGAA@adler?5must?5be?5an?5unsigned?5intege@ 0000000180056080     zopfli-binding.obj
 0002:000100a8       ??_C@_0BG@ECJPANEL@data?5must?5be?5a?5buffer?$AA@ 00000001800560a8     zopfli-binding.obj
 0002:000100c0       ??_C@_0M@NBBBBMKN@deflateSync?$AA@ 00000001800560c0     zopfli-binding.obj
 0002:000100d0       ??_C@_07NNOKLIPG@adler32?$AA@ 00000001800560d0     zopfli-binding.obj
 0002:000100d8       ??_C@_0M@MBNAHNGD@pngcompress?$AA@ 00000001800560d8     zopfli-binding.obj
 0002:000100e8       ??_C@_0BJ@IHNAFEBK@?4?4?2src?2zopfli?9binding?4cc?$AA@ 00000001800560e8     zopfli-binding.obj
 0002:00010104       ??_C@_06MBEELINB@zopfli?$AA@ 0000000180056104     zopfli-binding.obj
 0002:00010110       ??_C@_0BI@CFPLBAOH@invalid?5string?5position?$AA@ 0000000180056110     zopfli-binding.obj
 0002:00010128       ??_7AsyncWorker@Nan@@6B@   0000000180056128     zopfli-binding.obj
 0002:00010158       ??_7CompressWorker@nodezopfli@@6B@ 0000000180056158     zopfli-binding.obj
 0002:00010188       ??_C@_0BC@PNJEOMGM@lossy_transparent?$AA@ 0000000180056188     zopflipng.obj
 0002:000101a0       ??_C@_0CK@DIHEPAGK@Wrong?5type?5for?5option?5?8lossy_tra@ 00000001800561a0     zopflipng.obj
 0002:000101d0       ??_C@_0L@INKINDDK@lossy_8bit?$AA@ 00000001800561d0     zopflipng.obj
 0002:000101e0       ??_C@_0CD@OGCJNPCN@Wrong?5type?5for?5option?5?8lossy_8bi@ 00000001800561e0     zopflipng.obj
 0002:00010208       ??_C@_0BC@NACAJLFP@filter_strategies?$AA@ 0000000180056208     zopflipng.obj
 0002:0001021c       ??_C@_04DDFHDMOL@zero?$AA@ 000000018005621c     zopflipng.obj
 0002:00010224       ??_C@_03OHDNLOHO@one?$AA@  0000000180056224     zopflipng.obj
 0002:00010228       ??_C@_03IJDNBOJF@two?$AA@  0000000180056228     zopflipng.obj
 0002:0001022c       ??_C@_05OAGMNDDJ@three?$AA@ 000000018005622c     zopflipng.obj
 0002:00010234       ??_C@_04DNJNMJF@four?$AA@  0000000180056234     zopflipng.obj
 0002:0001023c       ??_C@_06HKOICKDJ@minsum?$AA@ 000000018005623c     zopflipng.obj
 0002:00010248       ??_C@_07DLHAIDD@entropy?$AA@ 0000000180056248     zopflipng.obj
 0002:00010250       ??_C@_0L@NNMGJOIO@predefined?$AA@ 0000000180056250     zopflipng.obj
 0002:00010260       ??_C@_0L@HDDOMAKK@bruteforce?$AA@ 0000000180056260     zopflipng.obj
 0002:00010270       ??_C@_0BC@LHICIJLE@Wrong?5strategy?5?3?5?$AA@ 0000000180056270     zopflipng.obj
 0002:00010288       ??_C@_0CK@IHIJCFAL@Wrong?5type?5for?5option?5?8filter_st@ 0000000180056288     zopflipng.obj
 0002:000102b8       ??_C@_0BF@JMDKOFOB@auto_filter_strategy?$AA@ 00000001800562b8     zopflipng.obj
 0002:000102d0       ??_C@_0CN@HPAIBDOM@Wrong?5type?5for?5option?5?8auto_filt@ 00000001800562d0     zopflipng.obj
 0002:00010300       ??_C@_0L@DPFGDDOI@use_zopfli?$AA@ 0000000180056300     zopflipng.obj
 0002:00010310       ??_C@_0CD@IOEGJCDF@Wrong?5type?5for?5option?5?8use_zopfl@ 0000000180056310     zopflipng.obj
 0002:00010338       ??_C@_0P@MOGJOKFC@num_iterations?$AA@ 0000000180056338     zopflipng.obj
 0002:00010348       ??_C@_0CH@BKFDFPBP@Wrong?5type?5for?5option?5?8num_itera@ 0000000180056348     zopflipng.obj
 0002:00010370       ??_C@_0BF@GEOAFHJD@num_iterations_large?$AA@ 0000000180056370     zopflipng.obj
 0002:00010388       ??_C@_0CN@MBPLNJEO@Wrong?5type?5for?5option?5?8num_itera@ 0000000180056388     zopflipng.obj
 0002:000103b8       ??_C@_0BF@FABKICOH@block_split_strategy?$AA@ 00000001800563b8     zopflipng.obj
 0002:000103d0       ??_C@_0CN@JGKHJGLO@Wrong?5type?5for?5option?5?8block_spl@ 00000001800563d0     zopflipng.obj
 0002:00010400       ??_C@_0CO@MFNDLEJI@Wrong?5value?5for?5option?5?8block_sp@ 0000000180056400     zopflipng.obj
 0002:00010430       ??_C@_0CA@PHEBDBMF@First?5argument?5must?5be?5a?5string?$AA@ 0000000180056430     zopflipng.obj
 0002:00010450       ??_C@_0BH@NADJJHFL@Decoding?5error?5?$CFu?3?5?$CFs?6?$AA@ 0000000180056450     zopflipng.obj
 0002:00010468       ??_C@_0CH@KDEIGCA@Error?3?5verification?5of?5result?5fa@ 0000000180056468     zopflipng.obj
 0002:00010490       ??_C@_0BD@OLBABOEK@vector?$DMT?$DO?5too?5long?$AA@ 0000000180056490     zopflipng.obj
 0002:000104b0       ??_C@_1EK@JBOFMPIN@?$AA?4?$AA?4?$AA?2?$AAz?$AAo?$AAp?$AAf?$AAl?$AAi?$AA?2?$AAs?$AAr?$AAc?$AA?2?$AAz?$AAo?$AAp?$AAf?$AAl?$AAi?$AA?2?$AAb?$AAl?$AAo?$AAc?$AAk?$AAs?$AAp?$AAl?$AAi?$AAt?$AAt@ 00000001800564b0     blocksplitter.obj
 0002:00010500       ??_C@_1CO@JDNDFHHI@?$AAn?$AAp?$AAo?$AAi?$AAn?$AAt?$AAs?$AA?5?$AA?$DN?$AA?$DN?$AA?5?$AAn?$AAl?$AAz?$AA7?$AA7?$AAp?$AAo?$AAi?$AAn?$AAt?$AAs?$AA?$AA@ 0000000180056500     blocksplitter.obj
 0002:00010530       ??_C@_0BF@PAGILADF@block?5split?5points?3?5?$AA@ 0000000180056530     blocksplitter.obj
 0002:00010548       ??_C@_03JDANDILB@?$CFd?5?$AA@ 0000000180056548     blocksplitter.obj
 0002:0001054c       ??_C@_05HPDDAFCL@?$CIhex?3?$AA@ 000000018005654c     blocksplitter.obj
 0002:00010554       ??_C@_03KHOJPICI@?5?$CFx?$AA@ 0000000180056554     blocksplitter.obj
 0002:00010558       ??_C@_02MNMNLDAI@?$CJ?6?$AA@ 0000000180056558     blocksplitter.obj
 0002:00010560       ??_C@_1BM@DLCIHOKI@?$AAl?$AAs?$AAt?$AAa?$AAr?$AAt?$AA?5?$AA?$DM?$AA?5?$AAl?$AAe?$AAn?$AAd?$AA?$AA@ 0000000180056560     blocksplitter.obj
 0002:00010580       ??_C@_1BO@EEBAHOKC@?$AAl?$AAl?$AAp?$AAo?$AAs?$AA?5?$AA?$DO?$AA?5?$AAl?$AAs?$AAt?$AAa?$AAr?$AAt?$AA?$AA@ 0000000180056580     blocksplitter.obj
 0002:000105a0       ??_C@_1BK@MHLEIIAD@?$AAl?$AAl?$AAp?$AAo?$AAs?$AA?5?$AA?$DM?$AA?5?$AAl?$AAe?$AAn?$AAd?$AA?$AA@ 00000001800565a0     blocksplitter.obj
 0002:000105c0       ??_C@_1DA@PEEANHJL@?$AA?$CK?$AAn?$AAp?$AAo?$AAi?$AAn?$AAt?$AAs?$AA?5?$AA?$DN?$AA?$DN?$AA?5?$AAn?$AAl?$AAz?$AA7?$AA7?$AAp?$AAo?$AAi?$AAn?$AAt?$AAs?$AA?$AA@ 00000001800565c0     blocksplitter.obj
 0002:000105f0       ??_C@_1DK@CBCJFJDC@?$AA?4?$AA?4?$AA?2?$AAz?$AAo?$AAp?$AAf?$AAl?$AAi?$AA?2?$AAs?$AAr?$AAc?$AA?2?$AAz?$AAo?$AAp?$AAf?$AAl?$AAi?$AA?2?$AAc?$AAa?$AAc?$AAh?$AAe?$AA?4?$AAc?$AA?$AA@ 00000001800565f0     cache.obj
 0002:00010630       ??_C@_1CK@FHDOOKKD@?$AAb?$AAe?$AAs?$AAt?$AAl?$AAe?$AAn?$AAg?$AAt?$AAh?$AA?5?$AA?$DN?$AA?$DN?$AA?5?$AAl?$AAe?$AAn?$AAg?$AAt?$AAh?$AA?$AA@ 0000000180056630     cache.obj
 0002:00010660       ??_C@_1CK@DCFJNBOF@?$AAb?$AAe?$AAs?$AAt?$AAl?$AAe?$AAn?$AAg?$AAt?$AAh?$AA?5?$AA?$DM?$AA?$DN?$AA?5?$AAl?$AAe?$AAn?$AAg?$AAt?$AAh?$AA?$AA@ 0000000180056660     cache.obj
 0002:00010690       ??_C@_1GM@PGJJKPIB@?$AAb?$AAe?$AAs?$AAt?$AAl?$AAe?$AAn?$AAg?$AAt?$AAh?$AA?5?$AA?$DN?$AA?$DN?$AA?5?$AAZ?$AAo?$AAp?$AAf?$AAl?$AAi?$AAM?$AAa?$AAx?$AAC?$AAa?$AAc?$AAh?$AAe?$AAd?$AAS?$AAu?$AAb@ 0000000180056690     cache.obj
 0002:00010700       ??_C@_1DO@MHBDJBOK@?$AA?4?$AA?4?$AA?2?$AAz?$AAo?$AAp?$AAf?$AAl?$AAi?$AA?2?$AAs?$AAr?$AAc?$AA?2?$AAz?$AAo?$AAp?$AAf?$AAl?$AAi?$AA?2?$AAd?$AAe?$AAf?$AAl?$AAa?$AAt?$AAe?$AA?4?$AAc?$AA?$AA@ 0000000180056700     deflate.obj
 0002:00010740       ??_C@_1BK@GLMBGCKN@?$AAl?$AAi?$AAt?$AAl?$AAe?$AAn?$AA?5?$AA?$DM?$AA?5?$AA2?$AA5?$AA6?$AA?$AA@ 0000000180056740     deflate.obj
 0002:00010760       ??_C@_1CO@KIGJJPMB@?$AAl?$AAl?$AA_?$AAl?$AAe?$AAn?$AAg?$AAt?$AAh?$AAs?$AA?$FL?$AAl?$AAi?$AAt?$AAl?$AAe?$AAn?$AA?$FN?$AA?5?$AA?$DO?$AA?5?$AA0?$AA?$AA@ 0000000180056760     deflate.obj
 0002:00010790       ??_C@_1DK@KNFMEGOF@?$AAl?$AAi?$AAt?$AAl?$AAe?$AAn?$AA?5?$AA?$DO?$AA?$DN?$AA?5?$AA3?$AA?5?$AA?$CG?$AA?$CG?$AA?5?$AAl?$AAi?$AAt?$AAl?$AAe?$AAn?$AA?5?$AA?$DM?$AA?$DN?$AA?5?$AA2?$AA8?$AA8?$AA?$AA@ 0000000180056790     deflate.obj
 0002:000107d0       ??_C@_1CI@BHHMAEMB@?$AAl?$AAl?$AA_?$AAl?$AAe?$AAn?$AAg?$AAt?$AAh?$AAs?$AA?$FL?$AAl?$AAl?$AAs?$AA?$FN?$AA?5?$AA?$DO?$AA?5?$AA0?$AA?$AA@ 00000001800567d0     deflate.obj
 0002:000107f8       ??_C@_1CE@NAHDJKEM@?$AAd?$AA_?$AAl?$AAe?$AAn?$AAg?$AAt?$AAh?$AAs?$AA?$FL?$AAd?$AAs?$AA?$FN?$AA?5?$AA?$DO?$AA?5?$AA0?$AA?$AA@ 00000001800567f8     deflate.obj
 0002:00010820       ??_C@_1HI@ENPPIIAA@?$AAe?$AAx?$AAp?$AAe?$AAc?$AAt?$AAe?$AAd?$AA_?$AAd?$AAa?$AAt?$AAa?$AA_?$AAs?$AAi?$AAz?$AAe?$AA?5?$AA?$DN?$AA?$DN?$AA?5?$AA0?$AA?5?$AA?$HM?$AA?$HM?$AA?5?$AAt?$AAe?$AAs?$AAt?$AAl@ 0000000180056820     deflate.obj
 0002:00010898       ??_C@_1DC@EHENFGMC@?$AAb?$AAt?$AAy?$AAp?$AAe?$AA?5?$AA?$DN?$AA?$DN?$AA?5?$AA1?$AA?5?$AA?$HM?$AA?$HM?$AA?5?$AAb?$AAt?$AAy?$AAp?$AAe?$AA?5?$AA?$DN?$AA?$DN?$AA?5?$AA2?$AA?$AA@ 0000000180056898     deflate.obj
 0002:000108d0       ??_C@_1BG@JKHBPJMC@?$AAb?$AAt?$AAy?$AAp?$AAe?$AA?5?$AA?$DN?$AA?$DN?$AA?5?$AA2?$AA?$AA@ 00000001800568d0     deflate.obj
 0002:000108e8       ??_C@_0O@NJAAGKAA@treesize?3?5?$CFd?6?$AA@ 00000001800568e8     deflate.obj
 0002:000108f8       ??_C@_0CL@FJFIOHKL@compressed?5block?5size?3?5?$CFd?5?$CI?$CFdk?$CJ?5@ 00000001800568f8     deflate.obj
 0002:00010928       ??_C@_0DL@HGDELEFL@Original?5Size?3?5?$CFd?0?5Deflate?3?5?$CFd?0?5@ 0000000180056928     deflate.obj
 0002:00011b48       __pfnDliNotifyHook2        0000000180057b48     win_delay_load_hook.obj
 0002:00011bc8       ?lodepng_default_decompress_settings@@3ULodePNGDecompressSettings@@B 0000000180057bc8     lodepng.obj
 0002:00011fb0       ??_C@_0DI@IOACCPFG@Original?5Size?3?5?$CFd?0?5Gzip?3?5?$CFd?0?5Com@ 0000000180057fb0     gzip_container.obj
 0002:00011fe8       ??_C@_1DI@CKCGODPC@?$AA?4?$AA?4?$AA?2?$AAz?$AAo?$AAp?$AAf?$AAl?$AAi?$AA?2?$AAs?$AAr?$AAc?$AA?2?$AAz?$AAo?$AAp?$AAf?$AAl?$AAi?$AA?2?$AAl?$AAz?$AA7?$AA7?$AA?4?$AAc?$AA?$AA@ 0000000180057fe8     lz77.obj
 0002:00012020       ??_C@_1DC@MINEKABK@?$AAp?$AAo?$AAs?$AA?5?$AA?$CL?$AA?5?$AAl?$AAe?$AAn?$AAg?$AAt?$AAh?$AA?5?$AA?$DM?$AA?$DN?$AA?5?$AAd?$AAa?$AAt?$AAa?$AAs?$AAi?$AAz?$AAe?$AA?$AA@ 0000000180058020     lz77.obj
 0002:00012060       ??_C@_1EM@DDOMPDKB@?$AAd?$AAa?$AAt?$AAa?$AA?$FL?$AAp?$AAo?$AAs?$AA?5?$AA?9?$AA?5?$AAd?$AAi?$AAs?$AAt?$AA?5?$AA?$CL?$AA?5?$AAi?$AA?$FN?$AA?5?$AA?$DN?$AA?$DN?$AA?5?$AAd?$AAa?$AAt?$AAa?$AA?$FL?$AAp?$AAo?$AAs@ 0000000180058060     lz77.obj
 0002:000120b0       ??_C@_1FA@MEJEJLMB@?$AAs?$AAu?$AAb?$AAl?$AAe?$AAn?$AA?$FL?$AA?$CK?$AAl?$AAe?$AAn?$AAg?$AAt?$AAh?$AA?$FN?$AA?5?$AA?$DN?$AA?$DN?$AA?5?$AAs?$AA?9?$AA?$DO?$AAl?$AAm?$AAc?$AA?9?$AA?$DO?$AAd?$AAi?$AAs?$AAt?$AA?$FL@ 00000001800580b0     lz77.obj
 0002:00012100       ??_C@_1HC@HBINDMIA@?$AAs?$AA?9?$AA?$DO?$AAl?$AAm?$AAc?$AA?9?$AA?$DO?$AAl?$AAe?$AAn?$AAg?$AAt?$AAh?$AA?$FL?$AAl?$AAm?$AAc?$AAp?$AAo?$AAs?$AA?$FN?$AA?5?$AA?$DN?$AA?$DN?$AA?5?$AA1?$AA?5?$AA?$CG?$AA?$CG?$AA?5?$AAs@ 0000000180058100     lz77.obj
 0002:00012180       ??_C@_1HI@KIMINPHE@?$AA?$CB?$AA?$CI?$AAs?$AA?9?$AA?$DO?$AAl?$AAm?$AAc?$AA?9?$AA?$DO?$AAl?$AAe?$AAn?$AAg?$AAt?$AAh?$AA?$FL?$AAl?$AAm?$AAc?$AAp?$AAo?$AAs?$AA?$FN?$AA?5?$AA?$DN?$AA?$DN?$AA?5?$AA1?$AA?5?$AA?$CG?$AA?$CG@ 0000000180058180     lz77.obj
 0002:000121f8       ??_C@_1CM@IKGPKMDN@?$AAp?$AAo?$AAs?$AA?5?$AA?$CL?$AA?5?$AA?$CK?$AAl?$AAe?$AAn?$AAg?$AAt?$AAh?$AA?5?$AA?$DM?$AA?$DN?$AA?5?$AAs?$AAi?$AAz?$AAe?$AA?$AA@ 00000001800581f8     lz77.obj
 0002:00012228       ??_C@_1DE@HMOMCNGO@?$AAl?$AAi?$AAm?$AAi?$AAt?$AA?5?$AA?$DM?$AA?$DN?$AA?5?$AAZ?$AAO?$AAP?$AAF?$AAL?$AAI?$AA_?$AAM?$AAA?$AAX?$AA_?$AAM?$AAA?$AAT?$AAC?$AAH?$AA?$AA@ 0000000180058228     lz77.obj
 0002:00012260       ??_C@_1DE@FLPDPGNH@?$AAl?$AAi?$AAm?$AAi?$AAt?$AA?5?$AA?$DO?$AA?$DN?$AA?5?$AAZ?$AAO?$AAP?$AAF?$AAL?$AAI?$AA_?$AAM?$AAI?$AAN?$AA_?$AAM?$AAA?$AAT?$AAC?$AAH?$AA?$AA@ 0000000180058260     lz77.obj
 0002:00012298       ??_C@_1BG@DGDDKFMN@?$AAp?$AAo?$AAs?$AA?5?$AA?$DM?$AA?5?$AAs?$AAi?$AAz?$AAe?$AA?$AA@ 0000000180058298     lz77.obj
 0002:000122b0       ??_C@_1BK@NJPHIJEP@?$AAh?$AAv?$AAa?$AAl?$AA?5?$AA?$DM?$AA?5?$AA6?$AA5?$AA5?$AA3?$AA6?$AA?$AA@ 00000001800582b0     lz77.obj
 0002:000122d0       ??_C@_1BG@DMHDNJBG@?$AAp?$AAp?$AA?5?$AA?$DN?$AA?$DN?$AA?5?$AAh?$AAp?$AAo?$AAs?$AA?$AA@ 00000001800582d0     lz77.obj
 0002:000122e8       ??_C@_1CO@PMPOHFFG@?$AAp?$AA?5?$AA?$DM?$AA?5?$AAZ?$AAO?$AAP?$AAF?$AAL?$AAI?$AA_?$AAW?$AAI?$AAN?$AAD?$AAO?$AAW?$AA_?$AAS?$AAI?$AAZ?$AAE?$AA?$AA@ 00000001800582e8     lz77.obj
 0002:00012318       ??_C@_1BO@PBADCFIH@?$AAp?$AA?5?$AA?$DN?$AA?$DN?$AA?5?$AAh?$AAp?$AAr?$AAe?$AAv?$AA?$FL?$AAp?$AAp?$AA?$FN?$AA?$AA@ 0000000180058318     lz77.obj
 0002:00012338       ??_C@_1CI@IPGMJBHO@?$AAh?$AAh?$AAa?$AAs?$AAh?$AAv?$AAa?$AAl?$AA?$FL?$AAp?$AA?$FN?$AA?5?$AA?$DN?$AA?$DN?$AA?5?$AAh?$AAv?$AAa?$AAl?$AA?$AA@ 0000000180058338     lz77.obj
 0002:00012360       ??_C@_1BI@NMJMLAIE@?$AAd?$AAi?$AAs?$AAt?$AA?5?$AA?$DM?$AA?$DN?$AA?5?$AAp?$AAo?$AAs?$AA?$AA@ 0000000180058360     lz77.obj
 0002:00012378       ??_C@_1CI@INIGGG@?$AAb?$AAe?$AAs?$AAt?$AAl?$AAe?$AAn?$AAg?$AAt?$AAh?$AA?5?$AA?$DM?$AA?$DN?$AA?5?$AAl?$AAi?$AAm?$AAi?$AAt?$AA?$AA@ 0000000180058378     lz77.obj
 0002:000123a0       ??_C@_1BE@IFOOONKD@?$AAi?$AA?5?$AA?$DM?$AA?5?$AAi?$AAn?$AAe?$AAn?$AAd?$AA?$AA@ 00000001800583a0     lz77.obj
 0002:000123b8       ??_C@_1DO@JPOMGJKC@?$AA?4?$AA?4?$AA?2?$AAz?$AAo?$AAp?$AAf?$AAl?$AAi?$AA?2?$AAs?$AAr?$AAc?$AA?2?$AAz?$AAo?$AAp?$AAf?$AAl?$AAi?$AA?2?$AAs?$AAq?$AAu?$AAe?$AAe?$AAz?$AAe?$AA?4?$AAc?$AA?$AA@ 00000001800583b8     squeeze.obj
 0002:000123f8       ??_C@_1BK@MGPBDEPJ@?$AAn?$AAe?$AAw?$AAC?$AAo?$AAs?$AAt?$AA?5?$AA?$DO?$AA?$DN?$AA?5?$AA0?$AA?$AA@ 00000001800583f8     squeeze.obj
 0002:00012418       ??_C@_1CM@OPANCIPN@?$AAk?$AA?5?$AA?$DM?$AA?$DN?$AA?5?$AAZ?$AAO?$AAP?$AAF?$AAL?$AAI?$AA_?$AAM?$AAA?$AAX?$AA_?$AAM?$AAA?$AAT?$AAC?$AAH?$AA?$AA@ 0000000180058418     squeeze.obj
 0002:00012448       ??_C@_1CM@OJKGOFBC@?$AAc?$AAo?$AAs?$AAt?$AAs?$AA?$FL?$AAb?$AAl?$AAo?$AAc?$AAk?$AAs?$AAi?$AAz?$AAe?$AA?$FN?$AA?5?$AA?$DO?$AA?$DN?$AA?5?$AA0?$AA?$AA@ 0000000180058448     squeeze.obj
 0002:00012478       ??_C@_1DK@GIKOFLNP@?$AAl?$AAe?$AAn?$AAg?$AAt?$AAh?$AA_?$AAa?$AAr?$AAr?$AAa?$AAy?$AA?$FL?$AAi?$AAn?$AAd?$AAe?$AAx?$AA?$FN?$AA?5?$AA?$DM?$AA?$DN?$AA?5?$AAi?$AAn?$AAd?$AAe?$AAx?$AA?$AA@ 0000000180058478     squeeze.obj
 0002:000124c0       ??_C@_1FA@IHMOJNDF@?$AAl?$AAe?$AAn?$AAg?$AAt?$AAh?$AA_?$AAa?$AAr?$AAr?$AAa?$AAy?$AA?$FL?$AAi?$AAn?$AAd?$AAe?$AAx?$AA?$FN?$AA?5?$AA?$DM?$AA?$DN?$AA?5?$AAZ?$AAO?$AAP?$AAF?$AAL?$AAI?$AA_?$AAM?$AAA@ 00000001800584c0     squeeze.obj
 0002:00012510       ??_C@_1DC@JPECEOBA@?$AAl?$AAe?$AAn?$AAg?$AAt?$AAh?$AA_?$AAa?$AAr?$AAr?$AAa?$AAy?$AA?$FL?$AAi?$AAn?$AAd?$AAe?$AAx?$AA?$FN?$AA?5?$AA?$CB?$AA?$DN?$AA?5?$AA0?$AA?$AA@ 0000000180058510     squeeze.obj
 0002:00012548       ??_C@_1BI@KHADGFKD@?$AAp?$AAo?$AAs?$AA?5?$AA?$DM?$AA?5?$AAi?$AAn?$AAe?$AAn?$AAd?$AA?$AA@ 0000000180058548     squeeze.obj
 0002:00012560       ??_C@_1HI@BFLJFMHG@?$AA?$CB?$AA?$CI?$AAd?$AAu?$AAm?$AAm?$AAy?$AA_?$AAl?$AAe?$AAn?$AAg?$AAt?$AAh?$AA?5?$AA?$CB?$AA?$DN?$AA?5?$AAl?$AAe?$AAn?$AAg?$AAt?$AAh?$AA?5?$AA?$CG?$AA?$CG?$AA?5?$AAl?$AAe?$AAn?$AAg@ 0000000180058560     squeeze.obj
 0002:000125d8       ??_C@_1CM@IJOBILJB@?$AAp?$AAo?$AAs?$AA?5?$AA?$CL?$AA?5?$AAl?$AAe?$AAn?$AAg?$AAt?$AAh?$AA?5?$AA?$DM?$AA?$DN?$AA?5?$AAi?$AAn?$AAe?$AAn?$AAd?$AA?$AA@ 00000001800585d8     squeeze.obj
 0002:00012608       ??_C@_1DE@KKLLHJCH@?$AAc?$AAo?$AAs?$AAt?$AA?5?$AA?$DM?$AA?5?$AAZ?$AAO?$AAP?$AAF?$AAL?$AAI?$AA_?$AAL?$AAA?$AAR?$AAG?$AAE?$AA_?$AAF?$AAL?$AAO?$AAA?$AAT?$AA?$AA@ 0000000180058608     squeeze.obj
 0002:00012640       ??_C@_0BG@EABFLJIF@Iteration?5?$CFd?3?5?$CFd?5bit?6?$AA@ 0000000180058640     squeeze.obj
 0002:00012658       ??_C@_1DI@NDCDBFJI@?$AA?4?$AA?4?$AA?2?$AAz?$AAo?$AAp?$AAf?$AAl?$AAi?$AA?2?$AAs?$AAr?$AAc?$AA?2?$AAz?$AAo?$AAp?$AAf?$AAl?$AAi?$AA?2?$AAt?$AAr?$AAe?$AAe?$AA?4?$AAc?$AA?$AA@ 0000000180058658     tree.obj
 0002:00012690       ??_C@_1CM@PCLHGGCA@?$AAl?$AAe?$AAn?$AAg?$AAt?$AAh?$AAs?$AA?$FL?$AAi?$AA?$FN?$AA?5?$AA?$DM?$AA?$DN?$AA?5?$AAm?$AAa?$AAx?$AAb?$AAi?$AAt?$AAs?$AA?$AA@ 0000000180058690     tree.obj
 0002:000126c0       ??_C@_1CG@OPKBECCB@?$AAb?$AAi?$AAt?$AAl?$AAe?$AAn?$AAg?$AAt?$AAh?$AAs?$AA?$FL?$AAi?$AA?$FN?$AA?5?$AA?$DO?$AA?$DN?$AA?5?$AA0?$AA?$AA@ 00000001800586c0     tree.obj
 0002:000126e8       ??_C@_1O@OKIDBCFO@?$AA?$CB?$AAe?$AAr?$AAr?$AAo?$AAr?$AA?$AA@ 00000001800586e8     tree.obj
 0002:000126f8       ??_C@_0DI@JKAILBFK@Original?5Size?3?5?$CFd?0?5Zlib?3?5?$CFd?0?5Com@ 00000001800586f8     zlib_container.obj
 0002:00012730       ??_C@_1EE@OCNDKKAD@?$AA?4?$AA?4?$AA?2?$AAz?$AAo?$AAp?$AAf?$AAl?$AAi?$AA?2?$AAs?$AAr?$AAc?$AA?2?$AAz?$AAo?$AAp?$AAf?$AAl?$AAi?$AA?2?$AAz?$AAo?$AAp?$AAf?$AAl?$AAi?$AA_?$AAl?$AAi?$AAb?$AA?4@ 0000000180058730     zopfli_lib.obj
 0002:00012774       ??_C@_13COJANIEC@?$AA0?$AA?$AA@ 0000000180058774     zopfli_lib.obj
 0002:00012778       ??_C@_0CB@PKBMDJAK@Block?5splitting?5last?5was?5better?6@ 0000000180058778     zopflipng_lib.obj
 0002:000127a0       ??_C@_0BH@MLHBPGMP@Encoding?5error?5?$CFu?3?5?$CFs?6?$AA@ 00000001800587a0     zopflipng_lib.obj
 0002:000127b8       ??_C@_0M@FNFGDGLC@minimum?5sum?$AA@ 00000001800587b8     zopflipng_lib.obj
 0002:000127c8       ??_C@_0M@FKHGOFCE@brute?5force?$AA@ 00000001800587c8     zopflipng_lib.obj
 0002:000127d8       ??_C@_0BE@JONHPENG@map?1set?$DMT?$DO?5too?5long?$AA@ 00000001800587d8     zopflipng_lib.obj
 0002:000127f0       ??_C@_0BC@BDKFLDHL@unknown?5exception?$AA@ 00000001800587f0     lodepng.obj
 0002:00012808       ??_C@_0BA@ELKIONDK@bad?5locale?5name?$AA@ 0000000180058808     lodepng.obj
 0002:00012818       ??_C@_00CNPNBAHC@?$AA@     0000000180058818     lodepng.obj
 0002:0001281c       ??_C@_02LMMGGCAJ@?3?5?$AA@ 000000018005881c     lodepng.obj
 0002:00012820       ??_C@_08LLGCOLLL@iostream?$AA@ 0000000180058820     lodepng.obj
 0002:00012830       ??_C@_0BG@PADBLCHM@iostream?5stream?5error?$AA@ 0000000180058830     lodepng.obj
 0002:00012848       ??_C@_0BF@PHHKMMFD@ios_base?3?3badbit?5set?$AA@ 0000000180058848     lodepng.obj
 0002:00012860       ??_C@_0BG@FMKFHCIL@ios_base?3?3failbit?5set?$AA@ 0000000180058860     lodepng.obj
 0002:00012878       ??_C@_0BF@OOHOMBOF@ios_base?3?3eofbit?5set?$AA@ 0000000180058878     lodepng.obj
 0002:00012890       ??_C@_02JDPG@rb?$AA@       0000000180058890     lodepng.obj
 0002:00012894       ??_C@_02GMLFBBN@wb?$AA@    0000000180058894     lodepng.obj
 0002:00012898       ??_C@_04NHMHICBH@IDAT?$AA@ 0000000180058898     lodepng.obj
 0002:000128a0       ??_C@_04COOFLABO@IEND?$AA@ 00000001800588a0     lodepng.obj
 0002:000128a8       ??_C@_04DGLHBNIA@PLTE?$AA@ 00000001800588a8     lodepng.obj
 0002:000128b0       ??_C@_04LPBJCHJJ@tRNS?$AA@ 00000001800588b0     lodepng.obj
 0002:000128b8       ??_C@_04HHPKOCLH@bKGD?$AA@ 00000001800588b8     lodepng.obj
 0002:000128c0       ??_C@_04LALJCFBI@tEXt?$AA@ 00000001800588c0     lodepng.obj
 0002:000128c8       ??_C@_04OHCMKLID@zTXt?$AA@ 00000001800588c8     lodepng.obj
 0002:000128d0       ??_C@_04MAGMEGNB@iTXt?$AA@ 00000001800588d0     lodepng.obj
 0002:000128d8       ??_C@_04CGNPPMIJ@tIME?$AA@ 00000001800588d8     lodepng.obj
 0002:000128e0       ??_C@_04PJNAKHPF@pHYs?$AA@ 00000001800588e0     lodepng.obj
 0002:000128e8       ??_C@_04MNIAFIMC@IHDR?$AA@ 00000001800588e8     lodepng.obj
 0002:000128f0       ??_C@_07FFJHAIOD@LodePNG?$AA@ 00000001800588f0     lodepng.obj
 0002:000128f8       ??_C@_08BMPKEPAO@20131222?$AA@ 00000001800588f8     lodepng.obj
 0002:00012908       ??_C@_0BN@IBGHKPF@no?5error?0?5everything?5went?5ok?$AA@ 0000000180058908     lodepng.obj
 0002:00012928       ??_C@_0BB@KHCEDELJ@nothing?5done?5yet?$AA@ 0000000180058928     lodepng.obj
 0002:00012940       ??_C@_0DF@INKBJCMB@end?5of?5input?5memory?5reached?5with@ 0000000180058940     lodepng.obj
 0002:00012978       ??_C@_0DI@OINNFIKI@error?5in?5code?5tree?5made?5it?5jump?5@ 0000000180058978     lodepng.obj
 0002:000129b0       ??_C@_0CP@DDHBCAOL@problem?5while?5processing?5dynamic@ 00000001800589b0     lodepng.obj
 0002:000129e0       ??_C@_0DH@GKGLPABJ@unexisting?5code?5while?5processing@ 00000001800589e0     lodepng.obj
 0002:00012a18       ??_C@_0DB@CCCHOPLJ@end?5of?5out?5buffer?5memory?5reached@ 0000000180058a18     lodepng.obj
 0002:00012a50       ??_C@_0CG@MOLAAFOP@invalid?5distance?5code?5while?5infl@ 0000000180058a50     lodepng.obj
 0002:00012a78       ??_C@_0DH@OHJCBPG@invalid?5deflate?5block?5BTYPE?5enco@ 0000000180058a78     lodepng.obj
 0002:00012ab0       ??_C@_0DG@LJBKCKDJ@NLEN?5is?5not?5ones?5complement?5of?5L@ 0000000180058ab0     lodepng.obj
 0002:00012ae8       ??_C@_0DA@BOMDJJCD@end?5of?5in?5buffer?5memory?5reached?5@ 0000000180058ae8     lodepng.obj
 0002:00012b18       ??_C@_0BO@LPIJIILG@invalid?5FCHECK?5in?5zlib?5header?$AA@ 0000000180058b18     lodepng.obj
 0002:00012b38       ??_C@_0CK@OFGJAJAB@invalid?5compression?5method?5in?5zl@ 0000000180058b38     lodepng.obj
 0002:00012b68       ??_C@_0DN@IHNMFLFH@FDICT?5encountered?5in?5zlib?5header@ 0000000180058b68     lodepng.obj
 0002:00012ba8       ??_C@_0CG@PKFJEKKJ@PNG?5file?5is?5smaller?5than?5a?5PNG?5h@ 0000000180058ba8     lodepng.obj
 0002:00012bd0       ??_C@_0DC@KNOMKLMA@incorrect?5PNG?5signature?0?5it?8s?5no@ 0000000180058bd0     lodepng.obj
 0002:00012c08       ??_C@_0CE@PGBEOGCC@first?5chunk?5is?5not?5the?5header?5ch@ 0000000180058c08     lodepng.obj
 0002:00012c30       ??_C@_0DI@DMLNOICN@chunk?5length?5too?5large?0?5chunk?5br@ 0000000180058c30     lodepng.obj
 0002:00012c68       ??_C@_0BO@NDHLKIKI@illegal?5PNG?5color?5type?5or?5bpp?$AA@ 0000000180058c68     lodepng.obj
 0002:00012c88       ??_C@_0BP@ODHKPHCH@illegal?5PNG?5compression?5method?$AA@ 0000000180058c88     lodepng.obj
 0002:00012ca8       ??_C@_0BK@NEGKONLH@illegal?5PNG?5filter?5method?$AA@ 0000000180058ca8     lodepng.obj
 0002:00012cc8       ??_C@_0BN@BGHOFLAF@illegal?5PNG?5interlace?5method?$AA@ 0000000180058cc8     lodepng.obj
 0002:00012ce8       ??_C@_0DM@MBIDFHIJ@chunk?5length?5of?5a?5chunk?5is?5too?5l@ 0000000180058ce8     lodepng.obj
 0002:00012d28       ??_C@_0CE@HJIDBMAH@illegal?5PNG?5filter?5type?5encounte@ 0000000180058d28     lodepng.obj
 0002:00012d50       ??_C@_0CM@DFEKLLPN@illegal?5bit?5depth?5for?5this?5color@ 0000000180058d50     lodepng.obj
 0002:00012d80       ??_C@_0BH@ICFHIN@the?5palette?5is?5too?5big?$AA@ 0000000180058d80     lodepng.obj
 0002:00012da0       ??_C@_0FD@FKNMJHIN@more?5palette?5alpha?5values?5given?5@ 0000000180058da0     lodepng.obj
 0002:00012df8       ??_C@_0CO@JKEKIBLK@tRNS?5chunk?5has?5wrong?5size?5for?5gr@ 0000000180058df8     lodepng.obj
 0002:00012e28       ??_C@_0CI@IFCNLLFM@tRNS?5chunk?5has?5wrong?5size?5for?5RG@ 0000000180058e28     lodepng.obj
 0002:00012e50       ??_C@_0EB@CHDDNMPD@tRNS?5chunk?5appeared?5while?5it?5was@ 0000000180058e50     lodepng.obj
 0002:00012e98       ??_C@_0CM@HNLFOPI@bKGD?5chunk?5has?5wrong?5size?5for?5pa@ 0000000180058e98     lodepng.obj
 0002:00012ec8       ??_C@_0CO@FCGEOFKF@bKGD?5chunk?5has?5wrong?5size?5for?5gr@ 0000000180058ec8     lodepng.obj
 0002:00012ef8       ??_C@_0CI@CMLABIJA@bKGD?5chunk?5has?5wrong?5size?5for?5RG@ 0000000180058ef8     lodepng.obj
 0002:00012f20       ??_C@_0EI@GDJCNMPE@a?5value?5in?5indexed?5image?5is?5larg@ 0000000180058f20     lodepng.obj
 0002:00012f70       ??_C@_0EI@FOPCPFEE@a?5value?5in?5indexed?5image?5is?5larg@ 0000000180058f70     lodepng.obj
 0002:00012fb8       ??_C@_0CC@MNIGDBNH@empty?5input?5or?5file?5doesn?8t?5exis@ 0000000180058fb8     lodepng.obj
 0002:00012fe0       ??_C@_0DJ@MHOEEPLI@jumped?5past?5memory?5while?5generat@ 0000000180058fe0     lodepng.obj
 0002:00013020       ??_C@_0DB@BNPOFNMD@jumped?5past?5memory?5while?5inflati@ 0000000180059020     lodepng.obj
 0002:00013058       ??_C@_0CD@ICHNJILK@jumped?5past?5memory?5while?5inflati@ 0000000180059058     lodepng.obj
 0002:00013080       ??_C@_0BM@CEJPNBLF@size?5of?5zlib?5data?5too?5small?$AA@ 0000000180059080     lodepng.obj
 0002:000130a0       ??_C@_0DK@DEJNNMNC@repeat?5symbol?5in?5tree?5while?5ther@ 00000001800590a0     lodepng.obj
 0002:000130e0       ??_C@_0CP@JKHHNIDN@jumped?5past?5tree?5while?5generatin@ 00000001800590e0     lodepng.obj
 0002:00013110       ??_C@_0EM@MLFECFBO@given?5output?5image?5colortype?5or?5@ 0000000180059110     lodepng.obj
 0002:00013160       ??_C@_0DH@GCCBCJBH@invalid?5CRC?5encountered?5?$CIcheckin@ 0000000180059160     lodepng.obj
 0002:00013198       ??_C@_0DP@NMFEBLDJ@invalid?5ADLER32?5encountered?5?$CIche@ 0000000180059198     lodepng.obj
 0002:000131d8       ??_C@_0CJ@PKIBMELO@requested?5color?5conversion?5not?5s@ 00000001800591d8     lodepng.obj
 0002:00013210       ??_C@_0EL@DFAHNGDC@invalid?5window?5size?5given?5in?5the@ 0000000180059210     lodepng.obj
 0002:00013260       ??_C@_0FB@CGBCJAKP@invalid?5BTYPE?5given?5in?5the?5setti@ 0000000180059260     lodepng.obj
 0002:000132b8       ??_C@_0DB@DIPJMLEM@conversion?5from?5color?5to?5greysca@ 00000001800592b8     lodepng.obj
 0002:000132f0       ??_C@_0EO@OPNCIJKM@length?5of?5a?5chunk?5too?5long?0?5max?5@ 00000001800592f0     lodepng.obj
 0002:00013340       ??_C@_0DK@CGBJPOCG@the?5length?5of?5the?5END?5symbol?5256@ 0000000180059340     lodepng.obj
 0002:00013380       ??_C@_0FP@NKPOKJKO@the?5length?5of?5a?5text?5chunk?5keywo@ 0000000180059380     lodepng.obj
 0002:000133e0       ??_C@_0FO@HGBKNLHO@the?5length?5of?5a?5text?5chunk?5keywo@ 00000001800593e0     lodepng.obj
 0002:00013440       ??_C@_0FJ@LPKJLMJ@tried?5to?5encode?5a?5PLTE?5chunk?5wit@ 0000000180059440     lodepng.obj
 0002:000134a0       ??_C@_0ED@FHCCPMOF@unknown?5chunk?5type?5with?5?8critica@ 00000001800594a0     lodepng.obj
 0002:000134e8       ??_C@_0DM@FFMIBKLO@unexisting?5interlace?5mode?5given?5@ 00000001800594e8     lodepng.obj
 0002:00013530       ??_C@_0GA@DJPMGDIO@while?5decoding?0?5unexisting?5compr@ 0000000180059530     lodepng.obj
 0002:00013590       ??_C@_0BI@GJKJMBKH@invalid?5tIME?5chunk?5size?$AA@ 0000000180059590     lodepng.obj
 0002:000135a8       ??_C@_0BI@NMOBNHEN@invalid?5pHYs?5chunk?5size?$AA@ 00000001800595a8     lodepng.obj
 0002:000135c0       ??_C@_0DJ@PANFLBNP@no?5null?5termination?5char?5found?5w@ 00000001800595c0     lodepng.obj
 0002:00013600       ??_C@_0CP@KDAKHJNL@iTXt?5chunk?5too?5short?5to?5contain?5@ 0000000180059600     lodepng.obj
 0002:00013630       ??_C@_0CA@FGDALBLM@integer?5overflow?5in?5buffer?5size?$AA@ 0000000180059630     lodepng.obj
 0002:00013650       ??_C@_0CA@CBHGFENA@failed?5to?5open?5file?5for?5reading?$AA@ 0000000180059650     lodepng.obj
 0002:00013670       ??_C@_0CA@EHFMONBL@failed?5to?5open?5file?5for?5writing?$AA@ 0000000180059670     lodepng.obj
 0002:00013690       ??_C@_0CD@MOHNLFBI@tried?5creating?5a?5tree?5of?50?5symbo@ 0000000180059690     lodepng.obj
 0002:000136b8       ??_C@_0CF@PBAGOFJG@lazy?5matching?5at?5pos?50?5is?5imposs@ 00000001800596b8     lodepng.obj
 0002:000136e0       ??_C@_0EF@IEGLDIHK@color?5conversion?5to?5palette?5requ@ 00000001800596e0     lodepng.obj
 0002:00013728       ??_C@_0BJ@FDBIHNP@memory?5allocation?5failed?$AA@ 0000000180059728     lodepng.obj
 0002:00013748       ??_C@_0DK@JNCHGFNK@given?5image?5too?5small?5to?5contain@ 0000000180059748     lodepng.obj
 0002:00013788       ??_C@_0BO@NGDGFBBM@internal?5color?5conversion?5bug?$AA@ 0000000180059788     lodepng.obj
 0002:000137a8       ??_C@_0DC@KAGBFHHD@impossible?5offset?5in?5lz77?5encodi@ 00000001800597a8     lodepng.obj
 0002:000137e0       ??_C@_0FB@OFCJJNFO@must?5provide?5custom?5zlib?5functio@ 00000001800597e0     lodepng.obj
 0002:00013840       ??_C@_0EJ@PHLJLBOL@invalid?5filter?5strategy?5given?5fo@ 0000000180059840     lodepng.obj
 0002:00013890       ??_C@_0DK@LPMOJNBK@text?5chunk?5keyword?5too?5short?5or?5@ 0000000180059890     lodepng.obj
 0002:000138d0       ??_C@_0CC@EIKGNLEE@windowsize?5must?5be?5a?5power?5of?5tw@ 00000001800598d0     lodepng.obj
 0002:000138f8       ??_C@_0BD@KFLAIOGJ@unknown?5error?5code?$AA@ 00000001800598f8     lodepng.obj
 0002:00013910       ??_7?$basic_ofstream@DU?$char_traits@D@std@@@std@@6B@ 0000000180059910     lodepng.obj
 0002:00013918       ??_8?$basic_ofstream@DU?$char_traits@D@std@@@std@@7B@ 0000000180059918     lodepng.obj
 0002:00013920       ??_7exception@stdext@@6B@  0000000180059920     lodepng.obj
 0002:00013938       ??_7State@lodepng@@6B@     0000000180059938     lodepng.obj
 0002:00013940       ??_8?$basic_ifstream@DU?$char_traits@D@std@@@std@@7B@ 0000000180059940     lodepng.obj
 0002:00013948       ??_7?$basic_istream@DU?$char_traits@D@std@@@std@@6B@ 0000000180059948     lodepng.obj
 0002:00013950       ??_8?$basic_ostream@DU?$char_traits@D@std@@@std@@7B@ 0000000180059950     lodepng.obj
 0002:00013958       ??_7LodePNGState@@6B@      0000000180059958     lodepng.obj
 0002:00013960       ??_7?$basic_ifstream@DU?$char_traits@D@std@@@std@@6B@ 0000000180059960     lodepng.obj
 0002:000139f0       ??_C@_08HCOMDCCD@iojs?4exe?$AA@ 00000001800599f0     win_delay_load_hook.obj
 0002:00013a00       ??_C@_08JDDNMFDB@node?4exe?$AA@ 0000000180059a00     win_delay_load_hook.obj
 0002:00013d30       __real@3d800000            0000000180059d30     lodepng.obj
 0002:00013d34       __real@3f000000            0000000180059d34     lodepng.obj
 0002:00013d38       __real@3f800000            0000000180059d38     lodepng.obj
 0002:00013d3c       __real@3fb8aa3b            0000000180059d3c     lodepng.obj
 0002:00013d40       __real@3fe0000000000000    0000000180059d40     squeeze.obj
 0002:00013d48       __real@3feaaa8f            0000000180059d48     lodepng.obj
 0002:00013d50       __real@3ff0000000000000    0000000180059d50     squeeze.obj
 0002:00013d58       __real@3ff71547652b81e1    0000000180059d58     tree.obj
 0002:00013d60       __real@40000000            0000000180059d60     lodepng.obj
 0002:00013d68       __real@4008000000000000    0000000180059d68     deflate.obj
 0002:00013d70       __real@4014000000000000    0000000180059d70     squeeze.obj
 0002:00013d78       __real@401c000000000000    0000000180059d78     squeeze.obj
 0002:00013d80       __real@4020000000000000    0000000180059d80     squeeze.obj
 0002:00013d88       __real@4022000000000000    0000000180059d88     squeeze.obj
 0002:00013d90       __real@40400000            0000000180059d90     lodepng.obj
 0002:00013d98       __real@4059000000000000    0000000180059d98     deflate.obj
 0002:00013da0       __real@40800000            0000000180059da0     lodepng.obj
 0002:00013da4       __real@42000000            0000000180059da4     lodepng.obj
 0002:00013da8       __real@43e0000000000000    0000000180059da8     squeeze.obj
 0002:00013db0       __real@43f0000000000000    0000000180059db0     tree.obj
 0002:00013db8       __real@46293e5939a08cea    0000000180059db8     squeeze.obj
 0002:00013dc0       __real@5f800000            0000000180059dc0     lodepng.obj
 0002:00013dc8       __real@bee4f8b588e368f1    0000000180059dc8     tree.obj
 0002:00013dd0       __xmm@000000010000000f0000000000000000 0000000180059dd0     zopflipng_lib.obj
 0002:00013de0       __xmm@00000003000000020000000100000000 0000000180059de0     zopflipng_lib.obj
 0002:00013df0       __xmm@00000007000000060000000500000004 0000000180059df0     zopflipng_lib.obj
 0002:00014688       _tls_used                  000000018005a688     LIBCMT:tlssup.obj
 0002:000146b0       ??_R4exception@std@@6B@    000000018005a6b0     libcpmt:xthrow.obj
 0002:000146d8       ??_R3exception@std@@8      000000018005a6d8     libcpmt:xthrow.obj
 0002:000146f0       ??_R2exception@std@@8      000000018005a6f0     libcpmt:xthrow.obj
 0002:00014700       ??_R1A@?0A@EA@exception@std@@8 000000018005a700     libcpmt:xthrow.obj
 0002:00014728       ??_R4bad_alloc@std@@6B@    000000018005a728     libcpmt:xthrow.obj
 0002:00014750       ??_R3bad_alloc@std@@8      000000018005a750     libcpmt:xthrow.obj
 0002:00014768       ??_R2bad_alloc@std@@8      000000018005a768     libcpmt:xthrow.obj
 0002:00014780       ??_R1A@?0A@EA@bad_alloc@std@@8 000000018005a780     libcpmt:xthrow.obj
 0002:000147a8       ??_R4logic_error@std@@6B@  000000018005a7a8     libcpmt:xthrow.obj
 0002:000147d0       ??_R3logic_error@std@@8    000000018005a7d0     libcpmt:xthrow.obj
 0002:000147e8       ??_R2logic_error@std@@8    000000018005a7e8     libcpmt:xthrow.obj
 0002:00014800       ??_R1A@?0A@EA@logic_error@std@@8 000000018005a800     libcpmt:xthrow.obj
 0002:00014828       ??_R4length_error@std@@6B@ 000000018005a828     libcpmt:xthrow.obj
 0002:00014850       ??_R3length_error@std@@8   000000018005a850     libcpmt:xthrow.obj
 0002:00014868       ??_R2length_error@std@@8   000000018005a868     libcpmt:xthrow.obj
 0002:00014888       ??_R1A@?0A@EA@length_error@std@@8 000000018005a888     libcpmt:xthrow.obj
 0002:000148b0       ??_R4out_of_range@std@@6B@ 000000018005a8b0     libcpmt:xthrow.obj
 0002:000148d8       ??_R3out_of_range@std@@8   000000018005a8d8     libcpmt:xthrow.obj
 0002:000148f0       ??_R2out_of_range@std@@8   000000018005a8f0     libcpmt:xthrow.obj
 0002:00014910       ??_R1A@?0A@EA@out_of_range@std@@8 000000018005a910     libcpmt:xthrow.obj
 0002:00014938       ??_R4runtime_error@std@@6B@ 000000018005a938     libcpmt:xthrow.obj
 0002:00014960       ??_R3runtime_error@std@@8  000000018005a960     libcpmt:xthrow.obj
 0002:00014978       ??_R2runtime_error@std@@8  000000018005a978     libcpmt:xthrow.obj
 0002:00014990       ??_R1A@?0A@EA@runtime_error@std@@8 000000018005a990     libcpmt:xthrow.obj
 0002:000149b8       ??_R4_Facet_base@std@@6B@  000000018005a9b8     libcpmt:locale0.obj
 0002:000149e0       ??_R3_Facet_base@std@@8    000000018005a9e0     libcpmt:locale0.obj
 0002:000149f8       ??_R2_Facet_base@std@@8    000000018005a9f8     libcpmt:locale0.obj
 0002:00014a08       ??_R1A@?0A@EA@_Facet_base@std@@8 000000018005aa08     libcpmt:locale0.obj
 0002:00014a30       ??_R4_Locimp@locale@std@@6B@ 000000018005aa30     libcpmt:locale0.obj
 0002:00014a58       ??_R3_Locimp@locale@std@@8 000000018005aa58     libcpmt:locale0.obj
 0002:00014a70       ??_R2_Locimp@locale@std@@8 000000018005aa70     libcpmt:locale0.obj
 0002:00014a98       ??_R1A@?0A@EA@_Locimp@locale@std@@8 000000018005aa98     libcpmt:locale0.obj
 0002:00014ac0       ??_R1A@?0A@EA@facet@locale@std@@8 000000018005aac0     libcpmt:locale0.obj
 0002:00014ae8       ??_R3facet@locale@std@@8   000000018005aae8     libcpmt:locale0.obj
 0002:00014b00       ??_R2facet@locale@std@@8   000000018005ab00     libcpmt:locale0.obj
 0002:00014b20       ??_R17?0A@EA@_Crt_new_delete@std@@8 000000018005ab20     libcpmt:locale0.obj
 0002:00014b48       ??_R3_Crt_new_delete@std@@8 000000018005ab48     libcpmt:locale0.obj
 0002:00014b60       ??_R2_Crt_new_delete@std@@8 000000018005ab60     libcpmt:locale0.obj
 0002:00014b70       ??_R1A@?0A@EA@_Crt_new_delete@std@@8 000000018005ab70     libcpmt:locale0.obj
 0002:00014b98       ??_R4ios_base@std@@6B@     000000018005ab98     libcpmt:cout.obj
 0002:00014bc0       ??_R3ios_base@std@@8       000000018005abc0     libcpmt:cout.obj
 0002:00014bd8       ??_R2ios_base@std@@8       000000018005abd8     libcpmt:cout.obj
 0002:00014bf0       ??_R1A@?0A@EA@ios_base@std@@8 000000018005abf0     libcpmt:cout.obj
 0002:00014c18       ??_R17?0A@EA@?$_Iosb@H@std@@8 000000018005ac18     libcpmt:cout.obj
 0002:00014c40       ??_R3?$_Iosb@H@std@@8      000000018005ac40     libcpmt:cout.obj
 0002:00014c58       ??_R2?$_Iosb@H@std@@8      000000018005ac58     libcpmt:cout.obj
 0002:00014c68       ??_R1A@?0A@EA@?$_Iosb@H@std@@8 000000018005ac68     libcpmt:cout.obj
 0002:00014c90       ??_R4?$basic_ios@DU?$char_traits@D@std@@@std@@6B@ 000000018005ac90     libcpmt:cout.obj
 0002:00014cb8       ??_R3?$basic_ios@DU?$char_traits@D@std@@@std@@8 000000018005acb8     libcpmt:cout.obj
 0002:00014cd0       ??_R2?$basic_ios@DU?$char_traits@D@std@@@std@@8 000000018005acd0     libcpmt:cout.obj
 0002:00014cf0       ??_R1A@?0A@EA@?$basic_ios@DU?$char_traits@D@std@@@std@@8 000000018005acf0     libcpmt:cout.obj
 0002:00014d18       ??_R4?$basic_streambuf@DU?$char_traits@D@std@@@std@@6B@ 000000018005ad18     libcpmt:cout.obj
 0002:00014d40       ??_R3?$basic_streambuf@DU?$char_traits@D@std@@@std@@8 000000018005ad40     libcpmt:cout.obj
 0002:00014d58       ??_R2?$basic_streambuf@DU?$char_traits@D@std@@@std@@8 000000018005ad58     libcpmt:cout.obj
 0002:00014d68       ??_R1A@?0A@EA@?$basic_streambuf@DU?$char_traits@D@std@@@std@@8 000000018005ad68     libcpmt:cout.obj
 0002:00014d90       ??_R1A@A@3FA@?$basic_ios@DU?$char_traits@D@std@@@std@@8 000000018005ad90     libcpmt:cout.obj
 0002:00014db8       ??_R1A@A@3EA@ios_base@std@@8 000000018005adb8     libcpmt:cout.obj
 0002:00014de0       ??_R17A@3EA@?$_Iosb@H@std@@8 000000018005ade0     libcpmt:cout.obj
 0002:00014e08       ??_R4?$basic_ostream@DU?$char_traits@D@std@@@std@@6B@ 000000018005ae08     libcpmt:cout.obj
 0002:00014e30       ??_R3?$basic_ostream@DU?$char_traits@D@std@@@std@@8 000000018005ae30     libcpmt:cout.obj
 0002:00014e48       ??_R2?$basic_ostream@DU?$char_traits@D@std@@@std@@8 000000018005ae48     libcpmt:cout.obj
 0002:00014e70       ??_R1A@?0A@EA@?$basic_ostream@DU?$char_traits@D@std@@@std@@8 000000018005ae70     libcpmt:cout.obj
 0002:00014e98       ??_R4?$basic_filebuf@DU?$char_traits@D@std@@@std@@6B@ 000000018005ae98     libcpmt:cout.obj
 0002:00014ec0       ??_R3?$basic_filebuf@DU?$char_traits@D@std@@@std@@8 000000018005aec0     libcpmt:cout.obj
 0002:00014ed8       ??_R2?$basic_filebuf@DU?$char_traits@D@std@@@std@@8 000000018005aed8     libcpmt:cout.obj
 0002:00014ef0       ??_R1A@?0A@EA@?$basic_filebuf@DU?$char_traits@D@std@@@std@@8 000000018005aef0     libcpmt:cout.obj
 0002:00014f18       ??_R3codecvt_base@std@@8   000000018005af18     libcpmt:cout.obj
 0002:00014f30       ??_R2codecvt_base@std@@8   000000018005af30     libcpmt:cout.obj
 0002:00014f58       ??_R1A@?0A@EA@codecvt_base@std@@8 000000018005af58     libcpmt:cout.obj
 0002:00014f80       ??_R3ctype_base@std@@8     000000018005af80     libcpmt:cout.obj
 0002:00014f98       ??_R2ctype_base@std@@8     000000018005af98     libcpmt:cout.obj
 0002:00014fc0       ??_R1A@?0A@EA@ctype_base@std@@8 000000018005afc0     libcpmt:cout.obj
 0002:00014fe8       ??_R4?$ctype@D@std@@6B@    000000018005afe8     libcpmt:cout.obj
 0002:00015010       ??_R3?$ctype@D@std@@8      000000018005b010     libcpmt:cout.obj
 0002:00015028       ??_R2?$ctype@D@std@@8      000000018005b028     libcpmt:cout.obj
 0002:00015058       ??_R1A@?0A@EA@?$ctype@D@std@@8 000000018005b058     libcpmt:cout.obj
 0002:00015080       ??_R4error_category@std@@6B@ 000000018005b080     libcpmt:cout.obj
 0002:000150a8       ??_R3error_category@std@@8 000000018005b0a8     libcpmt:cout.obj
 0002:000150c0       ??_R2error_category@std@@8 000000018005b0c0     libcpmt:cout.obj
 0002:000150d0       ??_R1A@?0A@EA@error_category@std@@8 000000018005b0d0     libcpmt:cout.obj
 0002:000150f8       ??_R4_System_error@std@@6B@ 000000018005b0f8     libcpmt:cout.obj
 0002:00015120       ??_R3_System_error@std@@8  000000018005b120     libcpmt:cout.obj
 0002:00015138       ??_R2_System_error@std@@8  000000018005b138     libcpmt:cout.obj
 0002:00015158       ??_R1A@?0A@EA@_System_error@std@@8 000000018005b158     libcpmt:cout.obj
 0002:00015180       ??_R3system_error@std@@8   000000018005b180     libcpmt:cout.obj
 0002:00015198       ??_R2system_error@std@@8   000000018005b198     libcpmt:cout.obj
 0002:000151c0       ??_R1A@?0A@EA@system_error@std@@8 000000018005b1c0     libcpmt:cout.obj
 0002:000151e8       ??_R3_Generic_error_category@std@@8 000000018005b1e8     libcpmt:cout.obj
 0002:00015200       ??_R2_Generic_error_category@std@@8 000000018005b200     libcpmt:cout.obj
 0002:00015218       ??_R1A@?0A@EA@_Generic_error_category@std@@8 000000018005b218     libcpmt:cout.obj
 0002:00015240       ??_R4_Iostream_error_category@std@@6B@ 000000018005b240     libcpmt:cout.obj
 0002:00015268       ??_R3_Iostream_error_category@std@@8 000000018005b268     libcpmt:cout.obj
 0002:00015280       ??_R2_Iostream_error_category@std@@8 000000018005b280     libcpmt:cout.obj
 0002:000152a0       ??_R1A@?0A@EA@_Iostream_error_category@std@@8 000000018005b2a0     libcpmt:cout.obj
 0002:000152c8       ??_R4failure@ios_base@std@@6B@ 000000018005b2c8     libcpmt:cout.obj
 0002:000152f0       ??_R3failure@ios_base@std@@8 000000018005b2f0     libcpmt:cout.obj
 0002:00015308       ??_R2failure@ios_base@std@@8 000000018005b308     libcpmt:cout.obj
 0002:00015338       ??_R1A@?0A@EA@failure@ios_base@std@@8 000000018005b338     libcpmt:cout.obj
 0002:00015360       ??_R4?$codecvt@DDU_Mbstatet@@@std@@6B@ 000000018005b360     libcpmt:cout.obj
 0002:00015388       ??_R3?$codecvt@DDU_Mbstatet@@@std@@8 000000018005b388     libcpmt:cout.obj
 0002:000153a0       ??_R2?$codecvt@DDU_Mbstatet@@@std@@8 000000018005b3a0     libcpmt:cout.obj
 0002:000153d0       ??_R1A@?0A@EA@?$codecvt@DDU_Mbstatet@@@std@@8 000000018005b3d0     libcpmt:cout.obj
 0002:000153f8       ??_R4type_info@@6B@        000000018005b3f8     LIBCMT:std_type_info_static.obj
 0002:00015420       ??_R3type_info@@8          000000018005b420     LIBCMT:std_type_info_static.obj
 0002:00015438       ??_R2type_info@@8          000000018005b438     LIBCMT:std_type_info_static.obj
 0002:00015448       ??_R1A@?0A@EA@type_info@@8 000000018005b448     LIBCMT:std_type_info_static.obj
 0002:00015470       ??_R4bad_array_new_length@std@@6B@ 000000018005b470     LIBCMT:throw_bad_alloc.obj
 0002:00015498       ??_R3bad_array_new_length@std@@8 000000018005b498     LIBCMT:throw_bad_alloc.obj
 0002:000154b0       ??_R2bad_array_new_length@std@@8 000000018005b4b0     LIBCMT:throw_bad_alloc.obj
 0002:000154d0       ??_R1A@?0A@EA@bad_array_new_length@std@@8 000000018005b4d0     LIBCMT:throw_bad_alloc.obj
 0002:000154f8       ??_R4bad_exception@std@@6B@ 000000018005b4f8     libvcruntime:frame.obj
 0002:00015520       ??_R3bad_exception@std@@8  000000018005b520     libvcruntime:frame.obj
 0002:00015538       ??_R2bad_exception@std@@8  000000018005b538     libvcruntime:frame.obj
 0002:00015550       ??_R1A@?0A@EA@bad_exception@std@@8 000000018005b550     libvcruntime:frame.obj
 0002:00015a20       __rtc_iaa                  000000018005ba20     LIBCMT:_initsect_.obj
 0002:00015a28       __rtc_izz                  000000018005ba28     LIBCMT:_initsect_.obj
 0002:00015a30       __rtc_taa                  000000018005ba30     LIBCMT:_initsect_.obj
 0002:00015a38       __rtc_tzz                  000000018005ba38     LIBCMT:_initsect_.obj
 0002:0001a328       _TI2?AVbad_alloc@std@@     0000000180060328     libcpmt:xthrow.obj
 0002:0001a348       _CTA2?AVbad_alloc@std@@    0000000180060348     libcpmt:xthrow.obj
 0002:0001a360       _CT??_R0?AVbad_alloc@std@@@8??0bad_alloc@std@@QEAA@AEBV01@@Z24 0000000180060360     libcpmt:xthrow.obj
 0002:0001a388       _CT??_R0?AVexception@std@@@8??0exception@std@@QEAA@AEBV01@@Z24 0000000180060388     libcpmt:xthrow.obj
 0002:0001a3b0       _CT??_R0?AVlogic_error@std@@@8??0logic_error@std@@QEAA@AEBV01@@Z24 00000001800603b0     libcpmt:xthrow.obj
 0002:0001a3d8       _TI3?AVlength_error@std@@  00000001800603d8     libcpmt:xthrow.obj
 0002:0001a3f8       _CTA3?AVlength_error@std@@ 00000001800603f8     libcpmt:xthrow.obj
 0002:0001a418       _CT??_R0?AVlength_error@std@@@8??0length_error@std@@QEAA@AEBV01@@Z24 0000000180060418     libcpmt:xthrow.obj
 0002:0001a440       _TI3?AVout_of_range@std@@  0000000180060440     libcpmt:xthrow.obj
 0002:0001a460       _CTA3?AVout_of_range@std@@ 0000000180060460     libcpmt:xthrow.obj
 0002:0001a480       _CT??_R0?AVout_of_range@std@@@8??0out_of_range@std@@QEAA@AEBV01@@Z24 0000000180060480     libcpmt:xthrow.obj
 0002:0001a4a8       _TI3?AVbad_array_new_length@std@@ 00000001800604a8     LIBCMT:throw_bad_alloc.obj
 0002:0001a4c8       _CTA3?AVbad_array_new_length@std@@ 00000001800604c8     LIBCMT:throw_bad_alloc.obj
 0002:0001a4e8       _CT??_R0?AVbad_array_new_length@std@@@8??0bad_array_new_length@std@@QEAA@AEBV01@@Z24 00000001800604e8     LIBCMT:throw_bad_alloc.obj
 0002:0001a510       _TI2?AVbad_exception@std@@ 0000000180060510     libvcruntime:frame.obj
 0002:0001a530       _CTA2?AVbad_exception@std@@ 0000000180060530     libvcruntime:frame.obj
 0002:0001a548       _CT??_R0?AVbad_exception@std@@@8??0bad_exception@std@@QEAA@AEBV01@@Z24 0000000180060548     libvcruntime:frame.obj
 0002:0001a56c       __DELAY_IMPORT_DESCRIPTOR_node_exe 000000018006056c     node:node.exe
 0002:0001a58c       __NULL_DELAY_IMPORT_DESCRIPTOR 000000018006058c     node:node.exe
 0002:0001a780       \177node_NULL_THUNK_DATA_DLN 0000000180060780     node:node.exe
 0002:0001b550       \177node_NULL_THUNK_DATA_DLB 0000000180061550     node:node.exe
 0002:0001b770       __IMPORT_DESCRIPTOR_KERNEL32 0000000180061770     kernel32:KERNEL32.dll
 0002:0001b784       __NULL_IMPORT_DESCRIPTOR   0000000180061784     kernel32:KERNEL32.dll
 0003:00000004       ?_Sync@ios_base@std@@0_NA  0000000180063004     libcpmt:ios.obj
 0003:00000020       ?_PJP_CPP_Copyright@@3PADA 0000000180063020     libcpmt:iosptrs.obj
 0003:00000080       _Init_global_epoch         0000000180063080     LIBCMT:thread_safe_statics.obj
 0003:00000084       __scrt_native_dllmain_reason 0000000180063084     LIBCMT:utility.obj
 0003:00000088       __security_cookie          0000000180063088     LIBCMT:gs_cookie.obj
 0003:00000090       __security_cookie_complement 0000000180063090     LIBCMT:gs_cookie.obj
 0003:00000098       _fltused                   0000000180063098     LIBCMT:fltused.obj
 0003:000000a0       __isa_available            00000001800630a0     LIBCMT:_cpu_disp_.obj
 0003:000000a4       __isa_enabled              00000001800630a4     LIBCMT:_cpu_disp_.obj
 0003:000000a8       __memcpy_nt_iters          00000001800630a8     LIBCMT:_cpu_disp_.obj
 0003:000000c0       _iob                       00000001800630c0     libucrt:_file.obj
 0003:000001c8       __abort_behavior           00000001800631c8     libucrt:abort.obj
 0003:000001e0       __acrt_lconv_c             00000001800631e0     libucrt:localeconv.obj
 0003:00000278       __acrt_lconv               0000000180063278     libucrt:localeconv.obj
 0003:00000280       __acrt_lconv_static_decimal 0000000180063280     libucrt:localeconv.obj
 0003:00000284       __acrt_lconv_static_W_decimal 0000000180063284     libucrt:localeconv.obj
 0003:00000288       _pctype                    0000000180063288     libucrt:ctype.obj
 0003:00000290       _pwctype                   0000000180063290     libucrt:ctype.obj
 0003:000002b0       __badioinfo                00000001800632b0     libucrt:ioinit.obj
 0003:00000300       __acrt_initial_locale_data 0000000180063300     libucrt:nlsdata.obj
 0003:00000458       __acrt_initial_locale_pointers 0000000180063458     libucrt:nlsdata.obj
 0003:00000468       __acrt_wide_c_locale_string 0000000180063468     libucrt:nlsdata.obj
 0003:0000046c       __mb_cur_max               000000018006346c     libucrt:nlsdata.obj
 0003:00000470       _lookuptrailbytes          0000000180063470     libucrt:read.obj
 0003:00000574       __globallocalestatus       0000000180063574     libucrt:glstatus.obj
 0003:00000610       __acrt_initial_multibyte_data 0000000180063610     libucrt:mbctype.obj
 0003:00000838       __acrt_current_multibyte_data 0000000180063838     libucrt:mbctype.obj
 0003:00000940       _mbctype                   0000000180063940     libucrt:mbctype.obj
 0003:00000a50       _mbcasemap                 0000000180063a50     libucrt:mbctype.obj
 0003:00000b50       __dcrt_lowio_console_output_handle 0000000180063b50     libucrt:initcon.obj
 0003:00000ba0       ??_R0?AVbad_alloc@std@@@8  0000000180063ba0     libcpmt:xthrow.obj
 0003:00000bc8       ??_R0?AVexception@std@@@8  0000000180063bc8     libcpmt:xthrow.obj
 0003:00000bf0       ??_R0?AVlogic_error@std@@@8 0000000180063bf0     libcpmt:xthrow.obj
 0003:00000c18       ??_R0?AVlength_error@std@@@8 0000000180063c18     libcpmt:xthrow.obj
 0003:00000c40       ??_R0?AVout_of_range@std@@@8 0000000180063c40     libcpmt:xthrow.obj
 0003:00000c68       ??_R0?AVruntime_error@std@@@8 0000000180063c68     libcpmt:xthrow.obj
 0003:00000c90       ??_R0?AV_Facet_base@std@@@8 0000000180063c90     libcpmt:locale0.obj
 0003:00000cb8       ??_R0?AV_Locimp@locale@std@@@8 0000000180063cb8     libcpmt:locale0.obj
 0003:00000ce8       ??_R0?AVfacet@locale@std@@@8 0000000180063ce8     libcpmt:locale0.obj
 0003:00000d10       ??_R0?AU_Crt_new_delete@std@@@8 0000000180063d10     libcpmt:locale0.obj
 0003:00000d40       ??_R0?AVfailure@ios_base@std@@@8 0000000180063d40     libcpmt:cout.obj
 0003:00000d70       ??_R0?AVsystem_error@std@@@8 0000000180063d70     libcpmt:cout.obj
 0003:00000d98       ??_R0?AV_System_error@std@@@8 0000000180063d98     libcpmt:cout.obj
 0003:00000dc0       ??_R0?AVios_base@std@@@8   0000000180063dc0     libcpmt:cout.obj
 0003:00000de8       ??_R0?AV?$_Iosb@H@std@@@8  0000000180063de8     libcpmt:cout.obj
 0003:00000e10       ??_R0?AV?$basic_ios@DU?$char_traits@D@std@@@std@@@8 0000000180063e10     libcpmt:cout.obj
 0003:00000e50       ??_R0?AV?$basic_streambuf@DU?$char_traits@D@std@@@std@@@8 0000000180063e50     libcpmt:cout.obj
 0003:00000ea0       ??_R0?AV?$basic_ostream@DU?$char_traits@D@std@@@std@@@8 0000000180063ea0     libcpmt:cout.obj
 0003:00000ef0       ??_R0?AV?$basic_filebuf@DU?$char_traits@D@std@@@std@@@8 0000000180063ef0     libcpmt:cout.obj
 0003:00000f38       ??_R0?AVcodecvt_base@std@@@8 0000000180063f38     libcpmt:cout.obj
 0003:00000f60       ??_R0?AUctype_base@std@@@8 0000000180063f60     libcpmt:cout.obj
 0003:00000f88       ??_R0?AV?$ctype@D@std@@@8  0000000180063f88     libcpmt:cout.obj
 0003:00000fb0       ??_R0?AVerror_category@std@@@8 0000000180063fb0     libcpmt:cout.obj
 0003:00000fe0       ??_R0?AV_Generic_error_category@std@@@8 0000000180063fe0     libcpmt:cout.obj
 0003:00001018       ??_R0?AV_Iostream_error_category@std@@@8 0000000180064018     libcpmt:cout.obj
 0003:00001050       ??_R0?AV?$codecvt@DDU_Mbstatet@@@std@@@8 0000000180064050     libcpmt:cout.obj
 0003:00001088       ??_R0?AVtype_info@@@8      0000000180064088     LIBCMT:std_type_info_static.obj
 0003:000010a8       ??_R0?AVbad_array_new_length@std@@@8 00000001800640a8     LIBCMT:throw_bad_alloc.obj
 0003:000010d8       ??_R0?AVbad_exception@std@@@8 00000001800640d8     libvcruntime:frame.obj
 0003:00001100       __imp_uv_queue_work        0000000180064100     node:node.exe
 0003:00001108       __imp_?Global@Context@v8@@QEAA?AV?$Local@VObject@v8@@@2@XZ 0000000180064108     node:node.exe
 0003:00001110       __imp_?Value@External@v8@@QEBAPEAXXZ 0000000180064110     node:node.exe
 0003:00001118       __imp_?New@External@v8@@SA?AV?$Local@VExternal@v8@@@2@PEAVIsolate@2@PEAX@Z 0000000180064118     node:node.exe
 0003:00001120       __imp_?NewFromUnsigned@Integer@v8@@SA?AV?$Local@VInteger@v8@@@2@PEAVIsolate@2@I@Z 0000000180064120     node:node.exe
 0003:00001128       __imp_?ThrowException@Isolate@v8@@QEAA?AV?$Local@VValue@v8@@@2@V32@@Z 0000000180064128     node:node.exe
 0003:00001130       __imp_?GetCurrentContext@Isolate@v8@@QEAA?AV?$Local@VContext@v8@@@2@XZ 0000000180064130     node:node.exe
 0003:00001138       __imp_?GetCurrent@Isolate@v8@@SAPEAV12@XZ 0000000180064138     node:node.exe
 0003:00001140       __imp_?CreateHandle@HandleScope@v8@@KAPEAPEAVObject@internal@2@PEAVIsolate@42@PEAV342@@Z 0000000180064140     node:node.exe
 0003:00001148       __imp_?CreateHandle@HandleScope@v8@@CAPEAPEAVObject@internal@2@PEAVHeapObject@42@PEAV342@@Z 0000000180064148     node:node.exe
 0003:00001150       __imp_??1HandleScope@v8@@QEAA@XZ 0000000180064150     node:node.exe
 0003:00001158       __imp_??0HandleScope@v8@@QEAA@PEAVIsolate@1@@Z 0000000180064158     node:node.exe
 0003:00001160       __imp_?Error@Exception@v8@@SA?AV?$Local@VValue@v8@@@2@V?$Local@VString@v8@@@2@@Z 0000000180064160     node:node.exe
 0003:00001168       __imp_?TypeError@Exception@v8@@SA?AV?$Local@VValue@v8@@@2@V?$Local@VString@v8@@@2@@Z 0000000180064168     node:node.exe
 0003:00001170       __imp_?SetClassName@FunctionTemplate@v8@@QEAAXV?$Local@VString@v8@@@2@@Z 0000000180064170     node:node.exe
 0003:00001178       __imp_?GetFunction@FunctionTemplate@v8@@QEAA?AV?$MaybeLocal@VFunction@v8@@@2@V?$Local@VContext@v8@@@2@@Z 0000000180064178     node:node.exe
 0003:00001180       __imp_?New@FunctionTemplate@v8@@SA?AV?$Local@VFunctionTemplate@v8@@@2@PEAVIsolate@2@P6AXAEBV?$FunctionCallbackInfo@VValue@v8@@@2@@ZV?$Local@VValue@v8@@@2@V?$Local@VSignature@v8@@@2@H@Z 0000000180064180     node:node.exe
 0003:00001188       __imp_?ToLocalEmpty@V8@v8@@CAXXZ 0000000180064188     node:node.exe
 0003:00001190       __imp_?FromJustIsNothing@V8@v8@@CAXXZ 0000000180064190     node:node.exe
 0003:00001198       __imp_?DisposeGlobal@V8@v8@@CAXPEAPEAVObject@internal@2@@Z 0000000180064198     node:node.exe
 0003:000011a0       __imp_?GlobalizeReference@V8@v8@@CAPEAPEAVObject@internal@2@PEAVIsolate@42@PEAPEAV342@@Z 00000001800641a0     node:node.exe
 0003:000011a8       __imp_?Int32Value@Value@v8@@QEBAHXZ 00000001800641a8     node:node.exe
 0003:000011b0       __imp_?Uint32Value@Value@v8@@QEBAIXZ 00000001800641b0     node:node.exe
 0003:000011b8       __imp_?BooleanValue@Value@v8@@QEBA_NXZ 00000001800641b8     node:node.exe
 0003:000011c0       __imp_?ToUint32@Value@v8@@QEBA?AV?$MaybeLocal@VUint32@v8@@@2@V?$Local@VContext@v8@@@2@@Z 00000001800641c0     node:node.exe
 0003:000011c8       __imp_?IsUint32@Value@v8@@QEBA_NXZ 00000001800641c8     node:node.exe
 0003:000011d0       __imp_?IsInt32@Value@v8@@QEBA_NXZ 00000001800641d0     node:node.exe
 0003:000011d8       __imp_?IsObject@Value@v8@@QEBA_NXZ 00000001800641d8     node:node.exe
 0003:000011e0       __imp_?IsFunction@Value@v8@@QEBA_NXZ 00000001800641e0     node:node.exe
 0003:000011e8       __imp_?Escape@EscapableHandleScope@v8@@AEAAPEAPEAVObject@internal@2@PEAPEAV342@@Z 00000001800641e8     node:node.exe
 0003:000011f0       __imp_??0EscapableHandleScope@v8@@QEAA@PEAVIsolate@1@@Z 00000001800641f0     node:node.exe
 0003:000011f8       __imp_?NewFromUtf8@String@v8@@SA?AV?$MaybeLocal@VString@v8@@@2@PEAVIsolate@2@PEBDW4NewStringType@2@H@Z 00000001800641f8     node:node.exe
 0003:00001200       __imp_?WriteUtf8@String@v8@@QEBAHPEADHPEAHH@Z 0000000180064200     node:node.exe
 0003:00001208       __imp_?Length@String@v8@@QEBAHXZ 0000000180064208     node:node.exe
 0003:00001210       __imp_?SlowGetInternalField@Object@v8@@AEAA?AV?$Local@VValue@v8@@@2@H@Z 0000000180064210     node:node.exe
 0003:00001218       __imp_?New@Object@v8@@SA?AV?$Local@VObject@v8@@@2@PEAVIsolate@2@@Z 0000000180064218     node:node.exe
 0003:00001220       __imp_?SetInternalField@Object@v8@@QEAAXHV?$Local@VValue@v8@@@2@@Z 0000000180064220     node:node.exe
 0003:00001228       __imp_?Has@Object@v8@@QEAA?AV?$Maybe@_N@2@V?$Local@VContext@v8@@@2@V?$Local@VValue@v8@@@2@@Z 0000000180064228     node:node.exe
 0003:00001230       __imp_?Get@Object@v8@@QEAA?AV?$MaybeLocal@VValue@v8@@@2@V?$Local@VContext@v8@@@2@V?$Local@VValue@v8@@@2@@Z 0000000180064230     node:node.exe
 0003:00001238       __imp_?Set@Object@v8@@QEAA_NV?$Local@VValue@v8@@@2@0@Z 0000000180064238     node:node.exe
 0003:00001240       __imp_?SetInternalFieldCount@ObjectTemplate@v8@@QEAAXH@Z 0000000180064240     node:node.exe
 0003:00001248       __imp_?NewInstance@ObjectTemplate@v8@@QEAA?AV?$MaybeLocal@VObject@v8@@@2@V?$Local@VContext@v8@@@2@@Z 0000000180064248     node:node.exe
 0003:00001250       __imp_?New@ObjectTemplate@v8@@SA?AV?$Local@VObjectTemplate@v8@@@2@PEAVIsolate@2@V?$Local@VFunctionTemplate@v8@@@2@@Z 0000000180064250     node:node.exe
 0003:00001258       __imp_node_module_register 0000000180064258     node:node.exe
 0003:00001260       __imp_?HasInstance@Buffer@node@@YA_NV?$Local@VValue@v8@@@v8@@@Z 0000000180064260     node:node.exe
 0003:00001268       __imp_?New@Buffer@node@@YA?AV?$MaybeLocal@VObject@v8@@@v8@@PEAVIsolate@4@PEAD_K@Z 0000000180064268     node:node.exe
 0003:00001270       __imp_?Data@Buffer@node@@YAPEADV?$Local@VObject@v8@@@v8@@@Z 0000000180064270     node:node.exe
 0003:00001278       __imp_?Length@Buffer@node@@YA_KV?$Local@VObject@v8@@@v8@@@Z 0000000180064278     node:node.exe
 0003:00001280       __imp_?MakeCallback@node@@YA?AV?$Local@VValue@v8@@@v8@@PEAVIsolate@3@V?$Local@VObject@v8@@@3@V?$Local@VFunction@v8@@@3@HPEAV23@@Z 0000000180064280     node:node.exe
 0003:00001288       __imp_uv_default_loop      0000000180064288     node:node.exe
 0003:00001290       __imp_?ToObject@Value@v8@@QEBA?AV?$Local@VObject@v8@@@2@XZ 0000000180064290     node:node.exe
 0003:00001298       __imp_?ToString@Value@v8@@QEBA?AV?$Local@VString@v8@@@2@XZ 0000000180064298     node:node.exe
 0003:000012a0       __imp_??1EscapableHandleScope@v8@@QEAA@XZ 00000001800642a0     node:node.exe
 0003:000012a8       __imp_?Length@Array@v8@@QEBAIXZ 00000001800642a8     node:node.exe
 0003:000012b0       __imp_?ToInteger@Value@v8@@QEBA?AV?$MaybeLocal@VInteger@v8@@@2@V?$Local@VContext@v8@@@2@@Z 00000001800642b0     node:node.exe
 0003:000012b8       __imp_?IsNumber@Value@v8@@QEBA_NXZ 00000001800642b8     node:node.exe
 0003:000012c0       __imp_?IsArray@Value@v8@@QEBA_NXZ 00000001800642c0     node:node.exe
 0003:000012c8       __imp_?Get@Object@v8@@QEAA?AV?$Local@VValue@v8@@@2@I@Z 00000001800642c8     node:node.exe
 0003:000012d0       \177node_NULL_THUNK_DATA_DLA 00000001800642d0     node:node.exe
 0003:000012e0       __hmod__node_exe           00000001800642e0     node:node.exe
 0003:00001448       ?_Id_cnt@id@locale@std@@0HA 0000000180064448     libcpmt:locale0.obj
 0003:00001450       ?_Clocptr@_Locimp@locale@std@@0PEAV123@EA 0000000180064450     libcpmt:locale0.obj
 0003:00001460       ?id@?$ctype@_W@std@@2V0locale@2@A 0000000180064460     libcpmt:locale0.obj
 0003:00001468       ?id@?$ctype@D@std@@2V0locale@2@A 0000000180064468     libcpmt:locale0.obj
 0003:00001470       ?id@?$codecvt@GDU_Mbstatet@@@std@@2V0locale@2@A 0000000180064470     libcpmt:locale0.obj
 0003:00001478       ?id@?$ctype@G@std@@2V0locale@2@A 0000000180064478     libcpmt:locale0.obj
 0003:00001490       ?id@?$codecvt@_WDU_Mbstatet@@@std@@2V0locale@2@A 0000000180064490     libcpmt:locale0.obj
 0003:000014fc       ?_Index@ios_base@std@@0HA  00000001800644fc     libcpmt:ios.obj
 0003:00001500       ?_Raise_handler@std@@3P6AXAEBVexception@stdext@@@ZEA 0000000180064500     libcpmt:raisehan.obj
 0003:00001520       ?cout@std@@3V?$basic_ostream@DU?$char_traits@D@std@@@1@A 0000000180064520     libcpmt:cout.obj
 0003:00001630       ?_Ptr_cin@std@@3PEAV?$basic_istream@DU?$char_traits@D@std@@@1@EA 0000000180064630     libcpmt:iosptrs.obj
 0003:00001638       ?_Ptr_cout@std@@3PEAV?$basic_ostream@DU?$char_traits@D@std@@@1@EA 0000000180064638     libcpmt:iosptrs.obj
 0003:00001640       ?_Ptr_cerr@std@@3PEAV?$basic_ostream@DU?$char_traits@D@std@@@1@EA 0000000180064640     libcpmt:iosptrs.obj
 0003:00001648       ?_Ptr_clog@std@@3PEAV?$basic_ostream@DU?$char_traits@D@std@@@1@EA 0000000180064648     libcpmt:iosptrs.obj
 0003:00001650       ?_Ptr_wcin@std@@3PEAV?$basic_istream@_WU?$char_traits@_W@std@@@1@EA 0000000180064650     libcpmt:iosptrs.obj
 0003:00001658       ?_Ptr_wcout@std@@3PEAV?$basic_ostream@_WU?$char_traits@_W@std@@@1@EA 0000000180064658     libcpmt:iosptrs.obj
 0003:00001660       ?_Ptr_wcerr@std@@3PEAV?$basic_ostream@_WU?$char_traits@_W@std@@@1@EA 0000000180064660     libcpmt:iosptrs.obj
 0003:00001668       ?_Ptr_wclog@std@@3PEAV?$basic_ostream@_WU?$char_traits@_W@std@@@1@EA 0000000180064668     libcpmt:iosptrs.obj
 0003:000016c8       ?id@?$num_get@DV?$istreambuf_iterator@DU?$char_traits@D@std@@@std@@@std@@2V0locale@2@A 00000001800646c8     libcpmt:locale.obj
 0003:000016d0       __encodedKERNEL32Functions 00000001800646d0     libcpmt:winapisupp.obj
 0003:00001810       ?id@?$time_put@_WV?$ostreambuf_iterator@_WU?$char_traits@_W@std@@@std@@@std@@2V0locale@2@A 0000000180064810     libcpmt:wlocale.obj
 0003:00001818       ?id@?$num_get@_WV?$istreambuf_iterator@_WU?$char_traits@_W@std@@@std@@@std@@2V0locale@2@A 0000000180064818     libcpmt:wlocale.obj
 0003:00001820       ?id@?$num_put@_WV?$ostreambuf_iterator@_WU?$char_traits@_W@std@@@std@@@std@@2V0locale@2@A 0000000180064820     libcpmt:wlocale.obj
 0003:00001828       ?id@?$numpunct@_W@std@@2V0locale@2@A 0000000180064828     libcpmt:wlocale.obj
 0003:00001830       ?id@?$collate@_W@std@@2V0locale@2@A 0000000180064830     libcpmt:wlocale.obj
 0003:00001838       ?id@?$messages@_W@std@@2V0locale@2@A 0000000180064838     libcpmt:wlocale.obj
 0003:00001840       ?id@?$money_get@_WV?$istreambuf_iterator@_WU?$char_traits@_W@std@@@std@@@std@@2V0locale@2@A 0000000180064840     libcpmt:wlocale.obj
 0003:00001848       ?id@?$money_put@_WV?$ostreambuf_iterator@_WU?$char_traits@_W@std@@@std@@@std@@2V0locale@2@A 0000000180064848     libcpmt:wlocale.obj
 0003:00001850       ?id@?$moneypunct@_W$0A@@std@@2V0locale@2@A 0000000180064850     libcpmt:wlocale.obj
 0003:00001858       ?id@?$moneypunct@_W$00@std@@2V0locale@2@A 0000000180064858     libcpmt:wlocale.obj
 0003:00001860       ?id@?$time_get@_WV?$istreambuf_iterator@_WU?$char_traits@_W@std@@@std@@@std@@2V0locale@2@A 0000000180064860     libcpmt:wlocale.obj
 0003:00001868       ?id@?$num_get@GV?$istreambuf_iterator@GU?$char_traits@G@std@@@std@@@std@@2V0locale@2@A 0000000180064868     libcpmt:wlocale.obj
 0003:00001870       ?id@?$num_put@GV?$ostreambuf_iterator@GU?$char_traits@G@std@@@std@@@std@@2V0locale@2@A 0000000180064870     libcpmt:wlocale.obj
 0003:00001878       ?id@?$numpunct@G@std@@2V0locale@2@A 0000000180064878     libcpmt:wlocale.obj
 0003:00001880       ?id@?$collate@G@std@@2V0locale@2@A 0000000180064880     libcpmt:wlocale.obj
 0003:00001888       ?id@?$messages@G@std@@2V0locale@2@A 0000000180064888     libcpmt:wlocale.obj
 0003:00001890       ?id@?$money_get@GV?$istreambuf_iterator@GU?$char_traits@G@std@@@std@@@std@@2V0locale@2@A 0000000180064890     libcpmt:wlocale.obj
 0003:00001898       ?id@?$money_put@GV?$ostreambuf_iterator@GU?$char_traits@G@std@@@std@@@std@@2V0locale@2@A 0000000180064898     libcpmt:wlocale.obj
 0003:000018a0       ?id@?$moneypunct@G$0A@@std@@2V0locale@2@A 00000001800648a0     libcpmt:wlocale.obj
 0003:000018a8       ?id@?$moneypunct@G$00@std@@2V0locale@2@A 00000001800648a8     libcpmt:wlocale.obj
 0003:000018b0       ?id@?$time_get@GV?$istreambuf_iterator@GU?$char_traits@G@std@@@std@@@std@@2V0locale@2@A 00000001800648b0     libcpmt:wlocale.obj
 0003:000018b8       ?id@?$time_put@GV?$ostreambuf_iterator@GU?$char_traits@G@std@@@std@@@std@@2V0locale@2@A 00000001800648b8     libcpmt:wlocale.obj
 0003:000018c0       ?id@?$collate@D@std@@2V0locale@2@A 00000001800648c0     libcpmt:xlocale.obj
 0003:000018c8       ?id@?$messages@D@std@@2V0locale@2@A 00000001800648c8     libcpmt:xlocale.obj
 0003:000018d0       ?id@?$money_get@DV?$istreambuf_iterator@DU?$char_traits@D@std@@@std@@@std@@2V0locale@2@A 00000001800648d0     libcpmt:xlocale.obj
 0003:000018d8       ?id@?$money_put@DV?$ostreambuf_iterator@DU?$char_traits@D@std@@@std@@@std@@2V0locale@2@A 00000001800648d8     libcpmt:xlocale.obj
 0003:000018e0       ?id@?$moneypunct@D$0A@@std@@2V0locale@2@A 00000001800648e0     libcpmt:xlocale.obj
 0003:000018e8       ?id@?$moneypunct@D$00@std@@2V0locale@2@A 00000001800648e8     libcpmt:xlocale.obj
 0003:000018f0       ?id@?$time_get@DV?$istreambuf_iterator@DU?$char_traits@D@std@@@std@@@std@@2V0locale@2@A 00000001800648f0     libcpmt:xlocale.obj
 0003:000018f8       ?id@?$time_put@DV?$ostreambuf_iterator@DU?$char_traits@D@std@@@std@@@std@@2V0locale@2@A 00000001800648f8     libcpmt:xlocale.obj
 0003:00001948       __scrt_current_native_startup_state 0000000180064948     LIBCMT:utility.obj
 0003:00001950       __scrt_native_startup_lock 0000000180064950     LIBCMT:utility.obj
 0003:00001f00       __scrt_debugger_hook_flag  0000000180064f00     LIBCMT:utility_desktop.obj
 0003:00001f04       _tls_index                 0000000180064f04     LIBCMT:tlssup.obj
 0003:00001f08       __favor                    0000000180064f08     LIBCMT:_cpu_disp_.obj
 0003:00001f10       ?__type_info_root_node@@3U__type_info_node@@A 0000000180064f10     LIBCMT:tncleanup.obj
 0003:00001f20       ?_OptionsStorage@?1??__local_stdio_scanf_options@@9@4_KA 0000000180064f20     LIBCMT:default_local_stdio_options.obj
 0003:00001f28       ?g_OutOfMemoryExceptionCallback@@3P6APEAXXZEA 0000000180064f28     libvcruntime:frame.obj
 0003:00001f98       __pPurecall                0000000180064f98     libvcruntime:purevirt_data.obj
 0003:00002048       ?pArgList@UnDecorator@@0PEAVReplicator@@EA 0000000180065048     libvcruntime:undname.obj
 0003:00002050       ?pZNameList@UnDecorator@@0PEAVReplicator@@EA 0000000180065050     libvcruntime:undname.obj
 0003:00002058       ?pTemplateArgList@UnDecorator@@0PEAVReplicator@@EA 0000000180065058     libvcruntime:undname.obj
 0003:00002060       ?gName@UnDecorator@@0PEBDEB 0000000180065060     libvcruntime:undname.obj
 0003:00002068       ?name@UnDecorator@@0PEBDEB 0000000180065068     libvcruntime:undname.obj
 0003:00002070       ?outputString@UnDecorator@@0PEADEA 0000000180065070     libvcruntime:undname.obj
 0003:00002078       ?maxStringLength@UnDecorator@@0HA 0000000180065078     libvcruntime:undname.obj
 0003:0000207c       ?disableFlags@UnDecorator@@0KA 000000018006507c     libvcruntime:undname.obj
 0003:00002080       ?fExplicitTemplateParams@UnDecorator@@0_NA 0000000180065080     libvcruntime:undname.obj
 0003:00002081       ?fGetTemplateArgumentList@UnDecorator@@0_NA 0000000180065081     libvcruntime:undname.obj
 0003:00002088       ?m_pGetParameter@UnDecorator@@0P6APEADJ@ZEA 0000000180065088     libvcruntime:undname.obj
 0003:000020c0       _nstream                   00000001800650c0     libucrt:_file.obj
 0003:000020c8       __piob                     00000001800650c8     libucrt:_file.obj
 0003:000020d0       _cflush                    00000001800650d0     libucrt:_file.obj
 0003:000020e1       __acrt_lconv_static_null   00000001800650e1     libucrt:localeconv.obj
 0003:000020e4       __acrt_lconv_static_W_null 00000001800650e4     libucrt:localeconv.obj
 0003:00002418       _environ_table             0000000180065418     libucrt:environment_initialization.obj
 0003:00002420       _wenviron_table            0000000180065420     libucrt:environment_initialization.obj
 0003:00002428       __dcrt_initial_wide_environment 0000000180065428     libucrt:environment_initialization.obj
 0003:00002430       __dcrt_initial_narrow_environment 0000000180065430     libucrt:environment_initialization.obj
 0003:00002438       __acrt_atexit_table        0000000180065438     libucrt:onexit.obj
 0003:00002450       __acrt_at_quick_exit_table 0000000180065450     libucrt:onexit.obj
 0003:00002640       __pioinfo                  0000000180065640     libucrt:ioinit.obj
 0003:00002a40       _nhandle                   0000000180065a40     libucrt:ioinit.obj
 0003:00002a50       __acrt_stdout_buffer       0000000180065a50     libucrt:_sftbuf.obj
 0003:00002a58       __acrt_stderr_buffer       0000000180065a58     libucrt:_sftbuf.obj
 0003:00002a60       __acrt_locale_changed_data 0000000180065a60     libucrt:wsetlocale.obj
 0003:00002a68       __acrt_current_locale_data 0000000180065a68     libucrt:nlsdata.obj
 0003:00002a78       __acrt_heap                0000000180065a78     libucrt:heap_handle.obj
 0003:00002a80       __fma3_is_available        0000000180065a80     libucrt:fma3_available.obj
 0003:00002a84       __use_fma3_lib             0000000180065a84     libucrt:fma3_available.obj
 0003:00002a88       ?_timezone@@3V?$dual_state_global@J@__crt_state_management@@A 0000000180065a88     libucrt:timeset.obj
 0003:00002a8c       ?_daylight@@3V?$dual_state_global@H@__crt_state_management@@A 0000000180065a8c     libucrt:timeset.obj
 0003:00002a90       ?_dstbias@@3V?$dual_state_global@J@__crt_state_management@@A 0000000180065a90     libucrt:timeset.obj
 0003:00002b5c       __mbcodepage               0000000180065b5c     libucrt:mbctype.obj
 0003:00002b60       __ismbcodepage             0000000180065b60     libucrt:mbctype.obj
 0003:00002b68       __mbulinfo                 0000000180065b68     libucrt:mbctype.obj
 0003:00002b78       __mblocalename             0000000180065b78     libucrt:mbctype.obj
 0003:00002b84       __argc                     0000000180065b84     libucrt:argv_data.obj
 0003:00002b88       __argv                     0000000180065b88     libucrt:argv_data.obj
 0003:00002b90       __wargv                    0000000180065b90     libucrt:argv_data.obj
 0003:00002b98       _acmdln                    0000000180065b98     libucrt:argv_data.obj
 0003:00002ba0       _wcmdln                    0000000180065ba0     libucrt:argv_data.obj
 0003:00002ba8       _pgmptr                    0000000180065ba8     libucrt:argv_data.obj
 0003:00002bb8       _commode                   0000000180065bb8     libucrt:ncommode.obj
 0003:00002bbc       _umaskval                  0000000180065bbc     libucrt:umask.obj
 0003:00002bc0       _fmode                     0000000180065bc0     libucrt:txtmode.obj
 0003:00002bc8       ?DloadKernel32@@3PEAUHINSTANCE__@@EA 0000000180065bc8     DelayImp:delayhlp.obj
 0003:00002bd0       ?DloadAcquireSRWLockExclusive@@3P6AXPEA_K@ZEA 0000000180065bd0     DelayImp:delayhlp.obj
 0003:00002bd8       ?DloadReleaseSRWLockExclusive@@3P6AXPEA_K@ZEA 0000000180065bd8     DelayImp:delayhlp.obj
 0003:00002be0       ?DloadSrwLock@@3_KA        0000000180065be0     DelayImp:delayhlp.obj
 0003:00002be8       ?DloadSectionLockCount@@3KA 0000000180065be8     DelayImp:delayhlp.obj
 0003:00002bec       ?DloadSectionOldProtection@@3KA 0000000180065bec     DelayImp:delayhlp.obj
 0003:00002bf0       ?DloadSectionCommitPermanent@@3KA 0000000180065bf0     DelayImp:delayhlp.obj
 0003:00002bf8       ?_OptionsStorage@?1??__local_stdio_printf_options@@9@4_KA 0000000180065bf8     zopflipng.obj
 0003:00003010       ?_Static@?1???$_Immortalize@V_Iostream_error_category@std@@@std@@YAAEAV_Iostream_error_category@1@XZ@4U?$_Immortalizer@V_Iostream_error_category@std@@@1@A 0000000180066010     lodepng.obj
 0003:00003020       ?$TSS0@?1???$_Immortalize@V_Iostream_error_category@std@@@std@@YAAEAV_Iostream_error_category@1@XZ@4HA 0000000180066020     lodepng.obj
 0003:00003028       ?_Psave@?$_Facetptr@V?$codecvt@DDU_Mbstatet@@@std@@@std@@2PEBVfacet@locale@2@EB 0000000180066028     lodepng.obj
 0003:00003030       ?_Psave@?$_Facetptr@V?$ctype@D@std@@@std@@2PEBVfacet@locale@2@EB 0000000180066030     lodepng.obj
 0003:00003038       ?_Stinit@?1??_Init@?$basic_filebuf@DU?$char_traits@D@std@@@std@@IEAAXPEAU_iobuf@@W4_Initfl@23@@Z@4U_Mbstatet@@A 0000000180066038     lodepng.obj
 0003:00003040       ?id@?$codecvt@DDU_Mbstatet@@@std@@2V0locale@2@A 0000000180066040     lodepng.obj
 0003:00003048       ?id@?$num_put@DV?$ostreambuf_iterator@DU?$char_traits@D@std@@@std@@@std@@2V0locale@2@A 0000000180066048     lodepng_util.obj
 0003:00003050       ?id@?$numpunct@D@std@@2V0locale@2@A 0000000180066050     lodepng_util.obj
 0003:00003058       __dyn_tls_init_callback    0000000180066058     <common>
 0003:00003060       __scrt_ucrt_dll_is_in_use  0000000180066060     <common>
 0006:00000000       _tls_start                 000000018006c000     LIBCMT:tlssup.obj
 0006:00000004       _Init_thread_epoch         000000018006c004     LIBCMT:thread_safe_statics.obj
 0006:00000008       _tls_end                   000000018006c008     LIBCMT:tlssup.obj

 entry point at        0001:0002396c

 Static symbols

 0000:fff90000       .debug$S                   0000000180000000     kernel32:KERNEL32.dll
 0000:fff90000       .debug$S                   0000000180000000     node:node.exe
 0000:fff90000       .debug$S                   0000000180000000     zopfli.exp
 0000:fff90000       .debug$S                   0000000180000000     kernel32:KERNEL32.dll
 0000:fff90000       .debug$S                   0000000180000000     kernel32:KERNEL32.dll
 0000:fff90000       .debug$S                   0000000180000000     kernel32:KERNEL32.dll
 0000:fff90000       .debug$S                   0000000180000000     kernel32:KERNEL32.dll
 0000:fff90000       .debug$S                   0000000180000000     kernel32:KERNEL32.dll
 0000:fff90000       .debug$S                   0000000180000000     kernel32:KERNEL32.dll
 0000:fff90000       .debug$S                   0000000180000000     kernel32:KERNEL32.dll
 0000:fff90000       .debug$S                   0000000180000000     kernel32:KERNEL32.dll
 0000:fff90000       .debug$S                   0000000180000000     kernel32:KERNEL32.dll
 0000:fff90000       .debug$S                   0000000180000000     kernel32:KERNEL32.dll
 0000:fff90000       .debug$S                   0000000180000000     kernel32:KERNEL32.dll
 0000:fff90000       .debug$S                   0000000180000000     kernel32:KERNEL32.dll
 0000:fff90000       .debug$S                   0000000180000000     kernel32:KERNEL32.dll
 0000:fff90000       .debug$S                   0000000180000000     kernel32:KERNEL32.dll
 0000:fff90000       .debug$S                   0000000180000000     kernel32:KERNEL32.dll
 0000:fff90000       .debug$S                   0000000180000000     kernel32:KERNEL32.dll
 0000:fff90000       .debug$S                   0000000180000000     kernel32:KERNEL32.dll
 0000:fff90000       .debug$S                   0000000180000000     kernel32:KERNEL32.dll
 0000:fff90000       .debug$S                   0000000180000000     kernel32:KERNEL32.dll
 0000:fff90000       .debug$S                   0000000180000000     kernel32:KERNEL32.dll
 0000:fff90000       .debug$S                   0000000180000000     kernel32:KERNEL32.dll
 0000:fff90000       .debug$S                   0000000180000000     kernel32:KERNEL32.dll
 0000:fff90000       .debug$S                   0000000180000000     kernel32:KERNEL32.dll
 0000:fff90000       .debug$S                   0000000180000000     kernel32:KERNEL32.dll
 0000:fff90000       .debug$S                   0000000180000000     kernel32:KERNEL32.dll
 0000:fff90000       .debug$S                   0000000180000000     node:node.exe
 0000:fff90000       .debug$S                   0000000180000000     node:node.exe
 0000:fff90000       .debug$S                   0000000180000000     kernel32:KERNEL32.dll
 0000:fff90000       .debug$S                   0000000180000000     kernel32:KERNEL32.dll
 0000:fff90000       .debug$S                   0000000180000000     kernel32:KERNEL32.dll
 0000:fff90000       .debug$S                   0000000180000000     kernel32:KERNEL32.dll
 0000:fff90000       .debug$S                   0000000180000000     kernel32:KERNEL32.dll
 0000:fff90000       .debug$S                   0000000180000000     kernel32:KERNEL32.dll
 0000:fff90000       .debug$S                   0000000180000000     kernel32:KERNEL32.dll
 0000:fff90000       .debug$S                   0000000180000000     kernel32:KERNEL32.dll
 0000:fff90000       .debug$S                   0000000180000000     kernel32:KERNEL32.dll
 0000:fff90000       .debug$S                   0000000180000000     kernel32:KERNEL32.dll
 0000:fff90000       .debug$S                   0000000180000000     kernel32:KERNEL32.dll
 0000:fff90000       .debug$S                   0000000180000000     kernel32:KERNEL32.dll
 0000:fff90000       .debug$S                   0000000180000000     kernel32:KERNEL32.dll
 0000:fff90000       .debug$S                   0000000180000000     kernel32:KERNEL32.dll
 0000:fff90000       .debug$S                   0000000180000000     kernel32:KERNEL32.dll
 0000:fff90000       .debug$S                   0000000180000000     kernel32:KERNEL32.dll
 0000:fff90000       .debug$S                   0000000180000000     kernel32:KERNEL32.dll
 0000:fff90000       .debug$S                   0000000180000000     kernel32:KERNEL32.dll
 0000:fff90000       .debug$S                   0000000180000000     kernel32:KERNEL32.dll
 0000:fff90000       .debug$S                   0000000180000000     kernel32:KERNEL32.dll
 0000:fff90000       .debug$S                   0000000180000000     kernel32:KERNEL32.dll
 0000:fff90000       .debug$S                   0000000180000000     kernel32:KERNEL32.dll
 0000:fff90000       .debug$S                   0000000180000000     kernel32:KERNEL32.dll
 0000:fff90000       .debug$S                   0000000180000000     kernel32:KERNEL32.dll
 0000:fff90000       .debug$S                   0000000180000000     kernel32:KERNEL32.dll
 0000:fff90000       .debug$S                   0000000180000000     kernel32:KERNEL32.dll
 0000:fff90000       .debug$S                   0000000180000000     node:node.exe
 0000:fff90000       .debug$S                   0000000180000000     kernel32:KERNEL32.dll
 0000:fff90000       .debug$S                   0000000180000000     kernel32:KERNEL32.dll
 0000:fff90000       .debug$S                   0000000180000000     kernel32:KERNEL32.dll
 0000:fff90000       .debug$S                   0000000180000000     kernel32:KERNEL32.dll
 0000:fff90000       .debug$S                   0000000180000000     kernel32:KERNEL32.dll
 0000:fff90000       .debug$S                   0000000180000000     kernel32:KERNEL32.dll
 0000:fff90000       .debug$S                   0000000180000000     kernel32:KERNEL32.dll
 0000:fff90000       .debug$S                   0000000180000000     kernel32:KERNEL32.dll
 0000:fff90000       .debug$S                   0000000180000000     kernel32:KERNEL32.dll
 0000:fff90000       .debug$S                   0000000180000000     kernel32:KERNEL32.dll
 0000:fff90000       .debug$S                   0000000180000000     kernel32:KERNEL32.dll
 0000:fff90000       .debug$S                   0000000180000000     kernel32:KERNEL32.dll
 0000:fff90000       .debug$S                   0000000180000000     kernel32:KERNEL32.dll
 0000:fff90000       .debug$S                   0000000180000000     kernel32:KERNEL32.dll
 0000:fff90000       .debug$S                   0000000180000000     kernel32:KERNEL32.dll
 0000:fff90000       .debug$S                   0000000180000000     kernel32:KERNEL32.dll
 0000:fff90000       .debug$S                   0000000180000000     kernel32:KERNEL32.dll
 0000:fff90000       .debug$S                   0000000180000000     kernel32:KERNEL32.dll
 0000:fff90000       .debug$S                   0000000180000000     kernel32:KERNEL32.dll
 0000:fff90000       .debug$S                   0000000180000000     kernel32:KERNEL32.dll
 0000:fff90000       .debug$S                   0000000180000000     kernel32:KERNEL32.dll
 0000:fff90000       .debug$S                   0000000180000000     kernel32:KERNEL32.dll
 0000:fff90000       .debug$S                   0000000180000000     kernel32:KERNEL32.dll
 0000:fff90000       .debug$S                   0000000180000000     kernel32:KERNEL32.dll
 0000:fff90000       .debug$S                   0000000180000000     kernel32:KERNEL32.dll
 0000:fff90000       .debug$S                   0000000180000000     kernel32:KERNEL32.dll
 0000:fff90000       .debug$S                   0000000180000000     node:node.exe
 0000:fff90000       .debug$S                   0000000180000000     node:node.exe
 0000:fff90000       .debug$S                   0000000180000000     node:node.exe
 0000:fff90000       .debug$S                   0000000180000000     node:node.exe
 0000:fff90000       .debug$S                   0000000180000000     kernel32:KERNEL32.dll
 0000:fff90000       .debug$S                   0000000180000000     kernel32:KERNEL32.dll
 0000:fff90000       .debug$S                   0000000180000000     kernel32:KERNEL32.dll
 0000:fff90000       .debug$S                   0000000180000000     kernel32:KERNEL32.dll
 0000:fff90000       .debug$S                   0000000180000000     kernel32:KERNEL32.dll
 0000:fff90000       .debug$S                   0000000180000000     kernel32:KERNEL32.dll
 0000:fff90000       .debug$S                   0000000180000000     kernel32:KERNEL32.dll
 0000:fff90000       .debug$S                   0000000180000000     kernel32:KERNEL32.dll
 0000:fff90000       .debug$S                   0000000180000000     kernel32:KERNEL32.dll
 0000:fff90000       .debug$S                   0000000180000000     node:node.exe
 0000:fff90000       .debug$S                   0000000180000000     kernel32:KERNEL32.dll
 0000:fff90000       .debug$S                   0000000180000000     kernel32:KERNEL32.dll
 0000:fff90000       .debug$S                   0000000180000000     kernel32:KERNEL32.dll
 0000:fff90000       .debug$S                   0000000180000000     kernel32:KERNEL32.dll
 0000:fff90000       .debug$S                   0000000180000000     node:node.exe
 0000:fff90000       .debug$S                   0000000180000000     kernel32:KERNEL32.dll
 0000:fff90000       .debug$S                   0000000180000000     kernel32:KERNEL32.dll
 0000:fff90000       .debug$S                   0000000180000000     kernel32:KERNEL32.dll
 0000:fff90000       .debug$S                   0000000180000000     kernel32:KERNEL32.dll
 0000:fff90000       .debug$S                   0000000180000000     kernel32:KERNEL32.dll
 0000:fff90000       .debug$S                   0000000180000000     kernel32:KERNEL32.dll
 0000:fff90000       .debug$S                   0000000180000000     kernel32:KERNEL32.dll
 0000:fff90000       .debug$S                   0000000180000000     kernel32:KERNEL32.dll
 0000:fff90000       .debug$S                   0000000180000000     node:node.exe
 0000:fff90000       .debug$S                   0000000180000000     kernel32:KERNEL32.dll
 0000:fff90000       .debug$S                   0000000180000000     node:node.exe
 0000:fff90000       .debug$S                   0000000180000000     kernel32:KERNEL32.dll
 0000:fff90000       .debug$S                   0000000180000000     kernel32:KERNEL32.dll
 0000:fff90000       .debug$S                   0000000180000000     node:node.exe
 0000:fff90000       .debug$S                   0000000180000000     kernel32:KERNEL32.dll
 0000:fff90000       .debug$S                   0000000180000000     node:node.exe
 0000:fff90000       .debug$S                   0000000180000000     node:node.exe
 0000:fff90000       .debug$S                   0000000180000000     node:node.exe
 0000:fff90000       .debug$S                   0000000180000000     node:node.exe
 0000:fff90000       .debug$S                   0000000180000000     node:node.exe
 0000:fff90000       .debug$S                   0000000180000000     node:node.exe
 0000:fff90000       .debug$S                   0000000180000000     node:node.exe
 0000:fff90000       .debug$S                   0000000180000000     node:node.exe
 0000:fff90000       .debug$S                   0000000180000000     node:node.exe
 0000:fff90000       .debug$S                   0000000180000000     node:node.exe
 0000:fff90000       .debug$S                   0000000180000000     node:node.exe
 0000:fff90000       .debug$S                   0000000180000000     node:node.exe
 0000:fff90000       .debug$S                   0000000180000000     node:node.exe
 0000:fff90000       .debug$S                   0000000180000000     node:node.exe
 0000:fff90000       .debug$S                   0000000180000000     node:node.exe
 0000:fff90000       .debug$S                   0000000180000000     node:node.exe
 0000:fff90000       .debug$S                   0000000180000000     node:node.exe
 0000:fff90000       .debug$S                   0000000180000000     node:node.exe
 0000:fff90000       .debug$S                   0000000180000000     node:node.exe
 0000:fff90000       .debug$S                   0000000180000000     node:node.exe
 0000:fff90000       .debug$S                   0000000180000000     node:node.exe
 0000:fff90000       .debug$S                   0000000180000000     node:node.exe
 0000:fff90000       .debug$S                   0000000180000000     node:node.exe
 0000:fff90000       .debug$S                   0000000180000000     node:node.exe
 0000:fff90000       .debug$S                   0000000180000000     node:node.exe
 0000:fff90000       .debug$S                   0000000180000000     node:node.exe
 0000:fff90000       .debug$S                   0000000180000000     node:node.exe
 0000:fff90000       .debug$S                   0000000180000000     node:node.exe
 0000:fff90000       .debug$S                   0000000180000000     node:node.exe
 0000:fff90000       .debug$S                   0000000180000000     node:node.exe
 0000:fff90000       .debug$S                   0000000180000000     node:node.exe
 0000:fff90000       .debug$S                   0000000180000000     node:node.exe
 0000:fff90000       .debug$S                   0000000180000000     node:node.exe
 0000:fff90000       .debug$S                   0000000180000000     node:node.exe
 0000:fff90000       .debug$S                   0000000180000000     node:node.exe
 0000:fff90000       .debug$S                   0000000180000000     node:node.exe
 0000:fff90000       .debug$S                   0000000180000000     node:node.exe
 0000:fff90000       .debug$S                   0000000180000000     node:node.exe
 0000:fff90000       .debug$S                   0000000180000000     node:node.exe
 0000:fff90000       .debug$S                   0000000180000000     node:node.exe
 0000:fff90000       .debug$S                   0000000180000000     node:node.exe
 0000:fff90000       .debug$S                   0000000180000000     node:node.exe
 0000:fff90000       .debug$S                   0000000180000000     node:node.exe
 0000:fff90000       .debug$S                   0000000180000000     node:node.exe
 0000:fff90000       .debug$S                   0000000180000000     node:node.exe
 0000:fff90000       .debug$S                   0000000180000000     node:node.exe
 0000:fff90000       .debug$S                   0000000180000000     node:node.exe
 0000:fff90000       .debug$S                   0000000180000000     node:node.exe
 0000:fff90000       .debug$S                   0000000180000000     node:node.exe
 0000:fff90000       .debug$S                   0000000180000000     node:node.exe
 0000:fff90000       .debug$S                   0000000180000000     node:node.exe
 0000:fff90000       .debug$S                   0000000180000000     node:node.exe
 0000:fff90000       .debug$S                   0000000180000000     node:node.exe
 0000:fff90000       .debug$S                   0000000180000000     node:node.exe
 0000:fff90000       .debug$S                   0000000180000000     node:node.exe
 0000:fff90000       .debug$S                   0000000180000000     node:node.exe
 0001:00000000       ??__Einitlocks@std@@YAXXZ  0000000180001000 f   libcpmt:xlock.obj
 0001:00000020       ??__E_Fac_tidy_reg@std@@YAXXZ 0000000180001020 f   libcpmt:locale0.obj
 0001:0000002c       ??__Eclassic_locale@std@@YAXXZ 000000018000102c f   libcpmt:locale0.obj
 0001:00000038       ??__Ecout@std@@YAXXZ       0000000180001038 f   libcpmt:cout.obj
 0001:00000068       ??__Efout@std@@YAXXZ       0000000180001068 f   libcpmt:cout.obj
 0001:000000b8       ??__Einit_cout@std@@YAXXZ  00000001800010b8 f   libcpmt:cout.obj
 0001:000000c4       ??__Einitlocks@@YAXXZ      00000001800010c4 f   libcpmt:cout.obj
 0001:000000e4       ??__Einit_atexit@@YAXXZ    00000001800010e4 f   libcpmt:iosptrs.obj
 0001:000000f0       ??__Einitlocks@std@@YAXXZ  00000001800010f0 f   libcpmt:iosptrs.obj
 0001:00000180       ?FunctionCallbackWrapper@imp@Nan@@YAXAEBV?$FunctionCallbackInfo@VValue@v8@@@v8@@@Z 0000000180001180 f   zopfli-binding.obj
 0001:00001d50       _register_zopfli           0000000180002d50 f   zopfli-binding.obj
 0001:00003f80       FindMinimum                0000000180004f80 f   blocksplitter.obj
 0001:000041a0       SplitCost                  00000001800051a0 f   blocksplitter.obj
 0001:00004210       AddSorted                  0000000180005210 f   blocksplitter.obj
 0001:000042d0       PrintBlockSplitPoints      00000001800052d0 f   blocksplitter.obj
 0001:00004c20       AddBit                     0000000180005c20 f   deflate.obj
 0001:00004cb0       AddBits                    0000000180005cb0 f   deflate.obj
 0001:00004d80       AddHuffmanBits             0000000180005d80 f   deflate.obj
 0001:00004e50       EncodeTree                 0000000180005e50 f   deflate.obj
 0001:00005bf0       AddLZ77Data                0000000180006bf0 f   deflate.obj
 0001:000060b0       GetDynamicLengths          00000001800070b0 f   deflate.obj
 0001:000064d0       AddLZ77Block               00000001800074d0 f   deflate.obj
 0001:00006aa0       DeflateDynamicBlock        0000000180007aa0 f   deflate.obj
 0001:00006ca0       DeflateSplittingFirst      0000000180007ca0 f   deflate.obj
 0001:00006da0       DeflateSplittingLast       0000000180007da0 f   deflate.obj
 0001:00007100       MakeCRCTable               0000000180008100 f   gzip_container.obj
 0001:00007990       GetFreeNode                0000000180008990 f   katajainen.obj
 0001:00007a60       BoundaryPM                 0000000180008a60 f   katajainen.obj
 0001:00007bc0       InitLists                  0000000180008bc0 f   katajainen.obj
 0001:00007d00       LeafComparator             0000000180008d00 f   katajainen.obj
 0001:000080b0       TryGetFromLongestMatchCache 00000001800090b0 f   lz77.obj
 0001:000082d0       StoreInLongestMatchCache   00000001800092d0 f   lz77.obj
 0001:00008ee0       CopyStats                  0000000180009ee0 f   squeeze.obj
 0001:00009090       AddWeighedStatFreqs        000000018000a090 f   squeeze.obj
 0001:00009710       RandomizeFreqs             000000018000a710 f   squeeze.obj
 0001:000097e0       GetCostFixed               000000018000a7e0 f   squeeze.obj
 0001:00009870       GetCostStat                000000018000a870 f   squeeze.obj
 0001:000098f0       GetCostModelMinCost        000000018000a8f0 f   squeeze.obj
 0001:000099b0       GetBestLengths             000000018000a9b0 f   squeeze.obj
 0001:00009e80       TraceBackwards             000000018000ae80 f   squeeze.obj
 0001:00009fd0       FollowPath                 000000018000afd0 f   squeeze.obj
 0001:0000ae80       adler32                    000000018000be80 f   zlib_container.obj
 0001:0000c418       $LN756                     000000018000d418     zopflipng_lib.obj
 0001:0000f300       ?uivector_resize@@YAIPEAUuivector@@_K@Z 0000000180010300 f   lodepng.obj
 0001:0000f380       ?uivector_resizev@@YAIPEAUuivector@@_KI@Z 0000000180010380 f   lodepng.obj
 0001:0000f410       ?uivector_push_back@@YAIPEAUuivector@@I@Z 0000000180010410 f   lodepng.obj
 0001:0000f4a0       ?ucvector_resize@@YAIPEAUucvector@@_K@Z 00000001800104a0 f   lodepng.obj
 0001:0000f510       ?ucvector_push_back@@YAIPEAUucvector@@E@Z 0000000180010510 f   lodepng.obj
 0001:0000f580       ?string_init@@YAXPEAPEAD@Z 0000000180010580 f   lodepng.obj
 0001:0000f5b0       ?string_set@@YAXPEAPEADPEBD@Z 00000001800105b0 f   lodepng.obj
 0001:0000f630       ?addBitsToStream@@YAXPEA_KPEAUucvector@@I_K@Z 0000000180010630 f   lodepng.obj
 0001:0000f6f0       ?addBitsToStreamReversed@@YAXPEA_KPEAUucvector@@I_K@Z 00000001800106f0 f   lodepng.obj
 0001:0000f7c0       ?readBitsFromStream@@YAIPEA_KPEBE_K@Z 00000001800107c0 f   lodepng.obj
 0001:0000f830       ?HuffmanTree_make2DTree@@YAIPEAUHuffmanTree@@@Z 0000000180010830 f   lodepng.obj
 0001:0000f9c0       ?HuffmanTree_makeFromLengths2@@YAIPEAUHuffmanTree@@@Z 00000001800109c0 f   lodepng.obj
 0001:0000fb70       ?HuffmanTree_makeFromLengths@@YAIPEAUHuffmanTree@@PEBI_KI@Z 0000000180010b70 f   lodepng.obj
 0001:0000fd70       ?add_coins@@YAXPEAUCoin@@PEBU1@@Z 0000000180010d70 f   lodepng.obj
 0001:0000fe20       ?coin_compare@@YAHPEBX0@Z  0000000180010e20 f   lodepng.obj
 0001:0000fe40       ?append_symbol_coins@@YAIPEAUCoin@@PEBII_K@Z 0000000180010e40 f   lodepng.obj
 0001:00010430       ?HuffmanTree_makeFromFrequencies@@YAIPEAUHuffmanTree@@PEBI_K2I@Z 0000000180011430 f   lodepng.obj
 0001:000104f0       ?generateFixedLitLenTree@@YAIPEAUHuffmanTree@@@Z 00000001800114f0 f   lodepng.obj
 0001:00010650       ?generateFixedDistanceTree@@YAIPEAUHuffmanTree@@@Z 0000000180011650 f   lodepng.obj
 0001:00010710       ?getTreeInflateDynamic@@YAIPEAUHuffmanTree@@0PEBEPEA_K_K@Z 0000000180011710 f   lodepng.obj
 0001:00010ec0       ?inflateHuffmanBlock@@YAIPEAUucvector@@PEBEPEA_K2_KI@Z 0000000180011ec0 f   lodepng.obj
 0001:000112c0       ?inflateNoCompression@@YAIPEAUucvector@@PEBEPEA_K2_K@Z 00000001800122c0 f   lodepng.obj
 0001:000113f0       ?lodepng_inflatev@@YAIPEAUucvector@@PEBE_KPEBULodePNGDecompressSettings@@@Z 00000001800123f0 f   lodepng.obj
 0001:00011530       ?addLengthDistance@@YAXPEAUuivector@@_K1@Z 0000000180012530 f   lodepng.obj
 0001:00011650       ?hash_init@@YAIPEAUHash@@I@Z 0000000180012650 f   lodepng.obj
 0001:00011710       ?getHash@@YAIPEBE_K1@Z     0000000180012710 f   lodepng.obj
 0001:00011790       ?encodeLZ77@@YAIPEAUuivector@@PEAUHash@@PEBE_K3IIII@Z 0000000180012790 f   lodepng.obj
 0001:00011da0       ?deflateNoCompression@@YAIPEAUucvector@@PEBE_K@Z 0000000180012da0 f   lodepng.obj
 0001:00011ff0       ?writeLZ77data@@YAXPEA_KPEAUucvector@@PEBUuivector@@PEBUHuffmanTree@@3@Z 0000000180012ff0 f   lodepng.obj
 0001:00012110       ?deflateDynamic@@YAIPEAUucvector@@PEA_KPEAUHash@@PEBE_K4PEBULodePNGCompressSettings@@H@Z 0000000180013110 f   lodepng.obj
 0001:00012940       ?deflateFixed@@YAIPEAUucvector@@PEA_KPEAUHash@@PEBE_K4PEBULodePNGCompressSettings@@H@Z 0000000180013940 f   lodepng.obj
 0001:00012cc0       ?lodepng_deflatev@@YAIPEAUucvector@@PEBE_KPEBULodePNGCompressSettings@@@Z 0000000180013cc0 f   lodepng.obj
 0001:00012e70       ?update_adler32@@YAIIPEBEI@Z 0000000180013e70 f   lodepng.obj
 0001:00013620       ?checkColorValidity@@YAIW4LodePNGColorType@@I@Z 0000000180014620 f   lodepng.obj
 0001:00013750       ?lodepng_color_mode_equal@@YAHPEBULodePNGColorMode@@0@Z 0000000180014750 f   lodepng.obj
 0001:000138d0       ?LodePNGUnknownChunks_copy@@YAIPEAULodePNGInfo@@PEBU1@@Z 00000001800148d0 f   lodepng.obj
 0001:000139a0       ?LodePNGText_cleanup@@YAXPEAULodePNGInfo@@@Z 00000001800149a0 f   lodepng.obj
 0001:00013a20       ?LodePNGText_copy@@YAIPEAULodePNGInfo@@PEBU1@@Z 0000000180014a20 f   lodepng.obj
 0001:00013d30       ?LodePNGIText_cleanup@@YAXPEAULodePNGInfo@@@Z 0000000180014d30 f   lodepng.obj
 0001:00013df0       ?LodePNGIText_copy@@YAIPEAULodePNGInfo@@PEBU1@@Z 0000000180014df0 f   lodepng.obj
 0001:00014430       ?addColorBits@@YAXPEAE_KII@Z 0000000180015430 f   lodepng.obj
 0001:000144b0       ?color_tree_cleanup@@YAXPEAUColorTree@@@Z 00000001800154b0 f   lodepng.obj
 0001:000144f0       ?color_tree_get@@YAHPEAUColorTree@@EEEE@Z 00000001800154f0 f   lodepng.obj
 0001:00014590       ?color_tree_add@@YAXPEAUColorTree@@EEEEH@Z 0000000180015590 f   lodepng.obj
 0001:00014660       ?rgba8ToPixel@@YAIPEAE_KPEBULodePNGColorMode@@PEAUColorTree@@EEEE@Z 0000000180015660 f   lodepng.obj
 0001:000148f0       ?rgba16ToPixel@@YAIPEAE_KPEBULodePNGColorMode@@GGGG@Z 00000001800158f0 f   lodepng.obj
 0001:000149f0       ?getPixelColorRGBA8@@YAIPEAE000PEBE_KPEBULodePNGColorMode@@I@Z 00000001800159f0 f   lodepng.obj
 0001:00014dc0       ?getPixelColorsRGBA8@@YAIPEAE_KIPEBEPEBULodePNGColorMode@@I@Z 0000000180015dc0 f   lodepng.obj
 0001:000152b0       ?getPixelColorRGBA16@@YAIPEAG000PEBE_KPEBULodePNGColorMode@@@Z 00000001800162b0 f   lodepng.obj
 0001:00015850       ?color_profile_init@@YAXPEAUColorProfile@@PEBULodePNGColorMode@@@Z 0000000180016850 f   lodepng.obj
 0001:00015a20       ?get_color_profile@@YAIPEAUColorProfile@@PEBE_KPEBULodePNGColorMode@@I@Z 0000000180016a20 f   lodepng.obj
 0001:00016440       ?paethPredictor@@YAEFFF@Z  0000000180017440 f   lodepng.obj
 0001:000167b0       ?unfilterScanline@@YAIPEAEPEBE1_KE2@Z 00000001800177b0 f   lodepng.obj
 0001:00016c40       ?unfilter@@YAIPEAEPEBEIII@Z 0000000180017c40 f   lodepng.obj
 0001:00016cf0       ?Adam7_deinterlace@@YAXPEAEPEBEIII@Z 0000000180017cf0 f   lodepng.obj
 0001:000171a0       ?removePaddingBits@@YAXPEAEPEBE_K2I@Z 00000001800181a0 f   lodepng.obj
 0001:00017280       ?postProcessScanlines@@YAIPEAE0IIPEBULodePNGInfo@@@Z 0000000180018280 f   lodepng.obj
 0001:000175a0       ?readChunk_PLTE@@YAIPEAULodePNGColorMode@@PEBE_K@Z 00000001800185a0 f   lodepng.obj
 0001:000176a0       ?readChunk_tRNS@@YAIPEAULodePNGColorMode@@PEBE_K@Z 00000001800186a0 f   lodepng.obj
 0001:000177a0       ?readChunk_bKGD@@YAIPEAULodePNGInfo@@PEBE_K@Z 00000001800187a0 f   lodepng.obj
 0001:00017860       ?readChunk_tEXt@@YAIPEAULodePNGInfo@@PEBE_K@Z 0000000180018860 f   lodepng.obj
 0001:00017990       ?readChunk_zTXt@@YAIPEAULodePNGInfo@@PEBULodePNGDecompressSettings@@PEBE_K@Z 0000000180018990 f   lodepng.obj
 0001:00017b40       ?readChunk_iTXt@@YAIPEAULodePNGInfo@@PEBULodePNGDecompressSettings@@PEBE_K@Z 0000000180018b40 f   lodepng.obj
 0001:00017e60       ?decodeGeneric@@YAXPEAPEAEPEAI1PEAULodePNGState@@PEBE_K@Z 0000000180018e60 f   lodepng.obj
 0001:00018a40       ?writeSignature@@YAXPEAUucvector@@@Z 0000000180019a40 f   lodepng.obj
 0001:00018c10       ?addChunk_IHDR@@YAIPEAUucvector@@IIW4LodePNGColorType@@II@Z 0000000180019c10 f   lodepng.obj
 0001:00018e00       ?addChunk_PLTE@@YAIPEAUucvector@@PEBULodePNGColorMode@@@Z 0000000180019e00 f   lodepng.obj
 0001:00018ef0       ?addChunk_tRNS@@YAIPEAUucvector@@PEBULodePNGColorMode@@@Z 0000000180019ef0 f   lodepng.obj
 0001:00019170       ?addChunk_tEXt@@YAIPEAUucvector@@PEBD1@Z 000000018001a170 f   lodepng.obj
 0001:000192e0       ?addChunk_zTXt@@YAIPEAUucvector@@PEBD1PEAULodePNGCompressSettings@@@Z 000000018001a2e0 f   lodepng.obj
 0001:00019500       ?addChunk_iTXt@@YAIPEAUucvector@@IPEBD111PEAULodePNGCompressSettings@@@Z 000000018001a500 f   lodepng.obj
 0001:000198b0       ?addChunk_bKGD@@YAIPEAUucvector@@PEBULodePNGInfo@@@Z 000000018001a8b0 f   lodepng.obj
 0001:00019ad0       ?addChunk_pHYs@@YAIPEAUucvector@@PEBULodePNGInfo@@@Z 000000018001aad0 f   lodepng.obj
 0001:00019c10       ?filterScanline@@YAXPEAEPEBE1_K2E@Z 000000018001ac10 f   lodepng.obj
 0001:0001a120       ?flog2@@YAMM@Z             000000018001b120 f   lodepng.obj
 0001:0001a1e0       ?filter@@YAIPEAEPEBEIIPEBULodePNGColorMode@@PEBULodePNGEncoderSettings@@@Z 000000018001b1e0 f   lodepng.obj
 0001:0001a9e0       ?addPaddingBits@@YAXPEAEPEBE_K2I@Z 000000018001b9e0 f   lodepng.obj
 0001:0001aae0       ?Adam7_interlace@@YAXPEAEPEBEIII@Z 000000018001bae0 f   lodepng.obj
 0001:0001b010       ?preProcessScanlines@@YAIPEAPEAEPEA_KPEBEIIPEBULodePNGInfo@@PEBULodePNGEncoderSettings@@@Z 000000018001c010 f   lodepng.obj
 0001:0001b460       ?getPaletteTranslucency@@YAIPEBE_K@Z 000000018001c460 f   lodepng.obj
 0001:0001b500       ?addUnknownChunks@@YAIPEAUucvector@@PEAE_K@Z 000000018001c500 f   lodepng.obj
 0001:0001c070       $LN85                      000000018001d070     lodepng.obj
 0001:0001db70       no_op_initialize           000000018001eb70 f i libucrt:wsetlocale.obj
 0001:0001e1f0       initialize_global_state_isolation 000000018001f1f0 f i libucrt:initialization.obj
 0001:0001e1f0       report_memory_leaks        000000018001f1f0 f i libucrt:initialization.obj
 0001:0001e1f0       uninitialize_global_state_isolation 000000018001f1f0 f i libucrt:initialization.obj
 0001:0001e1f0       uninitialize_c             000000018001f1f0 f i libucrt:initialization.obj
 0001:0001e1f0       initialize_environment     000000018001f1f0 f i libucrt:initialization.obj
 0001:00021120       ?load_exe_hook@@YAP6A_JXZIPEAUDelayLoadInfo@@@Z 0000000180022120 f   win_delay_load_hook.obj
 0001:00021ce0       tidy_global                0000000180022ce0 f   libcpmt:locale0.obj
 0001:00022670       ?initialize_pointers@@YAHXZ 0000000180023670 f   libcpmt:winapisupp.obj
 0001:00022d80       $$000000                   0000000180023d80     LIBCMT:_amdsecgs_.obj
 0001:00022f40       ?__scrt_initialize_thread_safe_statics@@YAHXZ 0000000180023f40 f   LIBCMT:thread_safe_statics.obj
 0001:00023060       ?__scrt_uninitialize_thread_safe_statics@@YAXXZ 0000000180024060 f   LIBCMT:thread_safe_statics.obj
 0001:00023620       ?dllmain_crt_dispatch@@YAHQEAUHINSTANCE__@@KQEAX@Z 0000000180024620 f   LIBCMT:dll_dllmain.obj
 0001:00023670       ?dllmain_crt_process_attach@@YAHQEAUHINSTANCE__@@QEAX@Z 0000000180024670 f   LIBCMT:dll_dllmain.obj
 0001:0002379c       ?dllmain_crt_process_detach@@YAH_N@Z 000000018002479c f   LIBCMT:dll_dllmain.obj
 0001:00023820       ?dllmain_dispatch@@YAHQEAUHINSTANCE__@@KQEAX@Z 0000000180024820 f   LIBCMT:dll_dllmain.obj
 0001:00023918       ?dllmain_raw@@YAHQEAUHINSTANCE__@@KQEAX@Z 0000000180024918 f   LIBCMT:dll_dllmain.obj
 0001:00023ae0       $$000000                   0000000180024ae0     LIBCMT:_chkstk_.obj
 0001:00023cfc       capture_current_context    0000000180024cfc f   LIBCMT:gs_report.obj
 0001:00023d6c       capture_previous_context   0000000180024d6c f   LIBCMT:gs_report.obj
 0001:00024330       $$000000                   0000000180025330     libvcruntime:memcpy.obj
 0001:000243d7       MoveSmall                  00000001800253d7     libvcruntime:memcpy.obj
 0001:0002489c       ?CatchIt@@YAXPEAUEHExceptionRecord@@PEA_KPEAU_CONTEXT@@PEAU_xDISPATCHER_CONTEXT@@PEBU_s_FuncInfo@@PEBU_s_HandlerType@@PEBU_s_CatchableType@@PEBU_s_TryBlockMapEntry@@H1EE@Z 000000018002589c f   libvcruntime:frame.obj
 0001:00024960       ?ExFilterRethrow@@YAHPEAU_EXCEPTION_POINTERS@@PEAUEHExceptionRecord@@PEAH@Z 0000000180025960 f   libvcruntime:frame.obj
 0001:000249e8       ?FindHandler@@YAXPEAUEHExceptionRecord@@PEA_KPEAU_CONTEXT@@PEAU_xDISPATCHER_CONTEXT@@PEBU_s_FuncInfo@@EH1@Z 00000001800259e8 f   libvcruntime:frame.obj
 0001:00024eb8       ?FindHandlerForForeignException@@YAXPEAUEHExceptionRecord@@PEA_KPEAU_CONTEXT@@PEAU_xDISPATCHER_CONTEXT@@PEBU_s_FuncInfo@@HH1@Z 0000000180025eb8 f   libvcruntime:frame.obj
 0001:00025124       ?IsInExceptionSpec@@YAEPEAUEHExceptionRecord@@PEBU_s_ESTypeList@@@Z 0000000180026124 f   libvcruntime:frame.obj
 0001:00026490       $$000000                   0000000180027490     libvcruntime:memset.obj
 0001:0002657c       MsetTab                    000000018002757c     libvcruntime:memset.obj
 0001:00026640       $$000000                   0000000180027640     libvcruntime:memcmp.obj
 0001:00026914       ?try_get_function@@YAPEAXW4function_id@?A0x679b24ab@@QEBDQEBW4module_id@2@2@Z 0000000180027914 f   libvcruntime:winapi_downlevel.obj
 0001:00027100       $$000000                   0000000180028100     libvcruntime:handlers.obj
 0001:00027150       $$000000                   0000000180028150     libvcruntime:_jmpuwind_.obj
 0001:0002724c       ??$common_assert_to_message_box@_W@@YAXQEB_W0IQEAX@Z 000000018002824c f   libucrt:assert.obj
 0001:00027310       ??$common_assert_to_message_box_build_string@_W@@YAXQEA_W_KQEB_W2IQEAX@Z 0000000180028310 f   libucrt:assert.obj
 0001:00027ae4       ??$common_assert_to_stderr@_W@@YAXQEB_W0I@Z 0000000180028ae4 f   libucrt:assert.obj
 0001:00027c54       ?get_assert_format@@YAPEB_W_W@Z 0000000180028c54 f   libucrt:assert.obj
 0001:000287fc       ??R<lambda_0a64b6a4deda75c01876f29c44fc5eb3>@@QEBAHXZ 00000001800297fc f   libucrt:output.obj
 0001:000288ec       ??R<lambda_dd75445284c072d0bd3768540cc698fa>@@QEBAHXZ 00000001800298ec f   libucrt:output.obj
 0001:0002b414       ?atexit_exception_filter@@YAHK@Z 000000018002c414 f   libucrt:exit.obj
 0001:0002b420       ?common_exit@@YAXHW4_crt_exit_cleanup_mode@@W4_crt_exit_return_mode@@@Z 000000018002c420 f   libucrt:exit.obj
 0001:0002b58c       ?exit_or_terminate_process@@YAXI@Z 000000018002c58c f   libucrt:exit.obj
 0001:0002b5d8       ?try_cor_exit_process@@YAXI@Z 000000018002c5d8 f   libucrt:exit.obj
 0001:0002b690       ?shortsort@@YAXPEAD0_KP6AHPEBX2@Z@Z 000000018002c690 f   libucrt:qsort.obj
 0001:0002ba94       ??$common_ftell@_J@@YA_JV__crt_stdio_stream@@@Z 000000018002ca94 f   libucrt:ftell.obj
 0001:0002bae8       ??$common_ftell_nolock@_J@@YA_JV__crt_stdio_stream@@@Z 000000018002cae8 f   libucrt:ftell.obj
 0001:0002bc60       ?common_ftell_read_mode_nolock@@YA_JV__crt_stdio_stream@@_J1@Z 000000018002cc60 f   libucrt:ftell.obj
 0001:0002bdd8       ?common_ftell_translated_utf8_nolock@@YA_JV__crt_stdio_stream@@_J@Z 000000018002cdd8 f   libucrt:ftell.obj
 0001:0002c0f0       ??$common_fsopen@D@@YAPEAU_iobuf@@QEBD0H@Z 000000018002d0f0 f   libucrt:fopen.obj
 0001:0002c298       common_flush_all           000000018002d298 f   libucrt:fflush.obj
 0001:0002c4b0       ?common_fseek@@YAHV__crt_stdio_stream@@_JH@Z 000000018002d4b0 f   libucrt:fseek.obj
 0001:0002c51c       ?common_fseek_binary_mode_read_only_fast_track_nolock@@YA_NV__crt_stdio_stream@@_JH@Z 000000018002d51c f   libucrt:fseek.obj
 0001:0002c62c       ?common_fseek_nolock@@YAHV__crt_stdio_stream@@_JH@Z 000000018002d62c f   libucrt:fseek.obj
 0001:0002c8bc       ??R<lambda_532e024f4337e6fc7ad266c2bef9f4ed>@@QEBA_KXZ 000000018002d8bc f   libucrt:fwrite.obj
 0001:0002cca4       ??R<lambda_b721fa326cdb32351d23dfa67958c160>@@QEBAHXZ 000000018002dca4 f   libucrt:setvbuf.obj
 0001:0002d1ec       call_wsetlocale            000000018002e1ec f   libucrt:setlocale.obj
 0001:0002dd60       ?x_ismbbtype_l@@YAHPEAU__crt_locale_pointers@@IHH@Z 000000018002ed60 f   libucrt:ismbbyte.obj
 0001:0002e3c0       $$000000                   000000018002f3c0     libucrt:pow.obj
 0001:0002fa60       $$000000                   0000000180030a60     libucrt:powf.obj
 0001:00030980       ?internal_isupper_l@@YA_NHQEAU__crt_locale_pointers@@@Z 0000000180031980 f   libucrt:tolower_toupper.obj
 0001:00031138       ??$parse_command_line@D@@YAXPEADPEAPEAD0PEA_K2@Z 0000000180032138 f   libucrt:argv_parsing.obj
 0001:000314d0       ??$common_initialize_environment_nolock@D@@YAHXZ 00000001800324d0 f   libucrt:environment_initialization.obj
 0001:0003153c       ??$create_environment@D@@YAQEAPEADQEAD@Z 000000018003253c f   libucrt:environment_initialization.obj
 0001:00031638       ??$free_environment@D@@YAXQEAPEAD@Z 0000000180032638 f   libucrt:environment_initialization.obj
 0001:00031638       ??$free_environment@_W@@YAXQEAPEA_W@Z 0000000180032638 f   libucrt:environment_initialization.obj
 0001:0003167c       ??$uninitialize_environment_internal@D@@YAXAEAPEAPEAD@Z 000000018003267c f   libucrt:environment_initialization.obj
 0001:00031698       ??$uninitialize_environment_internal@_W@@YAXAEAPEAPEA_W@Z 0000000180032698 f   libucrt:environment_initialization.obj
 0001:000318d0       ??R<lambda_4e60a939b0d047cfe11ddc22648dfba9>@@QEBAHXZ 00000001800328d0 f   libucrt:onexit.obj
 0001:00031b80       initialize_global_variables 0000000180032b80 f   libucrt:initialization.obj
 0001:00031b94       initialize_c               0000000180032b94 f   libucrt:initialization.obj
 0001:00031bb8       uninitialize_environment   0000000180032bb8 f   libucrt:initialization.obj
 0001:00031bc8       initialize_pointers        0000000180032bc8 f   libucrt:initialization.obj
 0001:00031c1c       uninitialize_vcruntime     0000000180032c1c f   libucrt:initialization.obj
 0001:00031c24       uninitialize_allocated_memory 0000000180032c24 f   libucrt:initialization.obj
 0001:0003287c       ??$common_xtox@K_W@@YAHKQEA_W_KI_N@Z 000000018003387c f   libucrt:xtoa.obj
 0001:00032928       ??$common_xtox_s@K_W@@YAHKQEA_W_KI_N@Z 0000000180033928 f   libucrt:xtoa.obj
 0001:00032b84       ??$message_box_wait_thread@_W@@YAKQEAX@Z 0000000180033b84 f   libucrt:crtmbox.obj
 0001:00033124       ?construct_ptd_array@@YAXQEAU__acrt_ptd@@@Z 0000000180034124 f   libucrt:per_thread_data.obj
 0001:000331f4       ?destroy_fls@@YAXPEAX@Z    00000001800341f4 f   libucrt:per_thread_data.obj
 0001:00033214       ?destroy_ptd_array@@YAXQEAU__acrt_ptd@@@Z 0000000180034214 f   libucrt:per_thread_data.obj
 0001:0003330c       ?replace_current_thread_locale_nolock@@YAXQEAU__acrt_ptd@@QEAU__crt_locale_data@@@Z 000000018003430c f   libucrt:per_thread_data.obj
 0001:0003354c       ?<helper_func_cdecl>@<lambda_e2bb8337c48846e80c921ea5ddadc92d>@@CAHPEA_W@Z 000000018003454c f   libucrt:winapi_thunks.obj
 0001:00033628       ?try_get_function@@YAPEAXW4function_id@?A0x63058377@@QEBDQEBW4module_id@2@2@Z 0000000180034628 f   libucrt:winapi_thunks.obj
 0001:0003426c       ?initialize_inherited_file_handles_nolock@@YAXXZ 000000018003526c f   libucrt:ioinit.obj
 0001:00034358       ?initialize_stdio_handles_nolock@@YAXXZ 0000000180035358 f   libucrt:ioinit.obj
 0001:000348e8       ?fp_format_a@@YAHQEBNPEAD_KQEAD2H_NIQEAU__crt_locale_pointers@@@Z 00000001800358e8 f   libucrt:cvt.obj
 0001:00034c48       ?fp_format_e@@YAHQEBNQEAD_K12H_NIQEAU__crt_locale_pointers@@@Z 0000000180035c48 f   libucrt:cvt.obj
 0001:00034d18       ?fp_format_e_internal@@YAHQEAD_KH_NIQEAU_strflt@@2QEAU__crt_locale_pointers@@@Z 0000000180035d18 f   libucrt:cvt.obj
 0001:00034ef4       ?fp_format_f_internal@@YAHQEAD_KHQEAU_strflt@@_NQEAU__crt_locale_pointers@@@Z 0000000180035ef4 f   libucrt:cvt.obj
 0001:0003503c       ?fp_format_g@@YAHQEBNQEAD_K12H_NIQEAU__crt_locale_pointers@@@Z 000000018003603c f   libucrt:cvt.obj
 0001:00035174       ?fp_format_nan_or_infinity@@YAHW4__acrt_fp_class@@_NPEAD_K1@Z 0000000180036174 f   libucrt:cvt.obj
 0001:0003592c       ??R<lambda_2af78c5f5901b1372d98f9ab3177dfa6>@@QEBAXXZ 000000018003692c f   libucrt:wsetlocale.obj
 0001:00035cf0       _copytlocinfo_nolock       0000000180036cf0 f   libucrt:wsetlocale.obj
 0001:000362b0       _wsetlocale_get_all        00000001800372b0 f   libucrt:wsetlocale.obj
 0001:00036498       _wsetlocale_nolock         0000000180037498 f   libucrt:wsetlocale.obj
 0001:00036720       _wsetlocale_set_cat        0000000180037720 f   libucrt:wsetlocale.obj
 0001:00036a60       ??$common_lseek@_J@@YA_JH_JH@Z 0000000180037a60 f   libucrt:lseek.obj
 0001:00036b50       ??$common_lseek_nolock@_J@@YA_JH_JH@Z 0000000180037b50 f   libucrt:lseek.obj
 0001:00036bfc       ??$translate_text_mode_nolock@_W@@YAHHQEA_W_K@Z 0000000180037bfc f   libucrt:read.obj
 0001:00036e2c       ?translate_ansi_or_utf8_nolock@@YAHHQEAD_KQEA_W1@Z 0000000180037e2c f   libucrt:read.obj
 0001:000376ac       ??$write_buffer_nolock@D@@YA_NDV__crt_stdio_stream@@@Z 00000001800386ac f   libucrt:_flsbuf.obj
 0001:000377b0       ??$write_buffer_nolock@_W@@YA_N_WV__crt_stdio_stream@@@Z 00000001800387b0 f   libucrt:_flsbuf.obj
 0001:00037b30       ?find_or_allocate_unused_stream_nolock@@YA?AV__crt_stdio_stream@@XZ 0000000180038b30 f   libucrt:stream.obj
 0001:00038074       ?write_double_translated_ansi_nolock@@YA?AUwrite_result@?A0x9c548279@@HQEBDI@Z 0000000180039074 f   libucrt:write.obj
 0001:0003827c       ?write_text_ansi_nolock@@YA?AUwrite_result@?A0x9c548279@@HQEBDI@Z 000000018003927c f   libucrt:write.obj
 0001:00038384       ?write_text_utf16le_nolock@@YA?AUwrite_result@?A0x9c548279@@HQEBDI@Z 0000000180039384 f   libucrt:write.obj
 0001:000384a0       ?write_text_utf8_nolock@@YA?AUwrite_result@?A0x9c548279@@HQEBDI@Z 00000001800394a0 f   libucrt:write.obj
 0001:00038bb8       ??$common_refill_and_read_nolock@D@@YAHV__crt_stdio_stream@@@Z 0000000180039bb8 f   libucrt:_filbuf.obj
 0001:00039228       ?_mbstowcs_l_helper@@YA_KPEA_WPEBD_KPEAU__crt_locale_pointers@@@Z 000000018003a228 f   libucrt:mbstowcs.obj
 0001:00039554       ?_wcstombs_l_helper@@YA_KPEADPEB_W_KPEAU__crt_locale_pointers@@@Z 000000018003a554 f   libucrt:wcstombs.obj
 0001:00039ab4       ?InternalGetLocaleInfoA@@YAHQEAU__crt_locale_pointers@@QEB_WKQEADH@Z 000000018003aab4 f   libucrt:getlocaleinfoa.obj
 0001:00039fd0       ?__acrt_LCMapStringA_stat@@YAHPEAU__crt_locale_pointers@@PEB_WKPEBDHPEADHHH@Z 000000018003afd0 f   libucrt:lcmapstringa.obj
 0001:0003a948       ?<helper_func_cdecl>@<lambda_2feae5270eb4d0d5532525f423405775>@@CAHPEBX0@Z 000000018003b948 f   libucrt:argv_wildcards.obj
 0001:0003a95c       ??$common_expand_argv_wildcards@D@@YAHQEAPEADQEAPEAPEAD@Z 000000018003b95c f   libucrt:argv_wildcards.obj
 0001:0003ab68       ??$copy_and_add_argument_to_buffer@D@@YAHQEBD0_KAEAV?$argument_list@D@?A0xca0879c4@@@Z 000000018003bb68 f   libucrt:argv_wildcards.obj
 0001:0003ac78       ??$expand_argument_wildcards@D@@YAHQEAD0AEAV?$argument_list@D@?A0xca0879c4@@@Z 000000018003bc78 f   libucrt:argv_wildcards.obj
 0001:0003af2c       ??R<lambda_ad1ced32f4ac17aa236e5ef05d6b3b7c>@@QEBAXXZ 000000018003bf2c f   libucrt:mbctype.obj
 0001:0003b144       ?getSystemCP@@YAHH@Z       000000018003c144 f   libucrt:mbctype.obj
 0001:0003b1c4       ?setSBCS@@YAXPEAU__crt_multibyte_data@@@Z 000000018003c1c4 f   libucrt:mbctype.obj
 0001:0003b254       ?setSBUpLow@@YAXPEAU__crt_multibyte_data@@@Z 000000018003c254 f   libucrt:mbctype.obj
 0001:0003b438       ?setmbcp_internal@@YAHH_N@Z 000000018003c438 f   libucrt:mbctype.obj
 0001:0003c190       ?GetTableIndexFromLocaleName@@YAHPEB_W@Z 000000018003d190 f   libucrt:lcidtoname_downlevel.obj
 0001:0003dca8       memcpy_s                   000000018003eca8 f   libucrt:cfout.obj
 0001:0003dca8       memcpy_s                   000000018003eca8 f   libucrt:strtod.obj
 0001:0003e720       ?free_crt_array_internal@@YAXQEAPEBX_K@Z 000000018003f720 f   libucrt:inittime.obj
 0001:0003e778       ?initialize_lc_time@@YA_NQEAU__crt_lc_time_data@@QEAU__crt_locale_data@@@Z 000000018003f778 f   libucrt:inittime.obj
 0001:0003ed04       GetLocaleNameFromDefault   000000018003fd04 f   libucrt:get_qualified_locale.obj
 0001:0003edac       GetLocaleNameFromLangCountry 000000018003fdac f   libucrt:get_qualified_locale.obj
 0001:0003ee7c       GetLocaleNameFromLanguage  000000018003fe7c f   libucrt:get_qualified_locale.obj
 0001:0003ef18       LangCountryEnumProcEx      000000018003ff18 f   libucrt:get_qualified_locale.obj
 0001:0003f2cc       LanguageEnumProcEx         00000001800402cc f   libucrt:get_qualified_locale.obj
 0001:0003f3b8       ProcessCodePage            00000001800403b8 f   libucrt:get_qualified_locale.obj
 0001:0003f46c       TestDefaultCountry         000000018004046c f   libucrt:get_qualified_locale.obj
 0001:0003f4d4       TranslateName              00000001800404d4 f   libucrt:get_qualified_locale.obj
 0001:0003f790       CountryEnumProc            0000000180040790 f   libucrt:getqloc_downlevel.obj
 0001:0003f87c       GetLcidFromLangCountry     000000018004087c f   libucrt:getqloc_downlevel.obj
 0001:0003f94c       GetLcidFromLanguage        000000018004094c f   libucrt:getqloc_downlevel.obj
 0001:0003f9e4       LangCountryEnumProc        00000001800409e4 f   libucrt:getqloc_downlevel.obj
 0001:0003fc28       LanguageEnumProc           0000000180040c28 f   libucrt:getqloc_downlevel.obj
 0001:0003fd24       LcidFromHexString          0000000180040d24 f   libucrt:getqloc_downlevel.obj
 0001:0003fd74       ProcessCodePage            0000000180040d74 f   libucrt:getqloc_downlevel.obj
 0001:0003fe24       TestDefaultLanguage        0000000180040e24 f   libucrt:getqloc_downlevel.obj
 0001:0003fed0       TranslateName              0000000180040ed0 f   libucrt:getqloc_downlevel.obj
 0001:000403a0       $$000000                   00000001800413a0     libucrt:strncmp.obj
 0001:000405a4       ??$common_sopen_dispatch@D@@YAHQEBDHHHQEAHH@Z 00000001800415a4 f   libucrt:open.obj
 0001:00040684       ?configure_text_mode@@YAHHUfile_options@?A0x656cf9f4@@HAEAW4__crt_lowio_text_mode@@@Z 0000000180041684 f   libucrt:open.obj
 0001:00040918       ?decode_options@@YA?AUfile_options@?A0x656cf9f4@@HHH@Z 0000000180041918 f   libucrt:open.obj
 0001:00040b24       ?truncate_ctrl_z_if_present@@YAHH@Z 0000000180041b24 f   libucrt:open.obj
 0001:00041100       $$000000                   0000000180042100     libucrt:fpsr.obj
 0001:000412bc       _call_matherr              00000001800422bc f   libucrt:libm_error.obj
 0001:00041324       _exception_enabled         0000000180042324 f   libucrt:libm_error.obj
 0001:0004186c       ?initialize_multibyte@@YAHXZ 000000018004286c f   libucrt:multibyte_initializer.obj
 0001:00041a40       $$000000                   0000000180042a40     libucrt:log10.obj
 0001:000424ac       common_control87           00000001800434ac f   libucrt:ieee.obj
 0001:00042810       _log_special_common        0000000180043810 f   libucrt:log_special.obj
 0001:00043220       $$000000                   0000000180044220     libucrt:log.obj
 0001:00043750       $$000000                   0000000180044750     LIBCMT:_guard_dispatch_.obj
 0001:00043770       ?dtor$0@?0??NewInstance@Nan@@YA?AV?$MaybeLocal@VObject@v8@@@v8@@V?$Local@VObjectTemplate@v8@@@3@@Z@4HA 0000000180044770 f   zopfli-binding.obj
 0001:00043770       ?dtor$0@?0??convert@?$ToFactory@VUint32@v8@@@imp@Nan@@SA?AV?$MaybeLocal@VUint32@v8@@@v8@@V?$Local@VValue@v8@@@5@@Z@4HA 0000000180044770 f   zopfli-binding.obj
 0001:00043770       ?dtor$0@?0??Get@Nan@@YA?AV?$MaybeLocal@VValue@v8@@@v8@@V?$Local@VObject@v8@@@3@V?$Local@VValue@v8@@@3@@Z@4HA 0000000180044770 f   zopfli-binding.obj
 0001:00043770       ?dtor$0@?0??GetFunction@Nan@@YA?AV?$MaybeLocal@VFunction@v8@@@v8@@V?$Local@VFunctionTemplate@v8@@@3@@Z@4HA 0000000180044770 f   zopfli-binding.obj
 0001:00043770       ?dtor$0@?0??convert@?$ToFactory@VInteger@v8@@@imp@Nan@@SA?AV?$MaybeLocal@VInteger@v8@@@v8@@V?$Local@VValue@v8@@@5@@Z@4HA 0000000180044770 f   zopflipng.obj
 0001:00043780       ?dtor$0@?0??Has@Nan@@YA?AV?$Maybe@_N@v8@@V?$Local@VObject@v8@@@3@V?$Local@VString@v8@@@3@@Z@4HA 0000000180044780 f   zopfli-binding.obj
 0001:00043790       ?dtor$0@?0??New@?$Factory@VFunctionTemplate@v8@@@imp@Nan@@SA?AV?$Local@VFunctionTemplate@v8@@@v8@@P6AXAEBV?$FunctionCallbackInfo@VValue@v8@@@3@@ZV?$Local@VValue@v8@@@5@V?$Local@VSignature@v8@@@5@@Z@4HA 0000000180044790 f   zopfli-binding.obj
 0001:00043790       ?dtor$0@?0??Call@Callback@Nan@@QEBA?AV?$Local@VValue@v8@@@v8@@HQEAV34@@Z@4HA 0000000180044790 f   zopfli-binding.obj
 0001:000437a0       ?dtor$0@?0??ThrowTypeError@Nan@@YAXPEBD@Z@4HA 00000001800447a0 f   zopfli-binding.obj
 0001:000437a0       ?dtor$0@?0??Call_@Callback@Nan@@AEBA?AV?$Local@VValue@v8@@@v8@@PEAVIsolate@4@V?$Local@VObject@v8@@@4@HQEAV34@@Z@4HA 00000001800447a0 f   zopfli-binding.obj
 0001:000437a0       ?dtor$0@?0???0Utf8String@Nan@@QEAA@V?$Local@VValue@v8@@@v8@@@Z@4HA 00000001800447a0 f   zopfli-binding.obj
 0001:000437a0       ?dtor$0@?0??HandleErrorCallback@AsyncWorker@Nan@@MEAAXXZ@4HA 00000001800447a0 f   zopfli-binding.obj
 0001:000437b0       ?dtor$0@?0???0AsyncWorker@Nan@@QEAA@PEAVCallback@1@@Z@4HA 00000001800447b0 f   zopfli-binding.obj
 0001:000437c3       ?dtor$1@?0???0AsyncWorker@Nan@@QEAA@PEAVCallback@1@@Z@4HA 00000001800447c3 f   zopfli-binding.obj
 0001:000437d0       ?dtor$0@?0??WorkComplete@AsyncWorker@Nan@@UEAAXXZ@4HA 00000001800447d0 f   zopfli-binding.obj
 0001:000437d0       ?dtor$0@?0??HandleOKCallback@AsyncWorker@Nan@@MEAAXXZ@4HA 00000001800447d0 f   zopfli-binding.obj
 0001:000437e0       ?dtor$0@?0??ParseArgs@nodezopfli@@YAXAEBV?$FunctionCallbackInfo@VValue@v8@@@Nan@@AEAW4ZopfliFormat@@AEAUZopfliOptions@@@Z@4HA 00000001800447e0 f   zopfli-binding.obj
 0001:000437ec       ?dtor$1@?0??ParseArgs@nodezopfli@@YAXAEBV?$FunctionCallbackInfo@VValue@v8@@@Nan@@AEAW4ZopfliFormat@@AEAUZopfliOptions@@@Z@4HA 00000001800447ec f   zopfli-binding.obj
 0001:00043800       ?dtor$0@?0???0CompressWorker@nodezopfli@@QEAA@PEAVCallback@Nan@@AEAW4ZopfliFormat@@AEAUZopfliOptions@@V?$Local@VObject@v8@@@v8@@@Z@4HA 0000000180044800 f   zopfli-binding.obj
 0001:0004380c       ?dtor$1@?0???0CompressWorker@nodezopfli@@QEAA@PEAVCallback@Nan@@AEAW4ZopfliFormat@@AEAUZopfliOptions@@V?$Local@VObject@v8@@@v8@@@Z@4HA 000000018004480c f   zopfli-binding.obj
 0001:0004381f       ?dtor$2@?0???0CompressWorker@nodezopfli@@QEAA@PEAVCallback@Nan@@AEAW4ZopfliFormat@@AEAUZopfliOptions@@V?$Local@VObject@v8@@@v8@@@Z@4HA 000000018004481f f   zopfli-binding.obj
 0001:0004382b       ?dtor$3@?0???0CompressWorker@nodezopfli@@QEAA@PEAVCallback@Nan@@AEAW4ZopfliFormat@@AEAUZopfliOptions@@V?$Local@VObject@v8@@@v8@@@Z@4HA 000000018004482b f   zopfli-binding.obj
 0001:00043840       ?dtor$0@?0??Async@CompressBinding@nodezopfli@@SAXAEBV?$FunctionCallbackInfo@VValue@v8@@@Nan@@@Z@4HA 0000000180044840 f   zopfli-binding.obj
 0001:0004385d       ?dtor$1@?0??Async@CompressBinding@nodezopfli@@SAXAEBV?$FunctionCallbackInfo@VValue@v8@@@Nan@@@Z@4HA 000000018004485d f   zopfli-binding.obj
 0001:00043880       ?dtor$0@?0???$SetMethod@VObject@v8@@VLocal@2@@Nan@@YAXV?$Local@VObject@v8@@@v8@@PEBDP6AXAEBV?$FunctionCallbackInfo@VValue@v8@@@0@@Z@Z@4HA 0000000180044880 f   zopfli-binding.obj
 0001:00043890       ?dtor$0@?0??parseOptions@@YAXAEBV?$Local@VObject@v8@@@v8@@AEAUZopfliPNGOptions@@@Z@4HA 0000000180044890 f   zopflipng.obj
 0001:0004389c       ?dtor$1@?0??parseOptions@@YAXAEBV?$Local@VObject@v8@@@v8@@AEAUZopfliPNGOptions@@@Z@4HA 000000018004489c f   zopflipng.obj
 0001:000438a8       ?dtor$2@?0??parseOptions@@YAXAEBV?$Local@VObject@v8@@@v8@@AEAUZopfliPNGOptions@@@Z@4HA 00000001800448a8 f   zopflipng.obj
 0001:000438b4       ?dtor$3@?0??parseOptions@@YAXAEBV?$Local@VObject@v8@@@v8@@AEAUZopfliPNGOptions@@@Z@4HA 00000001800448b4 f   zopflipng.obj
 0001:000438c0       ?dtor$4@?0??parseOptions@@YAXAEBV?$Local@VObject@v8@@@v8@@AEAUZopfliPNGOptions@@@Z@4HA 00000001800448c0 f   zopflipng.obj
 0001:000438d0       ?dtor$0@?0??PNGDeflate@@YAXAEBV?$FunctionCallbackInfo@VValue@v8@@@Nan@@@Z@4HA 00000001800448d0 f   zopflipng.obj
 0001:000438dc       ?dtor$1@?0??PNGDeflate@@YAXAEBV?$FunctionCallbackInfo@VValue@v8@@@Nan@@@Z@4HA 00000001800448dc f   zopflipng.obj
 0001:000438e8       ?dtor$2@?0??PNGDeflate@@YAXAEBV?$FunctionCallbackInfo@VValue@v8@@@Nan@@@Z@4HA 00000001800448e8 f   zopflipng.obj
 0001:000438f4       ?dtor$3@?0??PNGDeflate@@YAXAEBV?$FunctionCallbackInfo@VValue@v8@@@Nan@@@Z@4HA 00000001800448f4 f   zopflipng.obj
 0001:00043900       ?dtor$4@?0??PNGDeflate@@YAXAEBV?$FunctionCallbackInfo@VValue@v8@@@Nan@@@Z@4HA 0000000180044900 f   zopflipng.obj
 0001:0004390c       ?dtor$5@?0??PNGDeflate@@YAXAEBV?$FunctionCallbackInfo@VValue@v8@@@Nan@@@Z@4HA 000000018004490c f   zopflipng.obj
 0001:00043918       ?dtor$6@?0??PNGDeflate@@YAXAEBV?$FunctionCallbackInfo@VValue@v8@@@Nan@@@Z@4HA 0000000180044918 f   zopflipng.obj
 0001:00043924       ?dtor$7@?0??PNGDeflate@@YAXAEBV?$FunctionCallbackInfo@VValue@v8@@@Nan@@@Z@4HA 0000000180044924 f   zopflipng.obj
 0001:00043930       ?dtor$8@?0??PNGDeflate@@YAXAEBV?$FunctionCallbackInfo@VValue@v8@@@Nan@@@Z@4HA 0000000180044930 f   zopflipng.obj
 0001:0004393c       ?dtor$12@?0??PNGDeflate@@YAXAEBV?$FunctionCallbackInfo@VValue@v8@@@Nan@@@Z@4HA 000000018004493c f   zopflipng.obj
 0001:00043950       ?dtor$0@?0??LossyOptimizeTransparent@@YAXPEAVState@lodepng@@PEAEII@Z@4HA 0000000180044950 f   zopflipng_lib.obj
 0001:0004395c       ?dtor$1@?0??LossyOptimizeTransparent@@YAXPEAVState@lodepng@@PEAEII@Z@4HA 000000018004495c f   zopflipng_lib.obj
 0001:00043970       ?dtor$0@?0??TryOptimize@@YAIAEBV?$vector@EV?$allocator@E@std@@@std@@IIAEBVState@lodepng@@_N0W4ZopfliPNGFilterStrategy@@2HPEBUZopfliPNGOptions@@PEAV12@@Z@4HA 0000000180044970 f   zopflipng_lib.obj
 0001:0004397c       ?dtor$1@?0??TryOptimize@@YAIAEBV?$vector@EV?$allocator@E@std@@@std@@IIAEBVState@lodepng@@_N0W4ZopfliPNGFilterStrategy@@2HPEBUZopfliPNGOptions@@PEAV12@@Z@4HA 000000018004497c f   zopflipng_lib.obj
 0001:00043988       ?dtor$2@?0??TryOptimize@@YAIAEBV?$vector@EV?$allocator@E@std@@@std@@IIAEBVState@lodepng@@_N0W4ZopfliPNGFilterStrategy@@2HPEBUZopfliPNGOptions@@PEAV12@@Z@4HA 0000000180044988 f   zopflipng_lib.obj
 0001:00043994       ?dtor$3@?0??TryOptimize@@YAIAEBV?$vector@EV?$allocator@E@std@@@std@@IIAEBVState@lodepng@@_N0W4ZopfliPNGFilterStrategy@@2HPEBUZopfliPNGOptions@@PEAV12@@Z@4HA 0000000180044994 f   zopflipng_lib.obj
 0001:000439a0       ?dtor$4@?0??TryOptimize@@YAIAEBV?$vector@EV?$allocator@E@std@@@std@@IIAEBVState@lodepng@@_N0W4ZopfliPNGFilterStrategy@@2HPEBUZopfliPNGOptions@@PEAV12@@Z@4HA 00000001800449a0 f   zopflipng_lib.obj
 0001:000439b0       ?dtor$0@?0??AutoChooseFilterStrategy@@YAIAEBV?$vector@EV?$allocator@E@std@@@std@@IIAEBVState@lodepng@@_N0HPEAW4ZopfliPNGFilterStrategy@@PEA_N@Z@4HA 00000001800449b0 f   zopflipng_lib.obj
 0001:000439c0       ?dtor$0@?0??KeepChunks@@YAXAEBV?$vector@EV?$allocator@E@std@@@std@@AEBV?$vector@V?$basic_string@DU?$char_traits@D@std@@V?$allocator@D@2@@std@@V?$allocator@V?$basic_string@DU?$char_traits@D@std@@V?$allocator@D@2@@std@@@2@@2@PEAV12@@Z@4HA 00000001800449c0 f   zopflipng_lib.obj
 0001:000439ed       ?dtor$1@?0??KeepChunks@@YAXAEBV?$vector@EV?$allocator@E@std@@@std@@AEBV?$vector@V?$basic_string@DU?$char_traits@D@std@@V?$allocator@D@2@@std@@V?$allocator@V?$basic_string@DU?$char_traits@D@std@@V?$allocator@D@2@@std@@@2@@2@PEAV12@@Z@4HA 00000001800449ed f   zopflipng_lib.obj
 0001:00043a1a       ?dtor$2@?0??KeepChunks@@YAXAEBV?$vector@EV?$allocator@E@std@@@std@@AEBV?$vector@V?$basic_string@DU?$char_traits@D@std@@V?$allocator@D@2@@std@@V?$allocator@V?$basic_string@DU?$char_traits@D@std@@V?$allocator@D@2@@std@@@2@@2@PEAV12@@Z@4HA 0000000180044a1a f   zopflipng_lib.obj
 0001:00043a44       ?dtor$3@?0??KeepChunks@@YAXAEBV?$vector@EV?$allocator@E@std@@@std@@AEBV?$vector@V?$basic_string@DU?$char_traits@D@std@@V?$allocator@D@2@@std@@V?$allocator@V?$basic_string@DU?$char_traits@D@std@@V?$allocator@D@2@@std@@@2@@2@PEAV12@@Z@4HA 0000000180044a44 f   zopflipng_lib.obj
 0001:00043a60       ?dtor$4@?0??KeepChunks@@YAXAEBV?$vector@EV?$allocator@E@std@@@std@@AEBV?$vector@V?$basic_string@DU?$char_traits@D@std@@V?$allocator@D@2@@std@@V?$allocator@V?$basic_string@DU?$char_traits@D@std@@V?$allocator@D@2@@std@@@2@@2@PEAV12@@Z@4HA 0000000180044a60 f   zopflipng_lib.obj
 0001:00043a80       ?dtor$0@?0??ZopfliPNGOptimize@@YAHAEBV?$vector@EV?$allocator@E@std@@@std@@AEBUZopfliPNGOptions@@_NPEAV12@@Z@4HA 0000000180044a80 f   zopflipng_lib.obj
 0001:00043a8c       ?dtor$1@?0??ZopfliPNGOptimize@@YAHAEBV?$vector@EV?$allocator@E@std@@@std@@AEBUZopfliPNGOptions@@_NPEAV12@@Z@4HA 0000000180044a8c f   zopflipng_lib.obj
 0001:00043a98       ?dtor$2@?0??ZopfliPNGOptimize@@YAHAEBV?$vector@EV?$allocator@E@std@@@std@@AEBUZopfliPNGOptions@@_NPEAV12@@Z@4HA 0000000180044a98 f   zopflipng_lib.obj
 0001:00043aa4       ?dtor$3@?0??ZopfliPNGOptimize@@YAHAEBV?$vector@EV?$allocator@E@std@@@std@@AEBUZopfliPNGOptions@@_NPEAV12@@Z@4HA 0000000180044aa4 f   zopflipng_lib.obj
 0001:00043ab0       ?dtor$4@?0??ZopfliPNGOptimize@@YAHAEBV?$vector@EV?$allocator@E@std@@@std@@AEBUZopfliPNGOptions@@_NPEAV12@@Z@4HA 0000000180044ab0 f   zopflipng_lib.obj
 0001:00043abc       ?dtor$5@?0??ZopfliPNGOptimize@@YAHAEBV?$vector@EV?$allocator@E@std@@@std@@AEBUZopfliPNGOptions@@_NPEAV12@@Z@4HA 0000000180044abc f   zopflipng_lib.obj
 0001:00043ac8       ?dtor$6@?0??ZopfliPNGOptimize@@YAHAEBV?$vector@EV?$allocator@E@std@@@std@@AEBUZopfliPNGOptions@@_NPEAV12@@Z@4HA 0000000180044ac8 f   zopflipng_lib.obj
 0001:00043ad4       ?dtor$7@?0??ZopfliPNGOptimize@@YAHAEBV?$vector@EV?$allocator@E@std@@@std@@AEBUZopfliPNGOptions@@_NPEAV12@@Z@4HA 0000000180044ad4 f   zopflipng_lib.obj
 0001:00043ae0       ?dtor$9@?0??ZopfliPNGOptimize@@YAHAEBV?$vector@EV?$allocator@E@std@@@std@@AEBUZopfliPNGOptions@@_NPEAV12@@Z@4HA 0000000180044ae0 f   zopflipng_lib.obj
 0001:00043b0d       ?dtor$10@?0??ZopfliPNGOptimize@@YAHAEBV?$vector@EV?$allocator@E@std@@@std@@AEBUZopfliPNGOptions@@_NPEAV12@@Z@4HA 0000000180044b0d f   zopflipng_lib.obj
 0001:00043b19       ?dtor$11@?0??ZopfliPNGOptimize@@YAHAEBV?$vector@EV?$allocator@E@std@@@std@@AEBUZopfliPNGOptions@@_NPEAV12@@Z@4HA 0000000180044b19 f   zopflipng_lib.obj
 0001:00043b25       ?dtor$12@?0??ZopfliPNGOptimize@@YAHAEBV?$vector@EV?$allocator@E@std@@@std@@AEBUZopfliPNGOptions@@_NPEAV12@@Z@4HA 0000000180044b25 f   zopflipng_lib.obj
 0001:00043b40       ?dtor$0@?0??_Getcat@?$ctype@D@std@@SA_KPEAPEBVfacet@locale@2@PEBV42@@Z@4HA 0000000180044b40 f   lodepng.obj
 0001:00043b60       ?dtor$2@?0??_Getcat@?$ctype@D@std@@SA_KPEAPEBVfacet@locale@2@PEBV42@@Z@4HA 0000000180044b60 f   lodepng.obj
 0001:00043b6c       ?dtor$3@?0??_Getcat@?$ctype@D@std@@SA_KPEAPEBVfacet@locale@2@PEBV42@@Z@4HA 0000000180044b6c f   lodepng.obj
 0001:00043b7c       ?dtor$4@?0??_Getcat@?$ctype@D@std@@SA_KPEAPEBVfacet@locale@2@PEBV42@@Z@4HA 0000000180044b7c f   lodepng.obj
 0001:00043b8c       ?dtor$5@?0??_Getcat@?$ctype@D@std@@SA_KPEAPEBVfacet@locale@2@PEBV42@@Z@4HA 0000000180044b8c f   lodepng.obj
 0001:00043b9c       ?dtor$6@?0??_Getcat@?$ctype@D@std@@SA_KPEAPEBVfacet@locale@2@PEBV42@@Z@4HA 0000000180044b9c f   lodepng.obj
 0001:00043bac       ?dtor$7@?0??_Getcat@?$ctype@D@std@@SA_KPEAPEBVfacet@locale@2@PEBV42@@Z@4HA 0000000180044bac f   lodepng.obj
 0001:00043bbc       ?dtor$8@?0??_Getcat@?$ctype@D@std@@SA_KPEAPEBVfacet@locale@2@PEBV42@@Z@4HA 0000000180044bbc f   lodepng.obj
 0001:00043bcc       ?dtor$9@?0??_Getcat@?$ctype@D@std@@SA_KPEAPEBVfacet@locale@2@PEBV42@@Z@4HA 0000000180044bcc f   lodepng.obj
 0001:00043be0       ?dtor$0@?0??_Makestr@_System_error@std@@CA?AV?$basic_string@DU?$char_traits@D@std@@V?$allocator@D@2@@2@Verror_code@2@V32@@Z@4HA 0000000180044be0 f   lodepng.obj
 0001:00043bec       ?dtor$1@?0??_Makestr@_System_error@std@@CA?AV?$basic_string@DU?$char_traits@D@std@@V?$allocator@D@2@@2@Verror_code@2@V32@@Z@4HA 0000000180044bec f   lodepng.obj
 0001:00043c00       ?dtor$4@?0??clear@ios_base@std@@QEAAXH_N@Z@4HA 0000000180044c00 f   lodepng.obj
 0001:00043c0c       ?dtor$0@?0??clear@ios_base@std@@QEAAXH_N@Z@4HA 0000000180044c0c f   lodepng.obj
 0001:00043c18       ?dtor$14@?0??clear@ios_base@std@@QEAAXH_N@Z@4HA 0000000180044c18 f   lodepng.obj
 0001:00043c24       ?dtor$1@?0??clear@ios_base@std@@QEAAXH_N@Z@4HA 0000000180044c24 f   lodepng.obj
 0001:00043c30       ?dtor$24@?0??clear@ios_base@std@@QEAAXH_N@Z@4HA 0000000180044c30 f   lodepng.obj
 0001:00043c3c       ?dtor$2@?0??clear@ios_base@std@@QEAAXH_N@Z@4HA 0000000180044c3c f   lodepng.obj
 0001:00043c50       ?dtor$0@?0??_Init@ios_base@std@@IEAAXXZ@4HA 0000000180044c50 f   lodepng.obj
 0001:00043c50       ?dtor$0@?0???0?$basic_streambuf@DU?$char_traits@D@std@@@std@@IEAA@XZ@4HA 0000000180044c50 f   lodepng.obj
 0001:00043c70       ?dtor$0@?0??lodepng_decode_memory@@YAIPEAPEAEPEAI1PEBE_KW4LodePNGColorType@@I@Z@4HA 0000000180044c70 f   lodepng.obj
 0001:00043c80       ?dtor$0@?0??load_file@lodepng@@YAXAEAV?$vector@EV?$allocator@E@std@@@std@@AEBV?$basic_string@DU?$char_traits@D@std@@V?$allocator@D@2@@3@@Z@4HA 0000000180044c80 f   lodepng.obj
 0001:00043c90       ?dtor$0@?0??decode@lodepng@@YAIAEAV?$vector@EV?$allocator@E@std@@@std@@AEAI1PEBE_KW4LodePNGColorType@@I@Z@4HA 0000000180044c90 f   lodepng.obj
 0001:00043ca0       ?dtor$0@?0???0?$basic_ofstream@DU?$char_traits@D@std@@@std@@QEAA@PEBDHH@Z@4HA 0000000180044ca0 f   lodepng.obj
 0001:00043ccd       ?dtor$1@?0???0?$basic_ofstream@DU?$char_traits@D@std@@@std@@QEAA@PEBDHH@Z@4HA 0000000180044ccd f   lodepng.obj
 0001:00043cdd       ?dtor$2@?0???0?$basic_ofstream@DU?$char_traits@D@std@@@std@@QEAA@PEBDHH@Z@4HA 0000000180044cdd f   lodepng.obj
 0001:00043cf0       ?dtor$0@?0???0?$basic_ifstream@DU?$char_traits@D@std@@@std@@QEAA@PEBDHH@Z@4HA 0000000180044cf0 f   lodepng.obj
 0001:00043d1d       ?dtor$1@?0???0?$basic_ifstream@DU?$char_traits@D@std@@@std@@QEAA@PEBDHH@Z@4HA 0000000180044d1d f   lodepng.obj
 0001:00043d2d       ?dtor$2@?0???0?$basic_ifstream@DU?$char_traits@D@std@@@std@@QEAA@PEBDHH@Z@4HA 0000000180044d2d f   lodepng.obj
 0001:00043d40       ?dtor$0@?0??uflow@?$basic_filebuf@DU?$char_traits@D@std@@@std@@MEAAHXZ@4HA 0000000180044d40 f   lodepng.obj
 0001:00043d40       ?dtor$0@?0??overflow@?$basic_filebuf@DU?$char_traits@D@std@@@std@@MEAAHH@Z@4HA 0000000180044d40 f   lodepng.obj
 0001:00043d50       ?dtor$1@?0??write@?$basic_ostream@DU?$char_traits@D@std@@@std@@QEAAAEAV12@PEBD_J@Z@4HA 0000000180044d50 f   lodepng.obj
 0001:00043d5c       ?dtor$0@?0??write@?$basic_ostream@DU?$char_traits@D@std@@@std@@QEAAAEAV12@PEBD_J@Z@4HA 0000000180044d5c f   lodepng.obj
 0001:00043d70       ?dtor$1@?0??seekg@?$basic_istream@DU?$char_traits@D@std@@@std@@QEAAAEAV12@_JH@Z@4HA 0000000180044d70 f   lodepng.obj
 0001:00043d70       ?dtor$1@?0??tellg@?$basic_istream@DU?$char_traits@D@std@@@std@@QEAA?AV?$fpos@U_Mbstatet@@@2@XZ@4HA 0000000180044d70 f   lodepng.obj
 0001:00043d7c       ?dtor$0@?0??tellg@?$basic_istream@DU?$char_traits@D@std@@@std@@QEAA?AV?$fpos@U_Mbstatet@@@2@XZ@4HA 0000000180044d7c f   lodepng.obj
 0001:00043d7c       ?dtor$0@?0??seekg@?$basic_istream@DU?$char_traits@D@std@@@std@@QEAAAEAV12@_JH@Z@4HA 0000000180044d7c f   lodepng.obj
 0001:00043d90       ?dtor$1@?0??read@?$basic_istream@DU?$char_traits@D@std@@@std@@QEAAAEAV12@PEAD_J@Z@4HA 0000000180044d90 f   lodepng.obj
 0001:00043d9c       ?dtor$0@?0??read@?$basic_istream@DU?$char_traits@D@std@@@std@@QEAAAEAV12@PEAD_J@Z@4HA 0000000180044d9c f   lodepng.obj
 0001:00043db0       ?dtor$0@?0???0sentry@?$basic_ostream@DU?$char_traits@D@std@@@std@@QEAA@AEAV12@@Z@4HA 0000000180044db0 f   lodepng.obj
 0001:00043dc0       ?dtor$0@?0??_Endwrite@?$basic_filebuf@DU?$char_traits@D@std@@@std@@IEAA_NXZ@4HA 0000000180044dc0 f   lodepng.obj
 0001:00043dd0       ?dtor$0@?0??init@?$basic_ios@DU?$char_traits@D@std@@@std@@IEAAXPEAV?$basic_streambuf@DU?$char_traits@D@std@@@2@_N@Z@4HA 0000000180044dd0 f   lodepng.obj
 0001:00043dd0       ?dtor$0@?0??open@?$basic_filebuf@DU?$char_traits@D@std@@@std@@QEAAPEAV12@PEBDHH@Z@4HA 0000000180044dd0 f   lodepng.obj
 0001:00043de0       ?dtor$0@?0???0?$basic_ostream@DU?$char_traits@D@std@@@std@@QEAA@PEAV?$basic_streambuf@DU?$char_traits@D@std@@@1@_N@Z@4HA 0000000180044de0 f   lodepng.obj
 0001:00043e10       ?dtor$0@?0??flush@?$basic_ostream@DU?$char_traits@D@std@@@std@@QEAAAEAV12@XZ@4HA 0000000180044e10 f   lodepng.obj
 0001:00043e20       ?dtor$0@?0???$use_facet@V?$ctype@D@std@@@std@@YAAEBV?$ctype@D@0@AEBVlocale@0@@Z@4HA 0000000180044e20 f   lodepng.obj
 0001:00043e20       ?dtor$0@?0???$use_facet@V?$codecvt@DDU_Mbstatet@@@std@@@std@@YAAEBV?$codecvt@DDU_Mbstatet@@@0@AEBVlocale@0@@Z@4HA 0000000180044e20 f   lodepng.obj
 0001:00043e30       ?dtor$0@?0??_Getcat@?$codecvt@DDU_Mbstatet@@@std@@SA_KPEAPEBVfacet@locale@2@PEBV42@@Z@4HA 0000000180044e30 f   lodepng.obj
 0001:00043e50       ?dtor$2@?0??_Getcat@?$codecvt@DDU_Mbstatet@@@std@@SA_KPEAPEBVfacet@locale@2@PEBV42@@Z@4HA 0000000180044e50 f   lodepng.obj
 0001:00043e5c       ?dtor$3@?0??_Getcat@?$codecvt@DDU_Mbstatet@@@std@@SA_KPEAPEBVfacet@locale@2@PEBV42@@Z@4HA 0000000180044e5c f   lodepng.obj
 0001:00043e6c       ?dtor$4@?0??_Getcat@?$codecvt@DDU_Mbstatet@@@std@@SA_KPEAPEBVfacet@locale@2@PEBV42@@Z@4HA 0000000180044e6c f   lodepng.obj
 0001:00043e7c       ?dtor$5@?0??_Getcat@?$codecvt@DDU_Mbstatet@@@std@@SA_KPEAPEBVfacet@locale@2@PEBV42@@Z@4HA 0000000180044e7c f   lodepng.obj
 0001:00043e8c       ?dtor$6@?0??_Getcat@?$codecvt@DDU_Mbstatet@@@std@@SA_KPEAPEBVfacet@locale@2@PEBV42@@Z@4HA 0000000180044e8c f   lodepng.obj
 0001:00043e9c       ?dtor$7@?0??_Getcat@?$codecvt@DDU_Mbstatet@@@std@@SA_KPEAPEBVfacet@locale@2@PEBV42@@Z@4HA 0000000180044e9c f   lodepng.obj
 0001:00043eac       ?dtor$8@?0??_Getcat@?$codecvt@DDU_Mbstatet@@@std@@SA_KPEAPEBVfacet@locale@2@PEBV42@@Z@4HA 0000000180044eac f   lodepng.obj
 0001:00043ebc       ?dtor$9@?0??_Getcat@?$codecvt@DDU_Mbstatet@@@std@@SA_KPEAPEBVfacet@locale@2@PEBV42@@Z@4HA 0000000180044ebc f   lodepng.obj
 0001:00043ed0       ?dtor$0@?0??getChunks@lodepng@@YAIQEAV?$vector@V?$basic_string@DU?$char_traits@D@std@@V?$allocator@D@2@@std@@V?$allocator@V?$basic_string@DU?$char_traits@D@std@@V?$allocator@D@2@@std@@@2@@std@@QEAV?$vector@V?$vector@EV?$allocator@E@std@@@std@@V?$allocator@V?$vector@EV?$allocator@E@std@@@std@@@2@@3@AEBV?$vector@EV?$allocator@E@std@@@3@@Z@4HA 0000000180044ed0 f   lodepng_util.obj
 0001:00043edc       ?dtor$1@?0??getChunks@lodepng@@YAIQEAV?$vector@V?$basic_string@DU?$char_traits@D@std@@V?$allocator@D@2@@std@@V?$allocator@V?$basic_string@DU?$char_traits@D@std@@V?$allocator@D@2@@std@@@2@@std@@QEAV?$vector@V?$vector@EV?$allocator@E@std@@@std@@V?$allocator@V?$vector@EV?$allocator@E@std@@@std@@@2@@3@AEBV?$vector@EV?$allocator@E@std@@@3@@Z@4HA 0000000180044edc f   lodepng_util.obj
 0001:00043ef0       ?dtor$1@?0??insertChunks@lodepng@@YAIAEAV?$vector@EV?$allocator@E@std@@@std@@QEBV?$vector@V?$vector@EV?$allocator@E@std@@@std@@V?$allocator@V?$vector@EV?$allocator@E@std@@@std@@@2@@3@@Z@4HA 0000000180044ef0 f   lodepng_util.obj
 0001:00043f00       ?dtor$0@?0??getFilterTypesInterlaced@lodepng@@YAIAEAV?$vector@V?$vector@EV?$allocator@E@std@@@std@@V?$allocator@V?$vector@EV?$allocator@E@std@@@std@@@2@@std@@AEBV?$vector@EV?$allocator@E@std@@@3@@Z@4HA 0000000180044f00 f   lodepng_util.obj
 0001:00043f0c       ?dtor$1@?0??getFilterTypesInterlaced@lodepng@@YAIAEAV?$vector@V?$vector@EV?$allocator@E@std@@@std@@V?$allocator@V?$vector@EV?$allocator@E@std@@@std@@@2@@std@@AEBV?$vector@EV?$allocator@E@std@@@3@@Z@4HA 0000000180044f0c f   lodepng_util.obj
 0001:00043f18       ?dtor$4@?0??getFilterTypesInterlaced@lodepng@@YAIAEAV?$vector@V?$vector@EV?$allocator@E@std@@@std@@V?$allocator@V?$vector@EV?$allocator@E@std@@@std@@@2@@std@@AEBV?$vector@EV?$allocator@E@std@@@3@@Z@4HA 0000000180044f18 f   lodepng_util.obj
 0001:00043f30       ?dtor$0@?0??getFilterTypes@lodepng@@YAIAEAV?$vector@EV?$allocator@E@std@@@std@@AEBV23@@Z@4HA 0000000180044f30 f   lodepng_util.obj
 0001:00043f3c       ?dtor$1@?0??getFilterTypes@lodepng@@YAIAEAV?$vector@EV?$allocator@E@std@@@std@@AEBV23@@Z@4HA 0000000180044f3c f   lodepng_util.obj
 0001:00043f50       ?dtor$0@?0??push_back@?$vector@V?$basic_string@DU?$char_traits@D@std@@V?$allocator@D@2@@std@@V?$allocator@V?$basic_string@DU?$char_traits@D@std@@V?$allocator@D@2@@std@@@2@@std@@QEAAXAEBV?$basic_string@DU?$char_traits@D@std@@V?$allocator@D@2@@2@@Z@4HA 0000000180044f50 f   lodepng_util.obj
 0001:00043f6c       ?dtor$1@?0??push_back@?$vector@V?$basic_string@DU?$char_traits@D@std@@V?$allocator@D@2@@std@@V?$allocator@V?$basic_string@DU?$char_traits@D@std@@V?$allocator@D@2@@std@@@2@@std@@QEAAXAEBV?$basic_string@DU?$char_traits@D@std@@V?$allocator@D@2@@2@@Z@4HA 0000000180044f6c f   lodepng_util.obj
 0001:00043f88       ?dtor$0@?0??_Locimp_dtor@_Locimp@locale@std@@CAXPEAV123@@Z@4HA 0000000180044f88 f   libcpmt:locale0.obj
 0001:00043f88       ?dtor$0@?0??_Init@locale@std@@CAPEAV_Locimp@12@_N@Z@4HA 0000000180044f88 f   libcpmt:locale0.obj
 0001:00043f94       ?fin$0@?0???_M@YAXPEAX_K1P6AX0@Z@Z@4HA 0000000180044f94 f   LIBCMT:ehvecdtr.obj
 0001:00043fc0       ?filt$0@?0??__ArrayUnwind@@YAXPEAX_K1P6AX0@Z@Z@4HA 0000000180044fc0 f   LIBCMT:ehvecdtr.obj
 0001:00044001       ?fin$0@?0???_L@YAXPEAX_K1P6AX0@Z2@Z@4HA 0000000180045001 f   LIBCMT:ehvecctr.obj
 0001:0004402d       __scrt_is_nonwritable_in_current_image$filt$0 000000018004502d f   LIBCMT:utility.obj
 0001:00044045       ?fin$0@?0??dllmain_crt_process_attach@@YAHQEAUHINSTANCE__@@QEAX@Z@4HA 0000000180045045 f   LIBCMT:dll_dllmain.obj
 0001:0004405c       ?fin$0@?0??dllmain_crt_process_detach@@YAH_N@Z@4HA 000000018004505c f   LIBCMT:dll_dllmain.obj
 0001:00044078       ?filt$0@?0??dllmain_dispatch@@YAHQEAUHINSTANCE__@@KQEAX@Z@4HA 0000000180045078 f   LIBCMT:dll_dllmain.obj
 0001:000440ae       __CxxCallCatchBlock$filt$0 00000001800450ae f   libvcruntime:frame.obj
 0001:000440d3       __CxxCallCatchBlock$fin$1  00000001800450d3 f   libvcruntime:frame.obj
 0001:0004414b       __DestructExceptionObject$filt$0 000000018004514b f   libvcruntime:frame.obj
 0001:00044163       __FrameUnwindToState$filt$0 0000000180045163 f   libvcruntime:frame.obj
 0001:00044179       __FrameUnwindToState$fin$1 0000000180045179 f   libvcruntime:frame.obj
 0001:0004419c       _CallSETranslator$filt$0   000000018004519c f   libvcruntime:trnsctrl.obj
 0001:000441e8       ?filt$0@?0??common_exit@@YAXHW4_crt_exit_cleanup_mode@@W4_crt_exit_return_mode@@@Z@4HA 00000001800451e8 f   libucrt:exit.obj
 0001:00044203       ?fin$1@?0??common_exit@@YAXHW4_crt_exit_cleanup_mode@@W4_crt_exit_return_mode@@@Z@4HA 0000000180045203 f   libucrt:exit.obj
 0001:0004421c       fputc$fin$0                000000018004521c f   libucrt:fputc.obj
 0001:00044236       ?fin$0@?0???$common_fsopen@D@@YAPEAU_iobuf@@QEBD0H@Z@4HA 0000000180045236 f   libucrt:fopen.obj
 0001:00044261       common_flush_all$fin$0     0000000180045261 f   libucrt:fflush.obj
 0001:0004427b       common_flush_all$fin$1     000000018004527b f   libucrt:fflush.obj
 0001:00044294       fclose$fin$0               0000000180045294 f   libucrt:fclose.obj
 0001:00044294       fflush$fin$0               0000000180045294 f   libucrt:fflush.obj
 0001:000442ac       ?fin$0@?0???$common_ftell@_J@@YA_JV__crt_stdio_stream@@@Z@4HA 00000001800452ac f   libucrt:ftell.obj
 0001:000442ac       ?fin$0@?0??common_fseek@@YAHV__crt_stdio_stream@@_JH@Z@4HA 00000001800452ac f   libucrt:fseek.obj
 0001:000442c6       fgetc$fin$0                00000001800452c6 f   libucrt:fgetc.obj
 0001:000442e0       ?fin$0@?0???$?RV<lambda_aa279a7bcb127014629d5b1d62c7325d>@@AEAV<lambda_0a64b6a4deda75c01876f29c44fc5eb3>@@V<lambda_3323e69fbefe9d1a11713e670d47cdfa>@@@?$__crt_seh_guarded_call@H@@QEAAH$$QEAV<lambda_aa279a7bcb127014629d5b1d62c7325d>@@AEAV<lambda_0a64b6a4deda75c01876f29c44fc5eb3>@@$$QEAV<lambda_3323e69fbefe9d1a11713e670d47cdfa>@@@Z@4HA 00000001800452e0 f   libucrt:output.obj
 0001:000442e0       ?fin$0@?0???$?RV<lambda_5d4c3fee44080f75d5d9762853974fe0>@@AEAV<lambda_532e024f4337e6fc7ad266c2bef9f4ed>@@V<lambda_c87bdc10097eb2402edb8ba9bdf0697b>@@@?$__crt_seh_guarded_call@_K@@QEAA_K$$QEAV<lambda_5d4c3fee44080f75d5d9762853974fe0>@@AEAV<lambda_532e024f4337e6fc7ad266c2bef9f4ed>@@$$QEAV<lambda_c87bdc10097eb2402edb8ba9bdf0697b>@@@Z@4HA 00000001800452e0 f   libucrt:fwrite.obj
 0001:000442e0       ?fin$0@?0???$?RV<lambda_7a5ef57ff966f610505f1d28a3d40618>@@AEAV<lambda_b721fa326cdb32351d23dfa67958c160>@@V<lambda_5e0fb27672408a07956fe59e48ccb2aa>@@@?$__crt_seh_guarded_call@H@@QEAAH$$QEAV<lambda_7a5ef57ff966f610505f1d28a3d40618>@@AEAV<lambda_b721fa326cdb32351d23dfa67958c160>@@$$QEAV<lambda_5e0fb27672408a07956fe59e48ccb2aa>@@@Z@4HA 00000001800452e0 f   libucrt:setvbuf.obj
 0001:000442e0       ?fin$0@?0???$?RV<lambda_7b91131dde12e1c3dfc74ff76b3f2eac>@@AEAV<lambda_dd75445284c072d0bd3768540cc698fa>@@V<lambda_16bc4ecb55b4718497c16bceaea2ceaf>@@@?$__crt_seh_guarded_call@H@@QEAAH$$QEAV<lambda_7b91131dde12e1c3dfc74ff76b3f2eac>@@AEAV<lambda_dd75445284c072d0bd3768540cc698fa>@@$$QEAV<lambda_16bc4ecb55b4718497c16bceaea2ceaf>@@@Z@4HA 00000001800452e0 f   libucrt:output.obj
 0001:000442fb       ungetc$fin$0               00000001800452fb f   libucrt:ungetc.obj
 0001:00044313       setlocale$fin$0            0000000180045313 f   libucrt:setlocale.obj
 0001:0004432e       _query_new_handler$fin$0   000000018004532e f   libucrt:new_handler.obj
 0001:00044344       ?fin$0@?0???$?RV<lambda_e24bbb7b643b32fcea6fa61b31d4c984>@@AEAV<lambda_275893d493268fdec8709772e3fcec0e>@@V<lambda_9d71df4d7cf3f480f8d633942495c3b0>@@@?$__crt_seh_guarded_call@H@@QEAAH$$QEAV<lambda_e24bbb7b643b32fcea6fa61b31d4c984>@@AEAV<lambda_275893d493268fdec8709772e3fcec0e>@@$$QEAV<lambda_9d71df4d7cf3f480f8d633942495c3b0>@@@Z@4HA 0000000180045344 f   libucrt:onexit.obj
 0001:00044361       raise$fin$0                0000000180045361 f   libucrt:signal.obj
 0001:00044385       ?fin$0@?0???$?RV<lambda_c36588078e9f5dfd39652860aa6b3aaf>@@AEAV<lambda_ec61778202f4f5fc7e7711acc23c3bca>@@V<lambda_dc9d2797ccde5d239b4a0efae8ebd7db>@@@?$__crt_seh_guarded_call@P6AXH@Z@@QEAAP6AXH@Z$$QEAV<lambda_c36588078e9f5dfd39652860aa6b3aaf>@@AEAV<lambda_ec61778202f4f5fc7e7711acc23c3bca>@@$$QEAV<lambda_dc9d2797ccde5d239b4a0efae8ebd7db>@@@Z@4HA 0000000180045385 f   libucrt:signal.obj
 0001:00044385       ?fin$0@?0???$?RV<lambda_99476a1ad63dd22509b5d3e65b0ffc95>@@AEAV<lambda_ad1ced32f4ac17aa236e5ef05d6b3b7c>@@V<lambda_f7424dd8d45958661754dc4f2697e9c3>@@@?$__crt_seh_guarded_call@X@@QEAAX$$QEAV<lambda_99476a1ad63dd22509b5d3e65b0ffc95>@@AEAV<lambda_ad1ced32f4ac17aa236e5ef05d6b3b7c>@@$$QEAV<lambda_f7424dd8d45958661754dc4f2697e9c3>@@@Z@4HA 0000000180045385 f   libucrt:mbctype.obj
 0001:00044385       ?fin$0@?0???$?RV<lambda_46352004c1216016012b18bd6f87e700>@@AEAV<lambda_3bd07e1a1191394380780325891bf33f>@@V<lambda_334532d3f185bcaa59b5be82d7d22bff>@@@?$__crt_seh_guarded_call@X@@QEAAX$$QEAV<lambda_46352004c1216016012b18bd6f87e700>@@AEAV<lambda_3bd07e1a1191394380780325891bf33f>@@$$QEAV<lambda_334532d3f185bcaa59b5be82d7d22bff>@@@Z@4HA 0000000180045385 f   libucrt:per_thread_data.obj
 0001:00044385       ?fin$0@?0???$?RV<lambda_d67e8342c384adda8f857579ab50b2ae>@@AEAV<lambda_30712929f77e709619002f448b6a9510>@@V<lambda_4525336fd7e478d965fb7ca7a337cad8>@@@?$__crt_seh_guarded_call@X@@QEAAX$$QEAV<lambda_d67e8342c384adda8f857579ab50b2ae>@@AEAV<lambda_30712929f77e709619002f448b6a9510>@@$$QEAV<lambda_4525336fd7e478d965fb7ca7a337cad8>@@@Z@4HA 0000000180045385 f   libucrt:wsetlocale.obj
 0001:00044385       ?fin$0@?0???$?RV<lambda_5e887d1dcbef67a5eb4283622ba103bf>@@AEAV<lambda_4466841279450cc726390878d4a41900>@@V<lambda_341c25c0346d94847f1f3c463c57e077>@@@?$__crt_seh_guarded_call@X@@QEAAX$$QEAV<lambda_5e887d1dcbef67a5eb4283622ba103bf>@@AEAV<lambda_4466841279450cc726390878d4a41900>@@$$QEAV<lambda_341c25c0346d94847f1f3c463c57e077>@@@Z@4HA 0000000180045385 f   libucrt:per_thread_data.obj
 0001:00044385       ?fin$0@?0???$?RV<lambda_72d1df2b273a38828b1ce30cbf4cdab5>@@AEAV<lambda_876a65b173b8412d3a47c70a915b0cf4>@@V<lambda_41932305e351933ebe8f8be3ed8bb5dc>@@@?$__crt_seh_guarded_call@X@@QEAAX$$QEAV<lambda_72d1df2b273a38828b1ce30cbf4cdab5>@@AEAV<lambda_876a65b173b8412d3a47c70a915b0cf4>@@$$QEAV<lambda_41932305e351933ebe8f8be3ed8bb5dc>@@@Z@4HA 0000000180045385 f   libucrt:per_thread_data.obj
 0001:00044385       ?fin$0@?0???$?RV<lambda_fb3a7dec4e47f37f22dae91bb15c9095>@@AEAV<lambda_698284760c8add0bfb0756c19673e34b>@@V<lambda_dfb8eca1e75fef3034a8fb18dd509707>@@@?$__crt_seh_guarded_call@X@@QEAAX$$QEAV<lambda_fb3a7dec4e47f37f22dae91bb15c9095>@@AEAV<lambda_698284760c8add0bfb0756c19673e34b>@@$$QEAV<lambda_dfb8eca1e75fef3034a8fb18dd509707>@@@Z@4HA 0000000180045385 f   libucrt:per_thread_data.obj
 0001:00044385       ?fin$0@?0???$?RV<lambda_630b2aca97f6d20d5b5ea6529ea6b6af>@@AEAV<lambda_af91936f1d075d609f72d9d8cba980af>@@V<lambda_e82fa975f615b5c7c7b0e4d178fdae67>@@@?$__crt_seh_guarded_call@H@@QEAAH$$QEAV<lambda_630b2aca97f6d20d5b5ea6529ea6b6af>@@AEAV<lambda_af91936f1d075d609f72d9d8cba980af>@@$$QEAV<lambda_e82fa975f615b5c7c7b0e4d178fdae67>@@@Z@4HA 0000000180045385 f   libucrt:winapi_thunks.obj
 0001:00044385       ?fin$0@?0???$?RV<lambda_b8c45f8f788dd370798f47cfe8ac3a86>@@AEAV<lambda_4e60a939b0d047cfe11ddc22648dfba9>@@V<lambda_332c3edc96d0294ec56c57d38c1cdfd5>@@@?$__crt_seh_guarded_call@H@@QEAAH$$QEAV<lambda_b8c45f8f788dd370798f47cfe8ac3a86>@@AEAV<lambda_4e60a939b0d047cfe11ddc22648dfba9>@@$$QEAV<lambda_332c3edc96d0294ec56c57d38c1cdfd5>@@@Z@4HA 0000000180045385 f   libucrt:onexit.obj
 0001:0004439f       ?fin$0@?0??__acrt_stdio_allocate_stream@@YA?AV__crt_stdio_stream@@XZ@4HA 000000018004539f f   libucrt:stream.obj
 0001:0004439f       _fcloseall$fin$0           000000018004539f f   libucrt:closeall.obj
 0001:000443b8       ?fin$0@?0???$?RV<lambda_5df02c53a8f32f81fd64e5bbb78039f1>@@AEAV<lambda_2af78c5f5901b1372d98f9ab3177dfa6>@@AEAV<lambda_f51fe5fd7c79a33db34fc9310f277369>@@@?$__crt_seh_guarded_call@X@@QEAAX$$QEAV<lambda_5df02c53a8f32f81fd64e5bbb78039f1>@@AEAV<lambda_2af78c5f5901b1372d98f9ab3177dfa6>@@AEAV<lambda_f51fe5fd7c79a33db34fc9310f277369>@@@Z@4HA 00000001800453b8 f   libucrt:wsetlocale.obj
 0001:000443d9       ?fin$0@?0???$?RV<lambda_bfedae4ebbf01fab1bb6dcc6a9e276e0>@@AEAV<lambda_2fe9b910cf3cbf4a0ab98a02ba45b3ec>@@V<lambda_237c231691f317818eb88cc1d5d642d6>@@@?$__crt_seh_guarded_call@H@@QEAAH$$QEAV<lambda_bfedae4ebbf01fab1bb6dcc6a9e276e0>@@AEAV<lambda_2fe9b910cf3cbf4a0ab98a02ba45b3ec>@@$$QEAV<lambda_237c231691f317818eb88cc1d5d642d6>@@@Z@4HA 00000001800453d9 f   libucrt:close.obj
 0001:000443d9       ?fin$0@?0???$?RV<lambda_b521505b218e5242e90febf6bfebc422>@@AEAV<lambda_6978c1fb23f02e42e1d9e99668cc68aa>@@V<lambda_314360699dd331753a4119843814e9a7>@@@?$__crt_seh_guarded_call@H@@QEAAH$$QEAV<lambda_b521505b218e5242e90febf6bfebc422>@@AEAV<lambda_6978c1fb23f02e42e1d9e99668cc68aa>@@$$QEAV<lambda_314360699dd331753a4119843814e9a7>@@@Z@4HA 00000001800453d9 f   libucrt:commit.obj
 0001:000443f3       ?fin$0@?0???$common_lseek@_J@@YA_JH_JH@Z@4HA 00000001800453f3 f   libucrt:lseek.obj
 0001:000443f3       _write$fin$0               00000001800453f3 f   libucrt:write.obj
 0001:000443f3       _read$fin$0                00000001800453f3 f   libucrt:read.obj
 0001:0004440a       __acrt_update_thread_multibyte_data$fin$0 000000018004540a f   libucrt:mbctype.obj
 0001:00044423       __acrt_update_thread_locale_data$fin$0 0000000180045423 f   libucrt:locale_refcounting.obj
 0001:00044423       __acrt_uninitialize_locale$fin$0 0000000180045423 f   libucrt:wsetlocale.obj
 0001:0004443c       __acrt_lowio_ensure_fh_exists$fin$0 000000018004543c f   libucrt:osfinfo.obj
 0001:0004443c       _alloc_osfhnd$fin$0        000000018004543c f   libucrt:osfinfo.obj
 0001:0004443c       __acrt_initialize_lowio$fin$0 000000018004543c f   libucrt:ioinit.obj
 0001:00044455       ?fin$0@?0???$common_sopen_dispatch@D@@YAHQEBDHHHQEAHH@Z@4HA 0000000180045455 f   libucrt:open.obj
 0001:000444a8       common_control87$filt$0    00000001800454a8 f   libucrt:ieee.obj
 0001:000444a8       _ctrlfp$filt$0             00000001800454a8 f   libucrt:fpctrl.obj
 0001:000444e0       _IsNonwritableInCurrentImage$filt$0 00000001800454e0 f   LIBCMT:pesect.obj
 0001:00044504       ??__Finitlocks@std@@YAXXZ  0000000180045504 f   libcpmt:xlock.obj
 0001:00044510       ??__F_Fac_tidy_reg@std@@YAXXZ 0000000180045510 f   libcpmt:locale0.obj
 0001:0004453c       ??__Fclassic_locale@std@@YAXXZ 000000018004553c f   libcpmt:locale0.obj
 0001:0004459c       ??__Fcout@std@@YAXXZ       000000018004559c f   libcpmt:cout.obj
 0001:000445fc       ??__Ffout@std@@YAXXZ       00000001800455fc f   libcpmt:cout.obj
 0001:00044608       ??__Finitlocks@@YAXXZ      0000000180045608 f   libcpmt:cout.obj
 0001:00044614       ??__Finit_atexit@@YAXXZ    0000000180045614 f   libcpmt:iosptrs.obj
 0001:00044668       ??__Finitlocks@std@@YAXXZ  0000000180045668 f   libcpmt:iosptrs.obj
 0002:000002e0       ?initlocks$initializer$@std@@3P6AXXZEA 00000001800462e0     libcpmt:xlock.obj
 0002:000002e8       ?initlocks$initializer$@@3P6AXXZEA 00000001800462e8     libcpmt:cout.obj
 0002:000002f0       ?fout$initializer$@std@@3P6AXXZEA 00000001800462f0     libcpmt:cout.obj
 0002:000002f8       ?cout$initializer$@std@@3P6AXXZEA 00000001800462f8     libcpmt:cout.obj
 0002:00000300       ?init_cout$initializer$@std@@3P6AXXZEA 0000000180046300     libcpmt:cout.obj
 0002:00000308       ?initlocks$initializer$@std@@3P6AXXZEA 0000000180046308     libcpmt:iosptrs.obj
 0002:00000310       ?init_atexit$initializer$@@3P6AXXZEA 0000000180046310     libcpmt:iosptrs.obj
 0002:00000318       ?_Fac_tidy_reg$initializer$@std@@3P6AXXZEA 0000000180046318     libcpmt:locale0.obj
 0002:00000320       ?classic_locale$initializer$@std@@3P6AXXZEA 0000000180046320     libcpmt:locale0.obj
 0002:00000340       ?pinit@@3P6AHXZEA          0000000180046340     libcpmt:winapisupp.obj
 0002:00000348       ?__scrt_initialize_tss_var@@3P6AHXZEA 0000000180046348     LIBCMT:thread_safe_statics.obj
 0002:00000488       $cppxdata$??_G_Fac_node@std@@QEAAPEAXI@Z 0000000180046488     libcpmt:locale0.obj
 0002:000004b0       $cppxdata$?_Locimp_dtor@_Locimp@locale@std@@CAXPEAV123@@Z 00000001800464b0     libcpmt:locale0.obj
 0002:000004d8       $cppxdata$??_G_Locimp@locale@std@@MEAAPEAXI@Z 00000001800464d8     libcpmt:locale0.obj
 0002:00000500       $cppxdata$?_Init@locale@std@@CAPEAV_Locimp@12@_N@Z 0000000180046500     libcpmt:locale0.obj
 0002:00000528       $cppxdata$??__Fclassic_locale@std@@YAXXZ 0000000180046528     libcpmt:locale0.obj
 0002:000005a0       ?mods@?1??_Xfsopen@std@@YAPEAU_iobuf@@PEBDHH@Z@4QBQEBDB 00000001800465a0     libcpmt:fiopen.obj
 0002:00000680       ?_Win_errtab@std@@3QBU_Win_errtab_t@1@B 0000000180046680     libcpmt:syserror.obj
 0002:000008d0       ?_Sys_errtab@std@@3QBU_Sys_errtab_t@1@B 00000001800468d0     libcpmt:syserror.obj
 0002:00001470       $cppxdata$??__Fcout@std@@YAXXZ 0000000180047470     libcpmt:cout.obj
 0002:00001720       $cppxdata$??__Finit_atexit@@YAXXZ 0000000180047720     libcpmt:iosptrs.obj
 0002:00001b48       digits                     0000000180047b48     libcpmt:xstoul.obj
 0002:00001b70       ndigs                      0000000180047b70     libcpmt:xstoul.obj
 0002:00001b98       digits                     0000000180047b98     libcpmt:xstoull.obj
 0002:00001bc0       ndigs                      0000000180047bc0     libcpmt:xstoull.obj
 0002:00002220       ?LcidToLocaleNameTable@@3QBULcidToLocaleName@@B 0000000180048220     libcpmt:winapinls.obj
 0002:00003060       ?LocaleNameToIndexTable@@3QBULocaleNameIndex@@B 0000000180049060     libcpmt:winapinls.obj
 0002:00004f48       GS_ExceptionPointers       000000018004af48     LIBCMT:gs_report.obj
 0002:00004fc0       ?ExceptionTemplate@?1??_CxxThrowException@@9@4UEHExceptionRecord@@B 000000018004afc0     libvcruntime:throw.obj
 0002:00005000       ?ExceptionTemplate@?1??_UnwindNestedFrames@@9@4U_EXCEPTION_RECORD@@B 000000018004b000     libvcruntime:trnsctrl.obj
 0002:00005098       ?module_names@?A0x679b24ab@@3QBQEB_WB 000000018004b098     libvcruntime:winapi_downlevel.obj
 0002:00005168       ?candidate_modules@?1??try_get_FlsAlloc@@YAP6AKP6AXPEAX@Z@ZXZ@4QBW4module_id@?A0x679b24ab@@B 000000018004b168     libvcruntime:winapi_downlevel.obj
 0002:00005170       ?candidate_modules@?1??try_get_FlsFree@@YAP6AHK@ZXZ@4QBW4module_id@?A0x679b24ab@@B 000000018004b170     libvcruntime:winapi_downlevel.obj
 0002:00005178       ?candidate_modules@?1??try_get_FlsGetValue@@YAP6APEAXK@ZXZ@4QBW4module_id@?A0x679b24ab@@B 000000018004b178     libvcruntime:winapi_downlevel.obj
 0002:00005180       ?candidate_modules@?1??try_get_FlsSetValue@@YAP6AHKPEAX@ZXZ@4QBW4module_id@?A0x679b24ab@@B 000000018004b180     libvcruntime:winapi_downlevel.obj
 0002:00005188       ?candidate_modules@?1??try_get_InitializeCriticalSectionEx@@YAP6AHPEAU_RTL_CRITICAL_SECTION@@KK@ZXZ@4QBW4module_id@?A0x679b24ab@@B 000000018004b188     libvcruntime:winapi_downlevel.obj
 0002:00005190       ?tokenTable@@3QBQEBDB      000000018004b190     libvcruntime:undname.obj
 0002:00005200       ?nameTable@@3QBQEBDB       000000018004b200     libvcruntime:undname.obj
 0002:00005488       ?rttiTable@@3QBQEBDB       000000018004b488     libvcruntime:undname.obj
 0002:00005e80       errtable                   000000018004be80     libucrt:errno.obj
 0002:000071d0       __flag_x_one_y_snan        000000018004d1d0     libucrt:pow.obj
 0002:000071d4       __flag_x_zero_z_inf        000000018004d1d4     libucrt:pow.obj
 0002:000071d8       __flag_x_nan               000000018004d1d8     libucrt:pow.obj
 0002:000071dc       __flag_y_nan               000000018004d1dc     libucrt:pow.obj
 0002:000071e0       __flag_x_nan_y_nan         000000018004d1e0     libucrt:pow.obj
 0002:000071e4       __flag_x_neg_y_notint      000000018004d1e4     libucrt:pow.obj
 0002:000071e8       __flag_z_zero              000000018004d1e8     libucrt:pow.obj
 0002:000071ec       __flag_z_denormal          000000018004d1ec     libucrt:pow.obj
 0002:000071f0       __flag_z_inf               000000018004d1f0     libucrt:pow.obj
 0002:00007200       __ay_max_bound             000000018004d200     libucrt:pow.obj
 0002:00007208       __ay_min_bound             000000018004d208     libucrt:pow.obj
 0002:00007210       __sign_mask                000000018004d210     libucrt:pow.obj
 0002:00007218       __sign_and_exp_mask        000000018004d218     libucrt:pow.obj
 0002:00007220       __exp_mask                 000000018004d220     libucrt:pow.obj
 0002:00007228       __neg_inf                  000000018004d228     libucrt:pow.obj
 0002:00007230       __pos_inf                  000000018004d230     libucrt:pow.obj
 0002:00007238       __pos_one                  000000018004d238     libucrt:pow.obj
 0002:00007240       __pos_zero                 000000018004d240     libucrt:pow.obj
 0002:00007248       __exp_mant_mask            000000018004d248     libucrt:pow.obj
 0002:00007250       __mant_mask                000000018004d250     libucrt:pow.obj
 0002:00007258       __ind_pattern              000000018004d258     libucrt:pow.obj
 0002:00007260       __neg_qnan                 000000018004d260     libucrt:pow.obj
 0002:00007268       __qnan                     000000018004d268     libucrt:pow.obj
 0002:00007270       __qnan_set                 000000018004d270     libucrt:pow.obj
 0002:00007278       __neg_one                  000000018004d278     libucrt:pow.obj
 0002:00007280       __neg_zero                 000000018004d280     libucrt:pow.obj
 0002:00007288       __exp_shift                000000018004d288     libucrt:pow.obj
 0002:00007290       __exp_bias                 000000018004d290     libucrt:pow.obj
 0002:00007298       __exp_bias_m1              000000018004d298     libucrt:pow.obj
 0002:000072a0       __yexp_53                  000000018004d2a0     libucrt:pow.obj
 0002:000072a8       __mant_full                000000018004d2a8     libucrt:pow.obj
 0002:000072b0       __1_before_mant            000000018004d2b0     libucrt:pow.obj
 0002:000072b8       __mask_mant_all8           000000018004d2b8     libucrt:pow.obj
 0002:000072c0       __mask_mant9               000000018004d2c0     libucrt:pow.obj
 0002:000072d0       __real_fffffffff8000000    000000018004d2d0     libucrt:pow.obj
 0002:000072e0       __mask_8000000000000000    000000018004d2e0     libucrt:pow.obj
 0002:000072f0       __real_4090040000000000    000000018004d2f0     libucrt:pow.obj
 0002:00007300       __real_C090C80000000000    000000018004d300     libucrt:pow.obj
 0002:00007310       __real_ninf                000000018004d310     libucrt:pow.obj
 0002:00007320       __real_inf                 000000018004d320     libucrt:pow.obj
 0002:00007330       __real_nan                 000000018004d330     libucrt:pow.obj
 0002:00007340       __real_mant                000000018004d340     libucrt:pow.obj
 0002:00007350       __mask_1023                000000018004d350     libucrt:pow.obj
 0002:00007360       __mask_001                 000000018004d360     libucrt:pow.obj
 0002:00007370       __real_log2_lead           000000018004d370     libucrt:pow.obj
 0002:00007380       __real_log2_tail           000000018004d380     libucrt:pow.obj
 0002:00007390       __real_two                 000000018004d390     libucrt:pow.obj
 0002:000073a0       __real_one                 000000018004d3a0     libucrt:pow.obj
 0002:000073b0       __real_half                000000018004d3b0     libucrt:pow.obj
 0002:000073c0       __mask_100                 000000018004d3c0     libucrt:pow.obj
 0002:000073d0       __real_1_over_2            000000018004d3d0     libucrt:pow.obj
 0002:000073e0       __real_1_over_3            000000018004d3e0     libucrt:pow.obj
 0002:000073f0       __real_1_over_4            000000018004d3f0     libucrt:pow.obj
 0002:00007400       __real_1_over_5            000000018004d400     libucrt:pow.obj
 0002:00007410       __real_1_over_6            000000018004d410     libucrt:pow.obj
 0002:00007420       __real_1_over_7            000000018004d420     libucrt:pow.obj
 0002:00007430       __mask_1023_f              000000018004d430     libucrt:pow.obj
 0002:00007440       __mask_2045                000000018004d440     libucrt:pow.obj
 0002:00007450       __real_threshold           000000018004d450     libucrt:pow.obj
 0002:00007460       __real_notsign             000000018004d460     libucrt:pow.obj
 0002:00007470       __log_F_inv_head           000000018004d470     libucrt:pow.obj
 0002:00007c80       __log_F_inv_tail           000000018004dc80     libucrt:pow.obj
 0002:00008490       __denormal_threshold       000000018004e490     libucrt:pow.obj
 0002:000084a0       __enable_almost_inf        000000018004e4a0     libucrt:pow.obj
 0002:000084b0       __real_zero                000000018004e4b0     libucrt:pow.obj
 0002:000084c0       __real_smallest_denormal   000000018004e4c0     libucrt:pow.obj
 0002:000084d0       __denormal_tiny_threshold  000000018004e4d0     libucrt:pow.obj
 0002:000084e0       __real_p65536              000000018004e4e0     libucrt:pow.obj
 0002:000084f0       __real_m68800              000000018004e4f0     libucrt:pow.obj
 0002:00008500       __real_64_by_log2          000000018004e500     libucrt:pow.obj
 0002:00008510       __real_log2_by_64_head     000000018004e510     libucrt:pow.obj
 0002:00008520       __real_log2_by_64_tail     000000018004e520     libucrt:pow.obj
 0002:00008530       __real_1_by_720            000000018004e530     libucrt:pow.obj
 0002:00008540       __real_1_by_120            000000018004e540     libucrt:pow.obj
 0002:00008550       __real_1_by_24             000000018004e550     libucrt:pow.obj
 0002:00008560       __real_1_by_6              000000018004e560     libucrt:pow.obj
 0002:00008570       __real_1_by_2              000000018004e570     libucrt:pow.obj
 0002:00008580       __flag_x_one_y_snan        000000018004e580     libucrt:powf.obj
 0002:00008584       __flag_x_zero_z_inf        000000018004e584     libucrt:powf.obj
 0002:00008588       __flag_x_nan               000000018004e588     libucrt:powf.obj
 0002:0000858c       __flag_y_nan               000000018004e58c     libucrt:powf.obj
 0002:00008590       __flag_x_nan_y_nan         000000018004e590     libucrt:powf.obj
 0002:00008594       __flag_x_neg_y_notint      000000018004e594     libucrt:powf.obj
 0002:00008598       __flag_z_zero              000000018004e598     libucrt:powf.obj
 0002:0000859c       __flag_z_denormal          000000018004e59c     libucrt:powf.obj
 0002:000085a0       __flag_z_inf               000000018004e5a0     libucrt:powf.obj
 0002:000085a4       L__1_by_3                  000000018004e5a4     libucrt:powf.obj
 0002:000085ac       L__log2                    000000018004e5ac     libucrt:powf.obj
 0002:000085b4       L__max_exp_arg             000000018004e5b4     libucrt:powf.obj
 0002:000085bc       L__min_exp_arg             000000018004e5bc     libucrt:powf.obj
 0002:000085c4       L__real_log2_by_64         000000018004e5c4     libucrt:powf.obj
 0002:000085cc       L__1_by_6                  000000018004e5cc     libucrt:powf.obj
 0002:000085d4       L__real_threshold          000000018004e5d4     libucrt:powf.obj
 0002:000085dc       L__real_one                000000018004e5dc     libucrt:powf.obj
 0002:000085e4       L__real_two                000000018004e5e4     libucrt:powf.obj
 0002:000085ec       L__neg_zero                000000018004e5ec     libucrt:powf.obj
 0002:00008600       L__real_ca42               000000018004e600     libucrt:powf.obj
 0002:00008608       L__real_ca4                000000018004e608     libucrt:powf.obj
 0002:00008610       L__real_ca31               000000018004e610     libucrt:powf.obj
 0002:00008618       L__real_ca3                000000018004e618     libucrt:powf.obj
 0002:00008620       L__clear_sign              000000018004e620     libucrt:powf.obj
 0002:00008630       L__real_64_by_log2         000000018004e630     libucrt:powf.obj
 0002:00008640       L__1_by_2                  000000018004e640     libucrt:powf.obj
 0002:00008650       L__1023                    000000018004e650     libucrt:powf.obj
 0002:00008660       L__xexp_bits_xmantissa_bits 000000018004e660     libucrt:powf.obj
 0002:00008f60       __acrt_initializers        000000018004ef60     libucrt:initialization.obj
 0002:00009050       module_names               000000018004f050     libucrt:winapi_thunks.obj
 0002:00009580       ?candidate_modules@?1??try_get_AreFileApisANSI@@YAP6AHXZXZ@4QBW4module_id@?A0x63058377@@B 000000018004f580     libucrt:winapi_thunks.obj
 0002:00009598       ?candidate_modules@?1??try_get_CompareStringEx@@YAP6AHPEB_WK0H0HPEAU_nlsversioninfo@@PEAX_J@ZXZ@4QBW4module_id@?A0x63058377@@B 000000018004f598     libucrt:winapi_thunks.obj
 0002:000095a0       ?candidate_modules@?1??try_get_EnumSystemLocalesEx@@YAP6AHP6AHPEA_WK_J@ZK1PEAX@ZXZ@4QBW4module_id@?A0x63058377@@B 000000018004f5a0     libucrt:winapi_thunks.obj
 0002:000095c0       ?candidate_modules@?1??try_get_FlsAlloc@@YAP6AKP6AXPEAX@Z@ZXZ@4QBW4module_id@?A0x63058377@@B 000000018004f5c0     libucrt:winapi_thunks.obj
 0002:000095c8       ?candidate_modules@?1??try_get_FlsFree@@YAP6AHK@ZXZ@4QBW4module_id@?A0x63058377@@B 000000018004f5c8     libucrt:winapi_thunks.obj
 0002:000095d0       ?candidate_modules@?1??try_get_FlsGetValue@@YAP6APEAXK@ZXZ@4QBW4module_id@?A0x63058377@@B 000000018004f5d0     libucrt:winapi_thunks.obj
 0002:000095d8       ?candidate_modules@?1??try_get_FlsSetValue@@YAP6AHKPEAX@ZXZ@4QBW4module_id@?A0x63058377@@B 000000018004f5d8     libucrt:winapi_thunks.obj
 0002:000095e0       ?candidate_modules@?1??try_get_GetActiveWindow@@YAP6APEAUHWND__@@XZXZ@4QBW4module_id@?A0x63058377@@B 000000018004f5e0     libucrt:winapi_thunks.obj
 0002:000095f8       ?candidate_modules@?1??try_get_GetCurrentPackageId@@YAP6AJPEAIPEAE@ZXZ@4QBW4module_id@?A0x63058377@@B 000000018004f5f8     libucrt:winapi_thunks.obj
 0002:00009600       ?candidate_modules@?1??try_get_GetLastActivePopup@@YAP6APEAUHWND__@@PEAU2@@ZXZ@4QBW4module_id@?A0x63058377@@B 000000018004f600     libucrt:winapi_thunks.obj
 0002:00009620       ?candidate_modules@?1??try_get_GetLocaleInfoEx@@YAP6AHPEB_WKPEA_WH@ZXZ@4QBW4module_id@?A0x63058377@@B 000000018004f620     libucrt:winapi_thunks.obj
 0002:00009628       ?candidate_modules@?1??try_get_GetProcessWindowStation@@YAP6APEAUHWINSTA__@@XZXZ@4QBW4module_id@?A0x63058377@@B 000000018004f628     libucrt:winapi_thunks.obj
 0002:00009648       ?candidate_modules@?1??try_get_GetUserDefaultLocaleName@@YAP6AHPEA_WH@ZXZ@4QBW4module_id@?A0x63058377@@B 000000018004f648     libucrt:winapi_thunks.obj
 0002:00009670       ?candidate_modules@?1??try_get_GetUserObjectInformationW@@YAP6AHPEAXH0KPEAK@ZXZ@4QBW4module_id@?A0x63058377@@B 000000018004f670     libucrt:winapi_thunks.obj
 0002:00009698       ?candidate_modules@?1??try_get_InitializeCriticalSectionEx@@YAP6AHPEAU_RTL_CRITICAL_SECTION@@KK@ZXZ@4QBW4module_id@?A0x63058377@@B 000000018004f698     libucrt:winapi_thunks.obj
 0002:000096a0       ?candidate_modules@?1??try_get_IsValidLocaleName@@YAP6AHPEB_W@ZXZ@4QBW4module_id@?A0x63058377@@B 000000018004f6a0     libucrt:winapi_thunks.obj
 0002:000096c0       ?candidate_modules@?1??try_get_LCMapStringEx@@YAP6AHPEB_WK0HPEA_WHPEAU_nlsversioninfo@@PEAX_J@ZXZ@4QBW4module_id@?A0x63058377@@B 000000018004f6c0     libucrt:winapi_thunks.obj
 0002:000096c8       ?candidate_modules@?1??try_get_LCIDToLocaleName@@YAP6AHKPEA_WHK@ZXZ@4QBW4module_id@?A0x63058377@@B 000000018004f6c8     libucrt:winapi_thunks.obj
 0002:000096e8       ?candidate_modules@?1??try_get_LocaleNameToLCID@@YAP6AKPEB_WK@ZXZ@4QBW4module_id@?A0x63058377@@B 000000018004f6e8     libucrt:winapi_thunks.obj
 0002:00009708       ?candidate_modules@?1??try_get_MessageBoxA@@YAP6AHPEAUHWND__@@PEBD1I@ZXZ@4QBW4module_id@?A0x63058377@@B 000000018004f708     libucrt:winapi_thunks.obj
 0002:00009720       ?candidate_modules@?1??try_get_MessageBoxW@@YAP6AHPEAUHWND__@@PEB_W1I@ZXZ@4QBW4module_id@?A0x63058377@@B 000000018004f720     libucrt:winapi_thunks.obj
 0002:000098a0       _first_127char             000000018004f8a0     libucrt:wsetlocale.obj
 0002:0000be30       _mb_locale_names           0000000180051e30     libucrt:mbctype.obj
 0002:0000be50       LcidToLocaleNameTable      0000000180051e50     libucrt:lcidtoname_downlevel.obj
 0002:0000cc90       LocaleNameToIndexTable     0000000180052c90     libucrt:lcidtoname_downlevel.obj
 0002:0000ead0       __real@433fffffffffffff    0000000180054ad0     libucrt:fpsr.obj
 0002:0000ead8       __real@c33fffffffffffff    0000000180054ad8     libucrt:fpsr.obj
 0002:0000eae0       __real_ninf                0000000180054ae0     libucrt:log10.obj
 0002:0000eaf0       __real_inf                 0000000180054af0     libucrt:log10.obj
 0002:0000eb00       __real_neg_qnan            0000000180054b00     libucrt:log10.obj
 0002:0000eb10       __real_qnanbit             0000000180054b10     libucrt:log10.obj
 0002:0000eb20       __int_1023                 0000000180054b20     libucrt:log10.obj
 0002:0000eb30       __mask_001                 0000000180054b30     libucrt:log10.obj
 0002:0000eb40       __mask_mant                0000000180054b40     libucrt:log10.obj
 0002:0000eb50       __mask_mant_top8           0000000180054b50     libucrt:log10.obj
 0002:0000eb60       __mask_mant9               0000000180054b60     libucrt:log10.obj
 0002:0000eb70       __real_log10_e             0000000180054b70     libucrt:log10.obj
 0002:0000eb80       __real_log10_e_lead        0000000180054b80     libucrt:log10.obj
 0002:0000eb90       __real_log10_e_tail        0000000180054b90     libucrt:log10.obj
 0002:0000eba0       __real_log10_2_lead        0000000180054ba0     libucrt:log10.obj
 0002:0000ebb0       __real_log10_2_tail        0000000180054bb0     libucrt:log10.obj
 0002:0000ebc0       __real_two                 0000000180054bc0     libucrt:log10.obj
 0002:0000ebd0       __real_one                 0000000180054bd0     libucrt:log10.obj
 0002:0000ebe0       __real_half                0000000180054be0     libucrt:log10.obj
 0002:0000ebf0       __mask_100                 0000000180054bf0     libucrt:log10.obj
 0002:0000ec00       __real_1_over_512          0000000180054c00     libucrt:log10.obj
 0002:0000ec10       __real_1_over_2            0000000180054c10     libucrt:log10.obj
 0002:0000ec20       __real_1_over_3            0000000180054c20     libucrt:log10.obj
 0002:0000ec30       __real_1_over_4            0000000180054c30     libucrt:log10.obj
 0002:0000ec40       __real_1_over_5            0000000180054c40     libucrt:log10.obj
 0002:0000ec50       __real_1_over_6            0000000180054c50     libucrt:log10.obj
 0002:0000ec60       __real_neg_1023            0000000180054c60     libucrt:log10.obj
 0002:0000ec70       __mask_2045                0000000180054c70     libucrt:log10.obj
 0002:0000ec80       __real_threshold           0000000180054c80     libucrt:log10.obj
 0002:0000ec90       __real_near_one_lt         0000000180054c90     libucrt:log10.obj
 0002:0000eca0       __real_near_one_gt         0000000180054ca0     libucrt:log10.obj
 0002:0000ecb0       __real_min_norm            0000000180054cb0     libucrt:log10.obj
 0002:0000ecc0       __real_notsign             0000000180054cc0     libucrt:log10.obj
 0002:0000ecd0       __real_ca1                 0000000180054cd0     libucrt:log10.obj
 0002:0000ece0       __real_ca2                 0000000180054ce0     libucrt:log10.obj
 0002:0000ecf0       __real_ca3                 0000000180054cf0     libucrt:log10.obj
 0002:0000ed00       __real_ca4                 0000000180054d00     libucrt:log10.obj
 0002:0000ed10       __mask_lower               0000000180054d10     libucrt:log10.obj
 0002:0000ed20       __flag_x_zero              0000000180054d20     libucrt:log10.obj
 0002:0000ed24       __flag_x_neg               0000000180054d24     libucrt:log10.obj
 0002:0000ed28       __flag_x_nan               0000000180054d28     libucrt:log10.obj
 0002:00010970       ?order@?1??EncodeTree@@9@9 0000000180056970     deflate.obj
 0002:000109bc       ?sums_overflow@?1??adler32@@9@9 00000001800569bc     zlib_container.obj
 0002:000109c0       ?dsymbols@?1??GetCostModelMinCost@@9@9 00000001800569c0     squeeze.obj
 0002:00010a38       ?kInvLog2@?1??ZopfliCalculateEntropy@@9@9 0000000180056a38     tree.obj
 0002:00010a40       ?table@?1??ZopfliGetLengthSymbol@@9@9 0000000180056a40     util.obj
 0002:00010e50       ?table@?1??ZopfliGetLengthExtraBitsValue@@9@9 0000000180056e50     util.obj
 0002:00011260       ?table@?1??ZopfliGetLengthExtraBits@@9@9 0000000180057260     util.obj
 0002:00011670       ?ADAM7_DX@@3QBIB           0000000180057670     lodepng.obj
 0002:00011690       ?lodepng_crc32_table@@3PAIA 0000000180057690     lodepng.obj
 0002:00011a90       ?ADAM7_DY@@3QBIB           0000000180057a90     lodepng.obj
 0002:00011ab0       ?ADAM7_IY@@3QBIB           0000000180057ab0     lodepng.obj
 0002:00011ad0       ?DISTANCEBASE@@3QBIB       0000000180057ad0     lodepng.obj
 0002:00011b50       ?LENGTHEXTRA@@3QBIB        0000000180057b50     lodepng.obj
 0002:00011bf0       ?CLCL_ORDER@@3QBIB         0000000180057bf0     lodepng.obj
 0002:00011c40       ?DISTANCEEXTRA@@3QBIB      0000000180057c40     lodepng.obj
 0002:00011cc0       ?ADAM7_IX@@3QBIB           0000000180057cc0     lodepng.obj
 0002:00011ce0       ?LENGTHBASE@@3QBIB         0000000180057ce0     lodepng.obj
 0002:00011d60       ?LENEXTRA@lodepng@@3QBKB   0000000180057d60     lodepng_util.obj
 0002:00011de0       ?DISTBASE@lodepng@@3QBKB   0000000180057de0     lodepng_util.obj
 0002:00011e60       ?DISTEXTRA@lodepng@@3QBKB  0000000180057e60     lodepng_util.obj
 0002:00011ee0       ?LENBASE@lodepng@@3QBKB    0000000180057ee0     lodepng_util.obj
 0002:00011f60       ?CLCL@lodepng@@3QBKB       0000000180057f60     lodepng_util.obj
 0002:00013970       ?ADAM7_IX@?BG@??getFilterTypesInterlaced@lodepng@@YAIAEAV?$vector@V?$vector@EV?$allocator@E@std@@@std@@V?$allocator@V?$vector@EV?$allocator@E@std@@@std@@@2@@std@@AEBV?$vector@EV?$allocator@E@std@@@4@@Z@4QBIB 0000000180059970     lodepng_util.obj
 0002:00013990       ?ADAM7_IY@?BG@??getFilterTypesInterlaced@lodepng@@YAIAEAV?$vector@V?$vector@EV?$allocator@E@std@@@std@@V?$allocator@V?$vector@EV?$allocator@E@std@@@std@@@2@@std@@AEBV?$vector@EV?$allocator@E@std@@@4@@Z@4QBIB 0000000180059990     lodepng_util.obj
 0002:000139b0       ?ADAM7_DY@?BG@??getFilterTypesInterlaced@lodepng@@YAIAEAV?$vector@V?$vector@EV?$allocator@E@std@@@std@@V?$allocator@V?$vector@EV?$allocator@E@std@@@std@@@2@@std@@AEBV?$vector@EV?$allocator@E@std@@@4@@Z@4QBIB 00000001800599b0     lodepng_util.obj
 0002:000139d0       ?ADAM7_DX@?BG@??getFilterTypesInterlaced@lodepng@@YAIAEAV?$vector@V?$vector@EV?$allocator@E@std@@@std@@V?$allocator@V?$vector@EV?$allocator@E@std@@@std@@@2@@std@@AEBV?$vector@EV?$allocator@E@std@@@4@@Z@4QBIB 00000001800599d0     lodepng_util.obj
 0002:00013a10       $cppxdata$??$SetMethod@VObject@v8@@VLocal@2@@Nan@@YAXV?$Local@VObject@v8@@@v8@@PEBDP6AXAEBV?$FunctionCallbackInfo@VValue@v8@@@0@@Z@Z 0000000180059a10     zopfli-binding.obj
 0002:00013a38       $cppxdata$?Async@CompressBinding@nodezopfli@@SAXAEBV?$FunctionCallbackInfo@VValue@v8@@@Nan@@@Z 0000000180059a38     zopfli-binding.obj
 0002:00013a60       $cppxdata$??0CompressWorker@nodezopfli@@QEAA@PEAVCallback@Nan@@AEAW4ZopfliFormat@@AEAUZopfliOptions@@V?$Local@VObject@v8@@@v8@@@Z 0000000180059a60     zopfli-binding.obj
 0002:00013a88       $cppxdata$?ParseArgs@nodezopfli@@YAXAEBV?$FunctionCallbackInfo@VValue@v8@@@Nan@@AEAW4ZopfliFormat@@AEAUZopfliOptions@@@Z 0000000180059a88     zopfli-binding.obj
 0002:00013ab0       $cppxdata$??1?$Persistent@VObject@v8@@V?$NonCopyablePersistentTraits@VObject@v8@@@2@@Nan@@QEAA@XZ 0000000180059ab0     zopfli-binding.obj
 0002:00013ad8       $cppxdata$?HandleErrorCallback@AsyncWorker@Nan@@MEAAXXZ 0000000180059ad8     zopfli-binding.obj
 0002:00013b00       $cppxdata$?HandleOKCallback@AsyncWorker@Nan@@MEAAXXZ 0000000180059b00     zopfli-binding.obj
 0002:00013b28       $cppxdata$?WorkComplete@AsyncWorker@Nan@@UEAAXXZ 0000000180059b28     zopfli-binding.obj
 0002:00013b50       $cppxdata$??1AsyncWorker@Nan@@UEAA@XZ 0000000180059b50     zopfli-binding.obj
 0002:00013b78       $cppxdata$??0AsyncWorker@Nan@@QEAA@PEAVCallback@1@@Z 0000000180059b78     zopfli-binding.obj
 0002:00013ba0       $cppxdata$?Call_@Callback@Nan@@AEBA?AV?$Local@VValue@v8@@@v8@@PEAVIsolate@4@V?$Local@VObject@v8@@@4@HQEAV34@@Z 0000000180059ba0     zopfli-binding.obj
 0002:00013bc8       $cppxdata$?Call@Callback@Nan@@QEBA?AV?$Local@VValue@v8@@@v8@@HQEAV34@@Z 0000000180059bc8     zopfli-binding.obj
 0002:00013bf0       $cppxdata$??0Utf8String@Nan@@QEAA@V?$Local@VValue@v8@@@v8@@@Z 0000000180059bf0     zopfli-binding.obj
 0002:00013c18       $cppxdata$?ThrowTypeError@Nan@@YAXPEBD@Z 0000000180059c18     zopfli-binding.obj
 0002:00013c40       $cppxdata$?New@?$Factory@VFunctionTemplate@v8@@@imp@Nan@@SA?AV?$Local@VFunctionTemplate@v8@@@v8@@P6AXAEBV?$FunctionCallbackInfo@VValue@v8@@@3@@ZV?$Local@VValue@v8@@@5@V?$Local@VSignature@v8@@@5@@Z 0000000180059c40     zopfli-binding.obj
 0002:00013c68       $cppxdata$?convert@?$ToFactory@VUint32@v8@@@imp@Nan@@SA?AV?$MaybeLocal@VUint32@v8@@@v8@@V?$Local@VValue@v8@@@5@@Z 0000000180059c68     zopfli-binding.obj
 0002:00013c90       $cppxdata$?Has@Nan@@YA?AV?$Maybe@_N@v8@@V?$Local@VObject@v8@@@3@V?$Local@VString@v8@@@3@@Z 0000000180059c90     zopfli-binding.obj
 0002:00013cb8       $cppxdata$?Get@Nan@@YA?AV?$MaybeLocal@VValue@v8@@@v8@@V?$Local@VObject@v8@@@3@V?$Local@VValue@v8@@@3@@Z 0000000180059cb8     zopfli-binding.obj
 0002:00013ce0       $cppxdata$?GetFunction@Nan@@YA?AV?$MaybeLocal@VFunction@v8@@@v8@@V?$Local@VFunctionTemplate@v8@@@3@@Z 0000000180059ce0     zopfli-binding.obj
 0002:00013d08       $cppxdata$?NewInstance@Nan@@YA?AV?$MaybeLocal@VObject@v8@@@v8@@V?$Local@VObjectTemplate@v8@@@3@@Z 0000000180059d08     zopfli-binding.obj
 0002:00013e00       $cppxdata$?parseOptions@@YAXAEBV?$Local@VObject@v8@@@v8@@AEAUZopfliPNGOptions@@@Z 0000000180059e00     zopflipng.obj
 0002:00013e28       $cppxdata$?convert@?$ToFactory@VInteger@v8@@@imp@Nan@@SA?AV?$MaybeLocal@VInteger@v8@@@v8@@V?$Local@VValue@v8@@@5@@Z 0000000180059e28     zopflipng.obj
 0002:00013e50       $cppxdata$?PNGDeflate@@YAXAEBV?$FunctionCallbackInfo@VValue@v8@@@Nan@@@Z 0000000180059e50     zopflipng.obj
 0002:00013e78       $cppxdata$?KeepChunks@@YAXAEBV?$vector@EV?$allocator@E@std@@@std@@AEBV?$vector@V?$basic_string@DU?$char_traits@D@std@@V?$allocator@D@2@@std@@V?$allocator@V?$basic_string@DU?$char_traits@D@std@@V?$allocator@D@2@@std@@@2@@2@PEAV12@@Z 0000000180059e78     zopflipng_lib.obj
 0002:00013ea0       $cppxdata$?AutoChooseFilterStrategy@@YAIAEBV?$vector@EV?$allocator@E@std@@@std@@IIAEBVState@lodepng@@_N0HPEAW4ZopfliPNGFilterStrategy@@PEA_N@Z 0000000180059ea0     zopflipng_lib.obj
 0002:00013ec8       $cppxdata$?TryOptimize@@YAIAEBV?$vector@EV?$allocator@E@std@@@std@@IIAEBVState@lodepng@@_N0W4ZopfliPNGFilterStrategy@@2HPEBUZopfliPNGOptions@@PEAV12@@Z 0000000180059ec8     zopflipng_lib.obj
 0002:00013ef0       $cppxdata$?LossyOptimizeTransparent@@YAXPEAVState@lodepng@@PEAEII@Z 0000000180059ef0     zopflipng_lib.obj
 0002:00013f18       $cppxdata$?ZopfliPNGOptimize@@YAHAEBV?$vector@EV?$allocator@E@std@@@std@@AEBUZopfliPNGOptions@@_NPEAV12@@Z 0000000180059f18     zopflipng_lib.obj
 0002:00013f40       $cppxdata$?_Getcat@?$codecvt@DDU_Mbstatet@@@std@@SA_KPEAPEBVfacet@locale@2@PEBV42@@Z 0000000180059f40     lodepng.obj
 0002:00013f68       $cppxdata$??$use_facet@V?$codecvt@DDU_Mbstatet@@@std@@@std@@YAAEBV?$codecvt@DDU_Mbstatet@@@0@AEBVlocale@0@@Z 0000000180059f68     lodepng.obj
 0002:00013f90       $cppxdata$??$use_facet@V?$ctype@D@std@@@std@@YAAEBV?$ctype@D@0@AEBVlocale@0@@Z 0000000180059f90     lodepng.obj
 0002:00013fb8       $cppxdata$?init@?$basic_ios@DU?$char_traits@D@std@@@std@@IEAAXPEAV?$basic_streambuf@DU?$char_traits@D@std@@@2@_N@Z 0000000180059fb8     lodepng.obj
 0002:00013fe0       $cppxdata$??0?$basic_streambuf@DU?$char_traits@D@std@@@std@@IEAA@XZ 0000000180059fe0     lodepng.obj
 0002:00014008       $cppxdata$?flush@?$basic_ostream@DU?$char_traits@D@std@@@std@@QEAAAEAV12@XZ 000000018005a008     lodepng.obj
 0002:00014030       $cppxdata$??0?$basic_ostream@DU?$char_traits@D@std@@@std@@QEAA@PEAV?$basic_streambuf@DU?$char_traits@D@std@@@1@_N@Z 000000018005a030     lodepng.obj
 0002:00014058       $cppxdata$?open@?$basic_filebuf@DU?$char_traits@D@std@@@std@@QEAAPEAV12@PEBDHH@Z 000000018005a058     lodepng.obj
 0002:00014080       $cppxdata$?_Endwrite@?$basic_filebuf@DU?$char_traits@D@std@@@std@@IEAA_NXZ 000000018005a080     lodepng.obj
 0002:000140a8       $cppxdata$??0sentry@?$basic_ostream@DU?$char_traits@D@std@@@std@@QEAA@AEAV12@@Z 000000018005a0a8     lodepng.obj
 0002:000140d0       $cppxdata$??1sentry@?$basic_istream@DU?$char_traits@D@std@@@std@@QEAA@XZ 000000018005a0d0     lodepng.obj
 0002:000140f8       $cppxdata$?read@?$basic_istream@DU?$char_traits@D@std@@@std@@QEAAAEAV12@PEAD_J@Z 000000018005a0f8     lodepng.obj
 0002:00014120       $cppxdata$?seekg@?$basic_istream@DU?$char_traits@D@std@@@std@@QEAAAEAV12@_JH@Z 000000018005a120     lodepng.obj
 0002:00014148       $cppxdata$?tellg@?$basic_istream@DU?$char_traits@D@std@@@std@@QEAA?AV?$fpos@U_Mbstatet@@@2@XZ 000000018005a148     lodepng.obj
 0002:00014170       $cppxdata$?write@?$basic_ostream@DU?$char_traits@D@std@@@std@@QEAAAEAV12@PEBD_J@Z 000000018005a170     lodepng.obj
 0002:00014198       $cppxdata$?overflow@?$basic_filebuf@DU?$char_traits@D@std@@@std@@MEAAHH@Z 000000018005a198     lodepng.obj
 0002:000141c0       $cppxdata$?uflow@?$basic_filebuf@DU?$char_traits@D@std@@@std@@MEAAHXZ 000000018005a1c0     lodepng.obj
 0002:000141e8       $cppxdata$??0?$basic_ifstream@DU?$char_traits@D@std@@@std@@QEAA@PEBDHH@Z 000000018005a1e8     lodepng.obj
 0002:00014210       $cppxdata$??0?$basic_ofstream@DU?$char_traits@D@std@@@std@@QEAA@PEBDHH@Z 000000018005a210     lodepng.obj
 0002:00014238       $cppxdata$?decode@lodepng@@YAIAEAV?$vector@EV?$allocator@E@std@@@std@@AEAI1PEBE_KW4LodePNGColorType@@I@Z 000000018005a238     lodepng.obj
 0002:00014260       $cppxdata$?lodepng_decode_memory@@YAIPEAPEAEPEAI1PEBE_KW4LodePNGColorType@@I@Z 000000018005a260     lodepng.obj
 0002:00014288       $cppxdata$?_Init@ios_base@std@@IEAAXXZ 000000018005a288     lodepng.obj
 0002:000142b0       $cppxdata$?clear@ios_base@std@@QEAAXH_N@Z 000000018005a2b0     lodepng.obj
 0002:000142d8       $cppxdata$?_Makestr@_System_error@std@@CA?AV?$basic_string@DU?$char_traits@D@std@@V?$allocator@D@2@@2@Verror_code@2@V32@@Z 000000018005a2d8     lodepng.obj
 0002:00014300       $cppxdata$?_Getcat@?$ctype@D@std@@SA_KPEAPEBVfacet@locale@2@PEBV42@@Z 000000018005a300     lodepng.obj
 0002:00014328       $cppxdata$?load_file@lodepng@@YAXAEAV?$vector@EV?$allocator@E@std@@@std@@AEBV?$basic_string@DU?$char_traits@D@std@@V?$allocator@D@2@@3@@Z 000000018005a328     lodepng.obj
 0002:00014350       $cppxdata$?push_back@?$vector@V?$basic_string@DU?$char_traits@D@std@@V?$allocator@D@2@@std@@V?$allocator@V?$basic_string@DU?$char_traits@D@std@@V?$allocator@D@2@@std@@@2@@std@@QEAAXAEBV?$basic_string@DU?$char_traits@D@std@@V?$allocator@D@2@@2@@Z 000000018005a350     lodepng_util.obj
 0002:00014378       $cppxdata$?getFilterTypesInterlaced@lodepng@@YAIAEAV?$vector@V?$vector@EV?$allocator@E@std@@@std@@V?$allocator@V?$vector@EV?$allocator@E@std@@@std@@@2@@std@@AEBV?$vector@EV?$allocator@E@std@@@3@@Z 000000018005a378     lodepng_util.obj
 0002:000143a0       $cppxdata$?insertChunks@lodepng@@YAIAEAV?$vector@EV?$allocator@E@std@@@std@@QEBV?$vector@V?$vector@EV?$allocator@E@std@@@std@@V?$allocator@V?$vector@EV?$allocator@E@std@@@std@@@2@@3@@Z 000000018005a3a0     lodepng_util.obj
 0002:000143c8       $cppxdata$?getFilterTypes@lodepng@@YAIAEAV?$vector@EV?$allocator@E@std@@@std@@AEBV23@@Z 000000018005a3c8     lodepng_util.obj
 0002:000143f0       $cppxdata$?getChunks@lodepng@@YAIQEAV?$vector@V?$basic_string@DU?$char_traits@D@std@@V?$allocator@D@2@@std@@V?$allocator@V?$basic_string@DU?$char_traits@D@std@@V?$allocator@D@2@@std@@@2@@std@@QEAV?$vector@V?$vector@EV?$allocator@E@std@@@std@@V?$allocator@V?$vector@EV?$allocator@E@std@@@std@@@2@@3@AEBV?$vector@EV?$allocator@E@std@@@3@@Z 000000018005a3f0     lodepng_util.obj
 0002:00014420       __real_ninf                000000018005a420     libucrt:log.obj
 0002:00014430       __real_inf                 000000018005a430     libucrt:log.obj
 0002:00014440       __real_neg_qnan            000000018005a440     libucrt:log.obj
 0002:00014450       __real_qnanbit             000000018005a450     libucrt:log.obj
 0002:00014460       __real_min_norm            000000018005a460     libucrt:log.obj
 0002:00014470       __real_mant                000000018005a470     libucrt:log.obj
 0002:00014480       __mask_1023                000000018005a480     libucrt:log.obj
 0002:00014490       __mask_001                 000000018005a490     libucrt:log.obj
 0002:000144a0       __mask_mant_all8           000000018005a4a0     libucrt:log.obj
 0002:000144b0       __mask_mant9               000000018005a4b0     libucrt:log.obj
 0002:000144c0       __real_two                 000000018005a4c0     libucrt:log.obj
 0002:000144d0       __real_one                 000000018005a4d0     libucrt:log.obj
 0002:000144e0       __real_near_one_lt         000000018005a4e0     libucrt:log.obj
 0002:000144f0       __real_near_one_gt         000000018005a4f0     libucrt:log.obj
 0002:00014500       __real_half                000000018005a500     libucrt:log.obj
 0002:00014510       __mask_100                 000000018005a510     libucrt:log.obj
 0002:00014520       __real_1_over_512          000000018005a520     libucrt:log.obj
 0002:00014530       __real_1_over_2            000000018005a530     libucrt:log.obj
 0002:00014540       __real_1_over_3            000000018005a540     libucrt:log.obj
 0002:00014550       __real_1_over_4            000000018005a550     libucrt:log.obj
 0002:00014560       __real_1_over_5            000000018005a560     libucrt:log.obj
 0002:00014570       __real_1_over_6            000000018005a570     libucrt:log.obj
 0002:00014580       __mask_1023_f              000000018005a580     libucrt:log.obj
 0002:00014590       __mask_2045                000000018005a590     libucrt:log.obj
 0002:000145a0       __real_threshold           000000018005a5a0     libucrt:log.obj
 0002:000145b0       __real_notsign             000000018005a5b0     libucrt:log.obj
 0002:000145c0       __real_ca1                 000000018005a5c0     libucrt:log.obj
 0002:000145d0       __real_ca2                 000000018005a5d0     libucrt:log.obj
 0002:000145e0       __real_ca3                 000000018005a5e0     libucrt:log.obj
 0002:000145f0       __real_ca4                 000000018005a5f0     libucrt:log.obj
 0002:00014600       __real_log2_lead           000000018005a600     libucrt:log.obj
 0002:00014610       __real_log2_tail           000000018005a610     libucrt:log.obj
 0002:00014620       __flag_x_zero              000000018005a620     libucrt:log.obj
 0002:00014624       __flag_x_neg               000000018005a624     libucrt:log.obj
 0002:00014628       __flag_x_nan               000000018005a628     libucrt:log.obj
 0002:00015a40       $unwind$_wcsnicmp          000000018005ba40     libucrt:wcsnicmp.obj
 0002:00015a40       $unwind$__acrt_DownlevelLocaleNameToLCID 000000018005ba40     libucrt:lcidtoname_downlevel.obj
 0002:00015a40       $unwind$_set_error_mode    000000018005ba40     libucrt:set_error_mode.obj
 0002:00015a40       $unwind$__scrt_dllmain_before_initialize_c 000000018005ba40     LIBCMT:utility.obj
 0002:00015a40       $unwind$??$uninitialize_environment_internal@D@@YAXAEAPEAPEAD@Z 000000018005ba40     libucrt:environment_initialization.obj
 0002:00015a40       $unwind$?_Reserve@?$vector@EV?$allocator@E@std@@@std@@IEAAX_K@Z 000000018005ba40     zopflipng_lib.obj
 0002:00015a40       $unwind$?_Reserve@?$vector@V?$basic_string@DU?$char_traits@D@std@@V?$allocator@D@2@@std@@V?$allocator@V?$basic_string@DU?$char_traits@D@std@@V?$allocator@D@2@@std@@@2@@std@@IEAAX_K@Z 000000018005ba40     zopflipng_lib.obj
 0002:00015a40       $unwind$?__GetCurrentState@@YAHPEA_KPEAU_xDISPATCHER_CONTEXT@@PEBU_s_FuncInfo@@@Z 000000018005ba40     libvcruntime:ehstate.obj
 0002:00015a40       $unwind$__scrt_dllmain_uninitialize_c 000000018005ba40     LIBCMT:utility.obj
 0002:00015a40       $unwind$_wcsicmp           000000018005ba40     libucrt:wcsicmp.obj
 0002:00015a40       $unwind$__GSHandlerCheck   000000018005ba40     LIBCMT:_gshandler_.obj
 0002:00015a40       $unwind$?allocate@?$_Wrap_alloc@V?$allocator@E@std@@@std@@QEAAPEAE_K@Z 000000018005ba40     zopflipng_lib.obj
 0002:00015a40       $unwind$??__Einitlocks@std@@YAXXZ 000000018005ba40     libcpmt:iosptrs.obj
 0002:00015a40       $unwind$__scrt_dllmain_after_initialize_c 000000018005ba40     LIBCMT:utility.obj
 0002:00015a40       $unwind$?deallocate@?$_Wrap_alloc@V?$allocator@V?$vector@EV?$allocator@E@std@@@std@@@std@@@std@@QEAAXPEAV?$vector@EV?$allocator@E@std@@@2@_K@Z 000000018005ba40     zopflipng_lib.obj
 0002:00015a40       $unwind$_get_stream_buffer_pointers 000000018005ba40     libucrt:_file.obj
 0002:00015a40       $unwind$__acrt_can_use_vista_locale_apis 000000018005ba40     libucrt:winapi_thunks.obj
 0002:00015a40       $unwind$?state_case_size@?$output_processor@DV?$stream_output_adapter@D@__crt_stdio_output@@V?$standard_base@DV?$stream_output_adapter@D@__crt_stdio_output@@@2@@__crt_stdio_output@@AEAA_NXZ 000000018005ba40     libucrt:output.obj
 0002:00015a40       $unwind$??__F_Fac_tidy_reg@std@@YAXXZ 000000018005ba40     libcpmt:locale0.obj
 0002:00015a40       $unwind$?state_case_size@?$output_processor@_WV?$string_output_adapter@_W@__crt_stdio_output@@V?$standard_base@_WV?$string_output_adapter@_W@__crt_stdio_output@@@2@@__crt_stdio_output@@AEAA_NXZ 000000018005ba40     libucrt:output.obj
 0002:00015a40       $unwind$??__Einitlocks@std@@YAXXZ 000000018005ba40     libcpmt:xlock.obj
 0002:00015a40       $unwind$__scrt_dllmain_uninitialize_critical 000000018005ba40     LIBCMT:utility.obj
 0002:00015a40       $unwind$_strnicmp          000000018005ba40     libucrt:strnicmp.obj
 0002:00015a40       $unwind$__scrt_acquire_startup_lock 000000018005ba40     LIBCMT:utility.obj
 0002:00015a40       $unwind$__acrt_initialize_ptd 000000018005ba40     libucrt:per_thread_data.obj
 0002:00015a40       $unwind$_set_errno_from_matherr 000000018005ba40     libucrt:fpexcept.obj
 0002:00015a40       $unwind$__acrt_uninitialize_ptd 000000018005ba40     libucrt:per_thread_data.obj
 0002:00015a40       $unwind$__scrt_initialize_default_local_stdio_options 000000018005ba40     LIBCMT:default_local_stdio_options.obj
 0002:00015a40       $unwind$??$uninitialize_environment_internal@_W@@YAXAEAPEAPEA_W@Z 000000018005ba40     libucrt:environment_initialization.obj
 0002:00015a40       $unwind$_invoke_watson     000000018005ba40     libucrt:invalid_parameter.obj
 0002:00015a40       $unwind$__vcrt_initialize_ptd 000000018005ba40     libvcruntime:per_thread_data.obj
 0002:00015a40       $unwind$__scrt_dllmain_crt_thread_attach 000000018005ba40     LIBCMT:utility.obj
 0002:00015a40       $unwind$___lc_locale_name_func 000000018005ba40     libucrt:initctype.obj
 0002:00015a40       $unwind$__dcrt_uninitialize_environments_nolock 000000018005ba40     libucrt:environment_initialization.obj
 0002:00015a40       $unwind$__report_rangecheckfailure 000000018005ba40     LIBCMT:gs_report.obj
 0002:00015a40       $unwind$atexit             000000018005ba40     LIBCMT:utility.obj
 0002:00015a40       $unwind$__acrt_uninitialize_critical 000000018005ba40     libucrt:initialization.obj
 0002:00015a40       $unwind$__acrt_thread_attach 000000018005ba40     libucrt:initialization.obj
 0002:00015a40       $unwind$__acrt_thread_detach 000000018005ba40     libucrt:initialization.obj
 0002:00015a40       $unwind$__scrt_dllmain_crt_thread_detach 000000018005ba40     LIBCMT:utility.obj
 0002:00015a40       $unwind$initialize_c       000000018005ba40     libucrt:initialization.obj
 0002:00015a40       $unwind$_stricmp           000000018005ba40     libucrt:stricmp.obj
 0002:00015a40       $unwind$uninitialize_environment 000000018005ba40     libucrt:initialization.obj
 0002:00015a40       $unwind$___lc_codepage_func 000000018005ba40     libucrt:initctype.obj
 0002:00015a40       $unwind$__acrt_release_locale_ref 000000018005ba40     libucrt:locale_refcounting.obj
 0002:00015a40       $unwind$?_Atexit@@YAXP6AXXZ@Z 000000018005ba40     libcpmt:iosptrs.obj
 0002:00015a40       $unwind$__pctype_func      000000018005ba40     libucrt:ctype.obj
 0002:00015a40       $unwind$GetCostStat        000000018005ba40     squeeze.obj
 0002:00015a40       $unwind$_get_osfhandle     000000018005ba40     libucrt:osfinfo.obj
 0002:00015a40       $unwind$__vcrt_freefls     000000018005ba40     libvcruntime:per_thread_data.obj
 0002:00015a40       $unwind$?initialize_multibyte@@YAHXZ 000000018005ba40     libucrt:multibyte_initializer.obj
 0002:00015a40       $unwind$?_Reserve@?$vector@W4ZopfliPNGFilterStrategy@@V?$allocator@W4ZopfliPNGFilterStrategy@@@std@@@std@@IEAAX_K@Z 000000018005ba40     zopflipng.obj
 0002:00015a40       $unwind$??__Ecout@std@@YAXXZ 000000018005ba40     libcpmt:cout.obj
 0002:00015a40       $unwind$_errno             000000018005ba40     libucrt:errno.obj
 0002:00015a40       $unwind$__FrameUnwindFilter 000000018005ba40     libvcruntime:frame.obj
 0002:00015a40       $unwind$_msize             000000018005ba40     libucrt:msize.obj
 0002:00015a40       $unwind$?deallocate@?$_Wrap_alloc@V?$allocator@E@std@@@std@@QEAAXPEAE_K@Z 000000018005ba40     zopflipng.obj
 0002:00015a40       $unwind$?deallocate@?$_Wrap_alloc@V?$allocator@V?$basic_string@DU?$char_traits@D@std@@V?$allocator@D@2@@std@@@std@@@std@@QEAAXPEAV?$basic_string@DU?$char_traits@D@std@@V?$allocator@D@2@@2@_K@Z 000000018005ba40     zopflipng.obj
 0002:00015a40       $unwind$__acrt_initialize_heap 000000018005ba40     libucrt:heap_handle.obj
 0002:00015a40       $unwind$?deallocate@?$_Wrap_alloc@V?$allocator@W4ZopfliPNGFilterStrategy@@@std@@@std@@QEAAXPEAW4ZopfliPNGFilterStrategy@@_K@Z 000000018005ba40     zopflipng.obj
 0002:00015a40       $unwind$_GetImageBase      000000018005ba40     libvcruntime:trnsctrl.obj
 0002:00015a40       $unwind$_GetThrowImageBase 000000018005ba40     libvcruntime:trnsctrl.obj
 0002:00015a40       $unwind$?dllmain_crt_dispatch@@YAHQEAUHINSTANCE__@@KQEAX@Z 000000018005ba40     LIBCMT:dll_dllmain.obj
 0002:00015a40       $unwind$fsetpos            000000018005ba40     libucrt:fsetpos.obj
 0002:00015a40       $unwind$?_Deallocate@std@@YAXPEAX_K1@Z 000000018005ba40     zopfli-binding.obj
 0002:00015a40       $unwind$__doserrno         000000018005ba40     libucrt:errno.obj
 0002:00015a40       $unwind$?_Locinfo_dtor@_Locinfo@std@@SAXPEAV12@@Z 000000018005ba40     libcpmt:locale0.obj
 0002:00015a40       $unwind$??__Einitlocks@@YAXXZ 000000018005ba40     libcpmt:cout.obj
 0002:00015a40       $unwind$??1locale@std@@QEAA@XZ 000000018005ba40     lodepng.obj
 0002:00015a40       $unwind$GetCostFixed       000000018005ba40     squeeze.obj
 0002:00015a40       $unwind$__vcrt_uninitialize_ptd 000000018005ba40     libvcruntime:per_thread_data.obj
 0002:00015a40       $unwind$__dcrt_terminate_console_output 000000018005ba40     libucrt:initcon.obj
 0002:00015a40       $unwind$__acrt_initialize_command_line 000000018005ba40     libucrt:argv_data.obj
 0002:00015a40       $unwind$??1_Lockit@std@@QEAA@XZ 000000018005ba40     libcpmt:xlock.obj
 0002:00015a40       $unwind$_getfpcontrolword  000000018005ba40     libucrt:_fenvutils.obj
 0002:00015a40       $unwind$_get_fmode         000000018005ba40     libucrt:setmode.obj
 0002:00015a40       $unwind$__crtDownlevelLocaleNameToLCID 000000018005ba40     libcpmt:winapinls.obj
 0002:00015a40       $unwind$__std_terminate    000000018005ba40     libvcruntime:frame.obj
 0002:00015a40       $unwind$__vcrt_getptd      000000018005ba40     libvcruntime:per_thread_data.obj
 0002:00015a40       $unwind$tidy_global        000000018005ba40     libcpmt:locale0.obj
 0002:00015a40       $unwind$__vcrt_thread_detach 000000018005ba40     libvcruntime:initialization.obj
 0002:00015a40       $unwind$_isatty            000000018005ba40     libucrt:isatty.obj
 0002:00015a40       $unwind$__vcrt_thread_attach 000000018005ba40     libvcruntime:initialization.obj
 0002:00015a40       $unwind$_fgetc_nolock      000000018005ba40     libucrt:fgetc.obj
 0002:00015a40       $unwind$__vcrt_uninitialize_critical 000000018005ba40     libvcruntime:initialization.obj
 0002:00015a40       $unwind$_getfpstatusword   000000018005ba40     libucrt:_fenvutils.obj
 0002:00015a40       $unwind$?state_case_size@?$output_processor@_WV?$stream_output_adapter@_W@__crt_stdio_output@@V?$standard_base@_WV?$stream_output_adapter@_W@__crt_stdio_output@@@2@@__crt_stdio_output@@AEAA_NXZ 000000018005ba40     libucrt:output.obj
 0002:00015a40       $unwind$__vcrt_uninitialize 000000018005ba40     libvcruntime:initialization.obj
 0002:00015a40       $unwind$__acrt_initialize_multibyte 000000018005ba40     libucrt:mbctype.obj
 0002:00015a40       $unwind$tolower            000000018005ba40     libucrt:tolower_toupper.obj
 0002:00015a40       $unwind$?validate_stream_is_ansi_if_required@?$__acrt_stdio_char_traits@D@@SA_NQEAU_iobuf@@@Z 000000018005ba40     libucrt:output.obj
 0002:00015a40       $unwind$_fileno            000000018005ba40     libucrt:fileno.obj
 0002:00015a40       $unwind$abort              000000018005ba40     libucrt:abort.obj
 0002:00015a40       $unwind$??$_Immortalize@V_Iostream_error_category@std@@@std@@YAAEAV_Iostream_error_category@0@XZ 000000018005ba40     lodepng.obj
 0002:00015a40       $unwind$__vcrt_initialize  000000018005ba40     libvcruntime:initialization.obj
 0002:00015a40       $unwind$?__scrt_uninitialize_thread_safe_statics@@YAXXZ 000000018005ba40     LIBCMT:thread_safe_statics.obj
 0002:00015a40       $unwind$_copytlocinfo_nolock 000000018005ba40     libucrt:wsetlocale.obj
 0002:00015a40       $unwind$_statfp            000000018005ba40     libucrt:fpctrl.obj
 0002:00015a48       $unwind$?FunctionCallbackWrapper@imp@Nan@@YAXAEBV?$FunctionCallbackInfo@VValue@v8@@@v8@@@Z 000000018005ba48     zopfli-binding.obj
 0002:00015a58       $unwind$?NewInstance@Nan@@YA?AV?$MaybeLocal@VObject@v8@@@v8@@V?$Local@VObjectTemplate@v8@@@3@@Z 000000018005ba58     zopfli-binding.obj
 0002:00015a6c       $stateUnwindMap$?GetFunction@Nan@@YA?AV?$MaybeLocal@VFunction@v8@@@v8@@V?$Local@VFunctionTemplate@v8@@@3@@Z 000000018005ba6c     zopfli-binding.obj
 0002:00015a6c       $stateUnwindMap$?NewInstance@Nan@@YA?AV?$MaybeLocal@VObject@v8@@@v8@@V?$Local@VObjectTemplate@v8@@@3@@Z 000000018005ba6c     zopfli-binding.obj
 0002:00015a6c       $stateUnwindMap$?Get@Nan@@YA?AV?$MaybeLocal@VValue@v8@@@v8@@V?$Local@VObject@v8@@@3@V?$Local@VValue@v8@@@3@@Z 000000018005ba6c     zopfli-binding.obj
 0002:00015a6c       $stateUnwindMap$?convert@?$ToFactory@VUint32@v8@@@imp@Nan@@SA?AV?$MaybeLocal@VUint32@v8@@@v8@@V?$Local@VValue@v8@@@5@@Z 000000018005ba6c     zopfli-binding.obj
 0002:00015a6c       $stateUnwindMap$?convert@?$ToFactory@VInteger@v8@@@imp@Nan@@SA?AV?$MaybeLocal@VInteger@v8@@@v8@@V?$Local@VValue@v8@@@5@@Z 000000018005ba6c     zopflipng.obj
 0002:00015a78       $ip2state$?NewInstance@Nan@@YA?AV?$MaybeLocal@VObject@v8@@@v8@@V?$Local@VObjectTemplate@v8@@@3@@Z 000000018005ba78     zopfli-binding.obj
 0002:00015a90       $unwind$?GetFunction@Nan@@YA?AV?$MaybeLocal@VFunction@v8@@@v8@@V?$Local@VFunctionTemplate@v8@@@3@@Z 000000018005ba90     zopfli-binding.obj
 0002:00015aa8       $ip2state$?GetFunction@Nan@@YA?AV?$MaybeLocal@VFunction@v8@@@v8@@V?$Local@VFunctionTemplate@v8@@@3@@Z 000000018005baa8     zopfli-binding.obj
 0002:00015ac0       $unwind$?Get@Nan@@YA?AV?$MaybeLocal@VValue@v8@@@v8@@V?$Local@VObject@v8@@@3@V?$Local@VValue@v8@@@3@@Z 000000018005bac0     zopfli-binding.obj
 0002:00015ad8       $ip2state$?Get@Nan@@YA?AV?$MaybeLocal@VValue@v8@@@v8@@V?$Local@VObject@v8@@@3@V?$Local@VValue@v8@@@3@@Z 000000018005bad8     zopfli-binding.obj
 0002:00015af0       $unwind$?Has@Nan@@YA?AV?$Maybe@_N@v8@@V?$Local@VObject@v8@@@3@V?$Local@VString@v8@@@3@@Z 000000018005baf0     zopfli-binding.obj
 0002:00015b08       $stateUnwindMap$?Has@Nan@@YA?AV?$Maybe@_N@v8@@V?$Local@VObject@v8@@@3@V?$Local@VString@v8@@@3@@Z 000000018005bb08     zopfli-binding.obj
 0002:00015b10       $ip2state$?Has@Nan@@YA?AV?$Maybe@_N@v8@@V?$Local@VObject@v8@@@3@V?$Local@VString@v8@@@3@@Z 000000018005bb10     zopfli-binding.obj
 0002:00015b28       $unwind$?convert@?$ToFactory@VUint32@v8@@@imp@Nan@@SA?AV?$MaybeLocal@VUint32@v8@@@v8@@V?$Local@VValue@v8@@@5@@Z 000000018005bb28     zopfli-binding.obj
 0002:00015b40       $ip2state$?convert@?$ToFactory@VUint32@v8@@@imp@Nan@@SA?AV?$MaybeLocal@VUint32@v8@@@v8@@V?$Local@VValue@v8@@@5@@Z 000000018005bb40     zopfli-binding.obj
 0002:00015b58       $unwind$?New@?$Factory@VFunctionTemplate@v8@@@imp@Nan@@SA?AV?$Local@VFunctionTemplate@v8@@@v8@@P6AXAEBV?$FunctionCallbackInfo@VValue@v8@@@3@@ZV?$Local@VValue@v8@@@5@V?$Local@VSignature@v8@@@5@@Z 000000018005bb58     zopfli-binding.obj
 0002:00015b70       $stateUnwindMap$?Call@Callback@Nan@@QEBA?AV?$Local@VValue@v8@@@v8@@HQEAV34@@Z 000000018005bb70     zopfli-binding.obj
 0002:00015b70       $stateUnwindMap$?New@?$Factory@VFunctionTemplate@v8@@@imp@Nan@@SA?AV?$Local@VFunctionTemplate@v8@@@v8@@P6AXAEBV?$FunctionCallbackInfo@VValue@v8@@@3@@ZV?$Local@VValue@v8@@@5@V?$Local@VSignature@v8@@@5@@Z 000000018005bb70     zopfli-binding.obj
 0002:00015b78       $ip2state$?New@?$Factory@VFunctionTemplate@v8@@@imp@Nan@@SA?AV?$Local@VFunctionTemplate@v8@@@v8@@P6AXAEBV?$FunctionCallbackInfo@VValue@v8@@@3@@ZV?$Local@VValue@v8@@@5@V?$Local@VSignature@v8@@@5@@Z 000000018005bb78     zopfli-binding.obj
 0002:00015b90       $unwind$?ThrowTypeError@Nan@@YAXPEBD@Z 000000018005bb90     zopfli-binding.obj
 0002:00015ba0       $stateUnwindMap$?HandleErrorCallback@AsyncWorker@Nan@@MEAAXXZ 000000018005bba0     zopfli-binding.obj
 0002:00015ba0       $stateUnwindMap$??0Utf8String@Nan@@QEAA@V?$Local@VValue@v8@@@v8@@@Z 000000018005bba0     zopfli-binding.obj
 0002:00015ba0       $stateUnwindMap$?ThrowTypeError@Nan@@YAXPEBD@Z 000000018005bba0     zopfli-binding.obj
 0002:00015ba0       $stateUnwindMap$?Call_@Callback@Nan@@AEBA?AV?$Local@VValue@v8@@@v8@@PEAVIsolate@4@V?$Local@VObject@v8@@@4@HQEAV34@@Z 000000018005bba0     zopfli-binding.obj
 0002:00015ba8       $ip2state$?ThrowTypeError@Nan@@YAXPEBD@Z 000000018005bba8     zopfli-binding.obj
 0002:00015bc0       $unwind$??0Utf8String@Nan@@QEAA@V?$Local@VValue@v8@@@v8@@@Z 000000018005bbc0     zopfli-binding.obj
 0002:00015bd8       $ip2state$??0Utf8String@Nan@@QEAA@V?$Local@VValue@v8@@@v8@@@Z 000000018005bbd8     zopfli-binding.obj
 0002:00015bf0       $unwind$?Call@Callback@Nan@@QEBA?AV?$Local@VValue@v8@@@v8@@HQEAV34@@Z 000000018005bbf0     zopfli-binding.obj
 0002:00015c10       $ip2state$?Call@Callback@Nan@@QEBA?AV?$Local@VValue@v8@@@v8@@HQEAV34@@Z 000000018005bc10     zopfli-binding.obj
 0002:00015c28       $unwind$?Call_@Callback@Nan@@AEBA?AV?$Local@VValue@v8@@@v8@@PEAVIsolate@4@V?$Local@VObject@v8@@@4@HQEAV34@@Z 000000018005bc28     zopfli-binding.obj
 0002:00015c40       $ip2state$?Call_@Callback@Nan@@AEBA?AV?$Local@VValue@v8@@@v8@@PEAVIsolate@4@V?$Local@VObject@v8@@@4@HQEAV34@@Z 000000018005bc40     zopfli-binding.obj
 0002:00015c58       $unwind$??0AsyncWorker@Nan@@QEAA@PEAVCallback@1@@Z 000000018005bc58     zopfli-binding.obj
 0002:00015c6c       $stateUnwindMap$??0AsyncWorker@Nan@@QEAA@PEAVCallback@1@@Z 000000018005bc6c     zopfli-binding.obj
 0002:00015c80       $ip2state$??0AsyncWorker@Nan@@QEAA@PEAVCallback@1@@Z 000000018005bc80     zopfli-binding.obj
 0002:00015ca8       $unwind$??1AsyncWorker@Nan@@UEAA@XZ 000000018005bca8     zopfli-binding.obj
 0002:00015cbc       $stateUnwindMap$??1AsyncWorker@Nan@@UEAA@XZ 000000018005bcbc     zopfli-binding.obj
 0002:00015cd0       $ip2state$??1AsyncWorker@Nan@@UEAA@XZ 000000018005bcd0     zopfli-binding.obj
 0002:00015ce8       $unwind$?WorkComplete@AsyncWorker@Nan@@UEAAXXZ 000000018005bce8     zopfli-binding.obj
 0002:00015cfc       $stateUnwindMap$?WorkComplete@AsyncWorker@Nan@@UEAAXXZ 000000018005bcfc     zopfli-binding.obj
 0002:00015d18       $ip2state$?WorkComplete@AsyncWorker@Nan@@UEAAXXZ 000000018005bd18     zopfli-binding.obj
 0002:00015d40       $unwind$?HandleOKCallback@AsyncWorker@Nan@@MEAAXXZ 000000018005bd40     zopfli-binding.obj
 0002:00015d50       $stateUnwindMap$?HandleOKCallback@AsyncWorker@Nan@@MEAAXXZ 000000018005bd50     zopfli-binding.obj
 0002:00015d58       $ip2state$?HandleOKCallback@AsyncWorker@Nan@@MEAAXXZ 000000018005bd58     zopfli-binding.obj
 0002:00015d70       $unwind$?HandleErrorCallback@AsyncWorker@Nan@@MEAAXXZ 000000018005bd70     zopfli-binding.obj
 0002:00015d88       $ip2state$?HandleErrorCallback@AsyncWorker@Nan@@MEAAXXZ 000000018005bd88     zopfli-binding.obj
 0002:00015da0       $unwind$??$common_xtox@K_W@@YAHKQEA_W_KI_N@Z 000000018005bda0     libucrt:xtoa.obj
 0002:00015da0       $unwind$??_Gbad_array_new_length@std@@UEAAPEAXI@Z 000000018005bda0     LIBCMT:throw_bad_alloc.obj
 0002:00015da0       $unwind$fgetpos            000000018005bda0     libucrt:fgetpos.obj
 0002:00015da0       $unwind$??_GAsyncWorker@Nan@@UEAAPEAXI@Z 000000018005bda0     zopfli-binding.obj
 0002:00015da0       $unwind$__acrt_errno_map_os_error 000000018005bda0     libucrt:errno.obj
 0002:00015da0       $unwind$__acrt_stdio_begin_temporary_buffering_nolock 000000018005bda0     libucrt:_sftbuf.obj
 0002:00015da0       $unwind$??_Gout_of_range@std@@UEAAPEAXI@Z 000000018005bda0     libcpmt:xthrow.obj
 0002:00015da0       $unwind$_callnewh          000000018005bda0     libucrt:new_handler.obj
 0002:00015da0       $unwind$_realloc_base      000000018005bda0     libucrt:realloc_base.obj
 0002:00015da0       $unwind$?lodepng_state_cleanup@@YAXPEAULodePNGState@@@Z 000000018005bda0     lodepng.obj
 0002:00015da0       $unwind$_FindAndUnlinkFrame 000000018005bda0     libvcruntime:trnsctrl.obj
 0002:00015da0       $unwind$??_GCompressWorker@nodezopfli@@UEAAPEAXI@Z 000000018005bda0     zopfli-binding.obj
 0002:00015da0       $unwind$??_GState@lodepng@@UEAAPEAXI@Z 000000018005bda0     lodepng.obj
 0002:00015da0       $unwind$??1ZopfliPNGOptions@@QEAA@XZ 000000018005bda0     zopflipng.obj
 0002:00015da0       $unwind$_fclose_nolock     000000018005bda0     libucrt:fclose.obj
 0002:00015da0       $unwind$?resize@?$vector@EV?$allocator@E@std@@@std@@QEAAX_K@Z 000000018005bda0     lodepng.obj
 0002:00015da0       $unwind$?internal_isupper_l@@YA_NHQEAU__crt_locale_pointers@@@Z 000000018005bda0     libucrt:tolower_toupper.obj
 0002:00015da0       $unwind$?replace_current_thread_locale_nolock@@YAXQEAU__acrt_ptd@@QEAU__crt_locale_data@@@Z 000000018005bda0     libucrt:per_thread_data.obj
 0002:00015da0       $unwind$??_Glogic_error@std@@UEAAPEAXI@Z 000000018005bda0     libcpmt:xthrow.obj
 0002:00015da0       $unwind$?__SetUnwindTryBlock@@YAXPEA_KPEAU_xDISPATCHER_CONTEXT@@PEBU_s_FuncInfo@@H@Z 000000018005bda0     libvcruntime:ehstate.obj
 0002:00015da0       $unwind$__acrt_getptd      000000018005bda0     libucrt:per_thread_data.obj
 0002:00015da0       $unwind$strncpy_s          000000018005bda0     libucrt:strncpy_s.obj
 0002:00015da0       $unwind$?DloadAcquireSectionWriteAccess@@YAXXZ 000000018005bda0     DelayImp:delayhlp.obj
 0002:00015da0       $unwind$??_Gios_base@std@@UEAAPEAXI@Z 000000018005bda0     lodepng.obj
 0002:00015da0       $unwind$__acrt_invoke_user_matherr 000000018005bda0     libucrt:matherr.obj
 0002:00015da0       $unwind$?DloadGetSRWLockFunctionPointers@@YAEXZ 000000018005bda0     DelayImp:delayhlp.obj
 0002:00015da0       $unwind$?_Locinfo_ctor@_Locinfo@std@@SAXPEAV12@PEBD@Z 000000018005bda0     libcpmt:locale0.obj
 0002:00015da0       $unwind$??$common_initialize_environment_nolock@D@@YAHXZ 000000018005bda0     libucrt:environment_initialization.obj
 0002:00015da0       $unwind$ZopfliInitHash     000000018005bda0     hash.obj
 0002:00015da0       $unwind$wcsncat_s          000000018005bda0     libucrt:wcsncat_s.obj
 0002:00015da0       $unwind$wcsncpy_s          000000018005bda0     libucrt:wcsncpy_s.obj
 0002:00015da0       $unwind$??_Gbad_alloc@std@@UEAAPEAXI@Z 000000018005bda0     libcpmt:xthrow.obj
 0002:00015da0       $unwind$?<helper_func_cdecl>@<lambda_e2bb8337c48846e80c921ea5ddadc92d>@@CAHPEA_W@Z 000000018005bda0     libucrt:winapi_thunks.obj
 0002:00015da0       $unwind$??4?$basic_string@DU?$char_traits@D@std@@V?$allocator@D@2@@std@@QEAAAEAV01@$$QEAV01@@Z 000000018005bda0     zopfli-binding.obj
 0002:00015da0       $unwind$?pbackfail@?$basic_filebuf@DU?$char_traits@D@std@@@std@@MEAAHH@Z 000000018005bda0     lodepng.obj
 0002:00015da0       $unwind$?_Assign_rv@?$basic_string@DU?$char_traits@D@std@@V?$allocator@D@2@@std@@QEAAX$$QEAV12@@Z 000000018005bda0     zopfli-binding.obj
 0002:00015da0       $unwind$?erase@?$basic_string@DU?$char_traits@D@std@@V?$allocator@D@2@@std@@QEAAAEAV12@_K0@Z 000000018005bda0     zopfli-binding.obj
 0002:00015da0       $unwind$__acrt_get_parent_window 000000018005bda0     libucrt:winapi_thunks.obj
 0002:00015da0       $unwind$??_G?$ctype@D@std@@MEAAPEAXI@Z 000000018005bda0     lodepng.obj
 0002:00015da0       $unwind$__acrt_IsValidLocaleName 000000018005bda0     libucrt:winapi_thunks.obj
 0002:00015da0       $unwind$__acrt_FlsGetValue 000000018005bda0     libucrt:winapi_thunks.obj
 0002:00015da0       $unwind$__acrt_FlsFree     000000018005bda0     libucrt:winapi_thunks.obj
 0002:00015da0       $unwind$__acrt_FlsAlloc    000000018005bda0     libucrt:winapi_thunks.obj
 0002:00015da0       $unwind$GetLcidFromLanguage 000000018005bda0     libucrt:getqloc_downlevel.obj
 0002:00015da0       $unwind$?lodepng_info_cleanup@@YAXPEAULodePNGInfo@@@Z 000000018005bda0     lodepng.obj
 0002:00015da0       $unwind$GetLcidFromLangCountry 000000018005bda0     libucrt:getqloc_downlevel.obj
 0002:00015da0       $unwind$__vcrt_FlsGetValue 000000018005bda0     libvcruntime:winapi_downlevel.obj
 0002:00015da0       $unwind$__vcrt_FlsFree     000000018005bda0     libvcruntime:winapi_downlevel.obj
 0002:00015da0       $unwind$GetLocaleNameFromLanguage 000000018005bda0     libucrt:get_qualified_locale.obj
 0002:00015da0       $unwind$GetLocaleNameFromLangCountry 000000018005bda0     libucrt:get_qualified_locale.obj
 0002:00015da0       $unwind$?_Buy@?$vector@EV?$allocator@E@std@@@std@@IEAA_N_K@Z 000000018005bda0     zopflipng_lib.obj
 0002:00015da0       $unwind$__vcrt_FlsAlloc    000000018005bda0     libvcruntime:winapi_downlevel.obj
 0002:00015da0       $unwind$??_Gexception@std@@UEAAPEAXI@Z 000000018005bda0     libcpmt:xthrow.obj
 0002:00015da0       $unwind$?_New_Locimp@_Locimp@locale@std@@CAPEAV123@_N@Z 000000018005bda0     libcpmt:locale0.obj
 0002:00015da0       $unwind$??_G?$basic_ofstream@DU?$char_traits@D@std@@@std@@UEAAPEAXI@Z 000000018005bda0     lodepng.obj
 0002:00015da0       $unwind$__acrt_uninitialize_lowio 000000018005bda0     libucrt:ioinit.obj
 0002:00015da0       $unwind$??_G?$basic_ifstream@DU?$char_traits@D@std@@@std@@UEAAPEAXI@Z 000000018005bda0     lodepng.obj
 0002:00015da0       $unwind$??_G?$basic_filebuf@DU?$char_traits@D@std@@@std@@UEAAPEAXI@Z 000000018005bda0     lodepng.obj
 0002:00015da0       $unwind$?color_tree_cleanup@@YAXPEAUColorTree@@@Z 000000018005bda0     lodepng.obj
 0002:00015da0       $unwind$??_G?$basic_ostream@DU?$char_traits@D@std@@@std@@UEAAPEAXI@Z 000000018005bda0     lodepng.obj
 0002:00015da0       $unwind$??_G?$basic_istream@DU?$char_traits@D@std@@@std@@UEAAPEAXI@Z 000000018005bda0     lodepng.obj
 0002:00015da0       $unwind$?type_case_c_tchar@?$output_processor@DV?$stream_output_adapter@D@__crt_stdio_output@@V?$standard_base@DV?$stream_output_adapter@D@__crt_stdio_output@@@2@@__crt_stdio_output@@AEAA_ND@Z 000000018005bda0     libucrt:output.obj
 0002:00015da0       $unwind$??_Glocale@std@@QEAAPEAXI@Z 000000018005bda0     lodepng.obj
 0002:00015da0       $unwind$??_G?$basic_ios@DU?$char_traits@D@std@@@std@@UEAAPEAXI@Z 000000018005bda0     lodepng.obj
 0002:00015da0       $unwind$??1sentry@?$basic_ostream@DU?$char_traits@D@std@@@std@@QEAA@XZ 000000018005bda0     lodepng.obj
 0002:00015da0       $unwind$_close_nolock      000000018005bda0     libucrt:close.obj
 0002:00015da0       $unwind$__acrt_locale_initialize_time 000000018005bda0     libucrt:inittime.obj
 0002:00015da0       $unwind$??1_Locinfo@std@@QEAA@XZ 000000018005bda0     lodepng.obj
 0002:00015da0       $unwind$?try_cor_exit_process@@YAXI@Z 000000018005bda0     libucrt:exit.obj
 0002:00015da0       $unwind$_Deletegloballocale 000000018005bda0     libcpmt:locale0.obj
 0002:00015da0       $unwind$_ungetc_nolock     000000018005bda0     libucrt:ungetc.obj
 0002:00015da0       $unwind$?_Initcvt@?$basic_filebuf@DU?$char_traits@D@std@@@std@@IEAAXPEBV?$codecvt@DDU_Mbstatet@@@2@@Z 000000018005bda0     lodepng.obj
 0002:00015da0       $unwind$??_Gbad_exception@std@@UEAAPEAXI@Z 000000018005bda0     libvcruntime:frame.obj
 0002:00015da0       $unwind$?push_back@?$vector@V?$vector@EV?$allocator@E@std@@@std@@V?$allocator@V?$vector@EV?$allocator@E@std@@@std@@@2@@std@@QEAAX$$QEAV?$vector@EV?$allocator@E@std@@@2@@Z 000000018005bda0     lodepng_util.obj
 0002:00015da0       $unwind$_updatetlocinfoEx_nolock 000000018005bda0     libucrt:locale_refcounting.obj
 0002:00015da0       $unwind$?force_decimal_point@__crt_stdio_output@@YAXPEADQEAU__crt_locale_pointers@@@Z 000000018005bda0     libucrt:output.obj
 0002:00015da0       $unwind$?ExFilterRethrow@@YAHPEAU_EXCEPTION_POINTERS@@PEAUEHExceptionRecord@@PEAH@Z 000000018005bda0     libvcruntime:frame.obj
 0002:00015da0       $unwind$??0_LocaleUpdate@@QEAA@QEAU__crt_locale_pointers@@@Z 000000018005bda0     libucrt:output.obj
 0002:00015da0       $unwind$??1_Init_locks@std@@QEAA@XZ 000000018005bda0     libcpmt:xlock.obj
 0002:00015da0       $unwind$??_Glength_error@std@@UEAAPEAXI@Z 000000018005bda0     libcpmt:xthrow.obj
 0002:00015dac       $unwind$??1?$Persistent@VObject@v8@@V?$NonCopyablePersistentTraits@VObject@v8@@@2@@Nan@@QEAA@XZ 000000018005bdac     zopfli-binding.obj
 0002:00015dbc       $stateUnwindMap$??__Fclassic_locale@std@@YAXXZ 000000018005bdbc     libcpmt:locale0.obj
 0002:00015dbc       $stateUnwindMap$??1?$Persistent@VObject@v8@@V?$NonCopyablePersistentTraits@VObject@v8@@@2@@Nan@@QEAA@XZ 000000018005bdbc     zopfli-binding.obj
 0002:00015dbc       $stateUnwindMap$??_G_Fac_node@std@@QEAAPEAXI@Z 000000018005bdbc     libcpmt:locale0.obj
 0002:00015dbc       $stateUnwindMap$??_G_Locimp@locale@std@@MEAAPEAXI@Z 000000018005bdbc     libcpmt:locale0.obj
 0002:00015dbc       $stateUnwindMap$??__Fcout@std@@YAXXZ 000000018005bdbc     libcpmt:cout.obj
 0002:00015dbc       $stateUnwindMap$??__Finit_atexit@@YAXXZ 000000018005bdbc     libcpmt:iosptrs.obj
 0002:00015dc8       $ip2state$??1?$Persistent@VObject@v8@@V?$NonCopyablePersistentTraits@VObject@v8@@@2@@Nan@@QEAA@XZ 000000018005bdc8     zopfli-binding.obj
 0002:00015dd0       $unwind$_invalid_parameter_noinfo 000000018005bdd0     libucrt:invalid_parameter.obj
 0002:00015dd0       $unwind$_itow_s            000000018005bdd0     libucrt:xtoa.obj
 0002:00015dd0       $unwind$_log_special       000000018005bdd0     libucrt:log_special.obj
 0002:00015dd0       $unwind$wctomb_s           000000018005bdd0     libucrt:wctomb.obj
 0002:00015dd0       $unwind$_log10_special     000000018005bdd0     libucrt:log_special.obj
 0002:00015dd0       $unwind$_wtol              000000018005bdd0     libucrt:atox.obj
 0002:00015dd0       $unwind$?AsyncExecute@Nan@@YAXPEAUuv_work_s@@@Z 000000018005bdd0     zopfli-binding.obj
 0002:00015dd0       $unwind$_invalid_parameter_noinfo_noreturn 000000018005bdd0     libucrt:invalid_parameter.obj
 0002:00015dd0       $unwind$_sopen_s           000000018005bdd0     libucrt:open.obj
 0002:00015dd0       $unwind$mbstowcs_s         000000018005bdd0     libucrt:mbstowcs.obj
 0002:00015dd0       $unwind$?Execute@CompressWorker@nodezopfli@@UEAAXXZ 000000018005bdd0     zopfli-binding.obj
 0002:00015dd8       $unwind$?imbue@?$basic_filebuf@DU?$char_traits@D@std@@@std@@MEAAXAEBVlocale@2@@Z 000000018005bdd8     lodepng.obj
 0002:00015dd8       $unwind$??_GLodePNGState@@UEAAPEAXI@Z 000000018005bdd8     lodepng.obj
 0002:00015dd8       $unwind$?sync@?$basic_filebuf@DU?$char_traits@D@std@@@std@@MEAAHXZ 000000018005bdd8     lodepng.obj
 0002:00015dd8       $unwind$?setbuf@?$basic_filebuf@DU?$char_traits@D@std@@@std@@MEAAPEAV?$basic_streambuf@DU?$char_traits@D@std@@@2@PEAD_J@Z 000000018005bdd8     lodepng.obj
 0002:00015dd8       $unwind$?exit_or_terminate_process@@YAXI@Z 000000018005bdd8     libucrt:exit.obj
 0002:00015dd8       $unwind$??_Gfailure@ios_base@std@@UEAAPEAXI@Z 000000018005bdd8     lodepng.obj
 0002:00015dd8       $unwind$_set_statfp        000000018005bdd8     libucrt:fpctrl.obj
 0002:00015dd8       $unwind$strcpy_s           000000018005bdd8     libucrt:strcpy_s.obj
 0002:00015dd8       $unwind$??0?$output_processor@_WV?$string_output_adapter@_W@__crt_stdio_output@@V?$standard_base@_WV?$string_output_adapter@_W@__crt_stdio_output@@@2@@__crt_stdio_output@@QEAA@AEBV?$string_output_adapter@_W@1@_KQEB_WQEAU__crt_locale_pointers@@QEAD@Z 000000018005bdd8     libucrt:output.obj
 0002:00015dd8       $unwind$??__Efout@std@@YAXXZ 000000018005bdd8     libcpmt:cout.obj
 0002:00015dd8       $unwind$feholdexcept       000000018005bdd8     libucrt:feholdexcept.obj
 0002:00015dd8       $unwind$?type_case_integer@?$output_processor@_WV?$string_output_adapter@_W@__crt_stdio_output@@V?$standard_base@_WV?$string_output_adapter@_W@__crt_stdio_output@@@2@@__crt_stdio_output@@AEAA_NI_N@Z 000000018005bdd8     libucrt:output.obj
 0002:00015dd8       $unwind$?string_init@@YAXPEAPEAD@Z 000000018005bdd8     lodepng.obj
 0002:00015dd8       $unwind$__scrt_release_startup_lock 000000018005bdd8     LIBCMT:utility.obj
 0002:00015dd8       $unwind$__scrt_initialize_crt 000000018005bdd8     LIBCMT:utility.obj
 0002:00015dd8       $unwind$fegetenv           000000018005bdd8     libucrt:fegetenv.obj
 0002:00015dd8       $unwind$_IsExceptionObjectToBeDestroyed 000000018005bdd8     libvcruntime:trnsctrl.obj
 0002:00015dd8       $unwind$?type_case_integer@?$output_processor@_WV?$stream_output_adapter@_W@__crt_stdio_output@@V?$standard_base@_WV?$stream_output_adapter@_W@__crt_stdio_output@@@2@@__crt_stdio_output@@AEAA_NI_N@Z 000000018005bdd8     libucrt:output.obj
 0002:00015dd8       $unwind$__acrt_allocate_buffer_for_argv 000000018005bdd8     libucrt:argv_parsing.obj
 0002:00015dd8       $unwind$__scrt_uninitialize_crt 000000018005bdd8     LIBCMT:utility.obj
 0002:00015dd8       $unwind$?AsyncExecuteComplete@Nan@@YAXPEAUuv_work_s@@@Z 000000018005bdd8     zopfli-binding.obj
 0002:00015dd8       $unwind$??0logic_error@std@@QEAA@AEBV01@@Z 000000018005bdd8     libcpmt:xthrow.obj
 0002:00015dd8       $unwind$_CreateFrameInfo   000000018005bdd8     libvcruntime:trnsctrl.obj
 0002:00015dd8       $unwind$?_Addstd@ios_base@std@@SAXPEAV12@@Z 000000018005bdd8     libcpmt:ios.obj
 0002:00015dd8       $unwind$??_G_System_error@std@@UEAAPEAXI@Z 000000018005bdd8     lodepng.obj
 0002:00015dd8       $unwind$fesetenv           000000018005bdd8     libucrt:fesetenv.obj
 0002:00015dd8       $unwind$?initialize_pointers@@YAHXZ 000000018005bdd8     libcpmt:winapisupp.obj
 0002:00015dd8       $unwind$wcscat_s           000000018005bdd8     libucrt:wcscat_s.obj
 0002:00015dd8       $unwind$?underflow@?$basic_filebuf@DU?$char_traits@D@std@@@std@@MEAAHXZ 000000018005bdd8     lodepng.obj
 0002:00015dd8       $unwind$_SetThrowImageBase 000000018005bdd8     libvcruntime:trnsctrl.obj
 0002:00015dd8       $unwind$wcscpy_s           000000018005bdd8     libucrt:wcscpy_s.obj
 0002:00015dd8       $unwind$??1?$basic_string@DU?$char_traits@D@std@@V?$allocator@D@2@@std@@QEAA@XZ 000000018005bdd8     zopfli-binding.obj
 0002:00015dd8       $unwind$__acrt_stdio_allocate_buffer_nolock 000000018005bdd8     libucrt:_getbuf.obj
 0002:00015dd8       $unwind$?_Facet_Register@std@@YAXPEAV_Facet_base@1@@Z 000000018005bdd8     libcpmt:locale0.obj
 0002:00015dd8       $unwind$_onexit            000000018005bdd8     LIBCMT:utility.obj
 0002:00015dd8       $unwind$__acrt_stdio_free_buffer_nolock 000000018005bdd8     libucrt:_freebuf.obj
 0002:00015dd8       $unwind$__raise_securityfailure 000000018005bdd8     LIBCMT:gs_report.obj
 0002:00015dd8       $unwind$_Getctype          000000018005bdd8     libcpmt:_tolower.obj
 0002:00015dd8       $unwind$??_Gerror_category@std@@UEAAPEAXI@Z 000000018005bdd8     lodepng.obj
 0002:00015dd8       $unwind$_SetImageBase      000000018005bdd8     libvcruntime:trnsctrl.obj
 0002:00015dd8       $unwind$_clrfp             000000018005bdd8     libucrt:fpctrl.obj
 0002:00015dd8       $unwind$_clearfp           000000018005bdd8     libucrt:ieee.obj
 0002:00015dd8       $unwind$??_G_Iostream_error_category@std@@UEAAPEAXI@Z 000000018005bdd8     lodepng.obj
 0002:00015dd8       $unwind$_calloc_base       000000018005bdd8     libucrt:calloc_base.obj
 0002:00015dd8       $unwind$??1?$basic_filebuf@DU?$char_traits@D@std@@@std@@UEAA@XZ 000000018005bdd8     lodepng.obj
 0002:00015dd8       $unwind$_malloc_base       000000018005bdd8     libucrt:malloc_base.obj
 0002:00015dd8       $unwind$??0length_error@std@@QEAA@AEBV01@@Z 000000018005bdd8     libcpmt:xthrow.obj
 0002:00015dd8       $unwind$?do_narrow@?$ctype@D@std@@MEBAPEBDPEBD0DPEAD@Z 000000018005bdd8     lodepng.obj
 0002:00015dd8       $unwind$?_Tidy@?$vector@EV?$allocator@E@std@@@std@@IEAAXXZ 000000018005bdd8     zopflipng.obj
 0002:00015dd8       $unwind$??1?$vector@V?$basic_string@DU?$char_traits@D@std@@V?$allocator@D@2@@std@@V?$allocator@V?$basic_string@DU?$char_traits@D@std@@V?$allocator@D@2@@std@@@2@@std@@QEAA@XZ 000000018005bdd8     zopflipng.obj
 0002:00015dd8       $unwind$?do_widen@?$ctype@D@std@@MEBAPEBDPEBD0PEAD@Z 000000018005bdd8     lodepng.obj
 0002:00015dd8       $unwind$uninitialize_allocated_memory 000000018005bdd8     libucrt:initialization.obj
 0002:00015dd8       $unwind$??0?$output_processor@_WV?$stream_output_adapter@_W@__crt_stdio_output@@V?$standard_base@_WV?$stream_output_adapter@_W@__crt_stdio_output@@@2@@__crt_stdio_output@@QEAA@AEBV?$stream_output_adapter@_W@1@_KQEB_WQEAU__crt_locale_pointers@@QEAD@Z 000000018005bdd8     libucrt:output.obj
 0002:00015dd8       $unwind$initialize_pointers 000000018005bdd8     libucrt:initialization.obj
 0002:00015dd8       $unwind$__acrt_uninitialize_locks 000000018005bdd8     libucrt:locks.obj
 0002:00015dd8       $unwind$__acrt_initialize_locks 000000018005bdd8     libucrt:locks.obj
 0002:00015dd8       $unwind$??0bad_alloc@std@@QEAA@AEBV01@@Z 000000018005bdd8     libcpmt:xthrow.obj
 0002:00015dd8       $unwind$?uflow@?$basic_streambuf@DU?$char_traits@D@std@@@std@@MEAAHXZ 000000018005bdd8     lodepng.obj
 0002:00015dd8       $unwind$??1?$basic_ofstream@DU?$char_traits@D@std@@@std@@UEAA@XZ 000000018005bdd8     lodepng.obj
 0002:00015dd8       $unwind$?type_case_integer@?$output_processor@DV?$stream_output_adapter@D@__crt_stdio_output@@V?$standard_base@DV?$stream_output_adapter@D@__crt_stdio_output@@@2@@__crt_stdio_output@@AEAA_NI_N@Z 000000018005bdd8     libucrt:output.obj
 0002:00015dd8       $unwind$??_G_Facet_base@std@@UEAAPEAXI@Z 000000018005bdd8     lodepng.obj
 0002:00015dd8       $unwind$?__StateFromIp@@YAHPEBU_s_FuncInfo@@PEAU_xDISPATCHER_CONTEXT@@_J@Z 000000018005bdd8     libvcruntime:ehstate.obj
 0002:00015dd8       $unwind$??1?$_Yarn@D@std@@QEAA@XZ 000000018005bdd8     lodepng.obj
 0002:00015dd8       $unwind$??0exception@std@@QEAA@AEBV01@@Z 000000018005bdd8     libcpmt:xthrow.obj
 0002:00015dd8       $unwind$?__GetUnwindTryBlock@@YAHPEA_KPEAU_xDISPATCHER_CONTEXT@@PEBU_s_FuncInfo@@@Z 000000018005bdd8     libvcruntime:ehstate.obj
 0002:00015dd8       $unwind$__acrt_freeptd     000000018005bdd8     libucrt:per_thread_data.obj
 0002:00015dd8       $unwind$_fflush_nolock     000000018005bdd8     libucrt:fflush.obj
 0002:00015dd8       $unwind$?DloadReleaseSectionWriteAccess@@YAXXZ 000000018005bdd8     DelayImp:delayhlp.obj
 0002:00015dd8       $unwind$??_Gruntime_error@std@@UEAAPEAXI@Z 000000018005bdd8     lodepng.obj
 0002:00015dd8       $unwind$?_Ios_base_dtor@ios_base@std@@CAXPEAV12@@Z 000000018005bdd8     libcpmt:ios.obj
 0002:00015dd8       $unwind$??$message_box_wait_thread@_W@@YAKQEAX@Z 000000018005bdd8     libucrt:crtmbox.obj
 0002:00015dd8       $unwind$??1?$_Yarn@_W@std@@QEAA@XZ 000000018005bdd8     lodepng.obj
 0002:00015dd8       $unwind$??_Gexception@stdext@@UEAAPEAXI@Z 000000018005bdd8     lodepng.obj
 0002:00015dd8       $unwind$__acrt_can_show_message_box 000000018005bdd8     libucrt:winapi_thunks.obj
 0002:00015dd8       $unwind$??_Gtype_info@@UEAAPEAXI@Z 000000018005bdd8     LIBCMT:std_type_info_static.obj
 0002:00015dd8       $unwind$_purecall          000000018005bdd8     libvcruntime:purevirt.obj
 0002:00015dd8       $unwind$??2@YAPEAX_K@Z     000000018005bdd8     LIBCMT:new_scalar.obj
 0002:00015dd8       $unwind$__acrt_AreFileApisANSI 000000018005bdd8     libucrt:winapi_thunks.obj
 0002:00015dd8       $unwind$??0bad_array_new_length@std@@QEAA@AEBV01@@Z 000000018005bdd8     LIBCMT:throw_bad_alloc.obj
 0002:00015dd8       $unwind$__acrt_uninitialize_winapi_thunks 000000018005bdd8     libucrt:winapi_thunks.obj
 0002:00015dd8       $unwind$_setfpstatusword   000000018005bdd8     libucrt:_fenvutils.obj
 0002:00015dd8       $unwind$__acrt_uninitialize_stdio 000000018005bdd8     libucrt:_file.obj
 0002:00015dd8       $unwind$?state_case_normal_tchar@?$output_processor@DV?$stream_output_adapter@D@__crt_stdio_output@@V?$standard_base@DV?$stream_output_adapter@D@__crt_stdio_output@@@2@@__crt_stdio_output@@AEAA_ND@Z 000000018005bdd8     libucrt:output.obj
 0002:00015dd8       $unwind$?load_exe_hook@@YAP6A_JXZIPEAUDelayLoadInfo@@@Z 000000018005bdd8     win_delay_load_hook.obj
 0002:00015dd8       $unwind$??1?$basic_ifstream@DU?$char_traits@D@std@@@std@@UEAA@XZ 000000018005bdd8     lodepng.obj
 0002:00015dd8       $unwind$__vcrt_freeptd     000000018005bdd8     libvcruntime:per_thread_data.obj
 0002:00015dd8       $unwind$?state_case_normal@?$output_processor@DV?$stream_output_adapter@D@__crt_stdio_output@@V?$standard_base@DV?$stream_output_adapter@D@__crt_stdio_output@@@2@@__crt_stdio_output@@AEAA_NXZ 000000018005bdd8     libucrt:output.obj
 0002:00015dd8       $unwind$?_Setgloballocale@locale@std@@CAXPEAX@Z 000000018005bdd8     libcpmt:locale0.obj
 0002:00015dd8       $unwind$_Init_thread_header 000000018005bdd8     LIBCMT:thread_safe_statics.obj
 0002:00015dd8       $unwind$??1?$vector@V?$vector@EV?$allocator@E@std@@@std@@V?$allocator@V?$vector@EV?$allocator@E@std@@@std@@@2@@std@@QEAA@XZ 000000018005bdd8     zopflipng_lib.obj
 0002:00015dd8       $unwind$??0bad_exception@std@@QEAA@AEBV01@@Z 000000018005bdd8     libvcruntime:frame.obj
 0002:00015dd8       $unwind$??_D?$basic_ofstream@DU?$char_traits@D@std@@@std@@QEAAXXZ 000000018005bdd8     lodepng.obj
 0002:00015dd8       $unwind$??0?$output_processor@DV?$stream_output_adapter@D@__crt_stdio_output@@V?$standard_base@DV?$stream_output_adapter@D@__crt_stdio_output@@@2@@__crt_stdio_output@@QEAA@AEBV?$stream_output_adapter@D@1@_KQEBDQEAU__crt_locale_pointers@@QEAD@Z 000000018005bdd8     libucrt:output.obj
 0002:00015dd8       $unwind$??_D?$basic_ifstream@DU?$char_traits@D@std@@@std@@QEAAXXZ 000000018005bdd8     lodepng.obj
 0002:00015dd8       $unwind$_Init_thread_footer 000000018005bdd8     LIBCMT:thread_safe_statics.obj
 0002:00015dd8       $unwind$??1State@lodepng@@UEAA@XZ 000000018005bdd8     lodepng.obj
 0002:00015dd8       $unwind$??_G?$codecvt@DDU_Mbstatet@@@std@@MEAAPEAXI@Z 000000018005bdd8     lodepng.obj
 0002:00015dd8       $unwind$??0out_of_range@std@@QEAA@AEBV01@@Z 000000018005bdd8     libcpmt:xthrow.obj
 0002:00015dd8       $unwind$_Init_thread_notify 000000018005bdd8     LIBCMT:thread_safe_statics.obj
 0002:00015dd8       $unwind$__std_exception_destroy 000000018005bdd8     libvcruntime:std_exception.obj
 0002:00015dd8       $unwind$__std_type_info_destroy_list 000000018005bdd8     libvcruntime:std_type_info.obj
 0002:00015dd8       $unwind$__acrt_fp_strflt_to_string 000000018005bdd8     libucrt:_fptostr.obj
 0002:00015dd8       $unwind$__vcrt_initialize_locks 000000018005bdd8     libvcruntime:locks.obj
 0002:00015dd8       $unwind$__vcrt_uninitialize_locks 000000018005bdd8     libvcruntime:locks.obj
 0002:00015dd8       $unwind$??0_Lockit@std@@QEAA@H@Z 000000018005bdd8     libcpmt:xlock.obj
 0002:00015dd8       $unwind$__acrt_update_locale_info 000000018005bdd8     libucrt:locale_update.obj
 0002:00015dd8       $unwind$??1?$set@IU?$less@I@std@@V?$allocator@I@2@@std@@QEAA@XZ 000000018005bdd8     zopflipng_lib.obj
 0002:00015dd8       $unwind$__acrt_update_multibyte_info 000000018005bdd8     libucrt:locale_update.obj
 0002:00015de0       $unwind$?ParseArgs@nodezopfli@@YAXAEBV?$FunctionCallbackInfo@VValue@v8@@@Nan@@AEAW4ZopfliFormat@@AEAUZopfliOptions@@@Z 000000018005bde0     zopfli-binding.obj
 0002:00015e08       $stateUnwindMap$?ParseArgs@nodezopfli@@YAXAEBV?$FunctionCallbackInfo@VValue@v8@@@Nan@@AEAW4ZopfliFormat@@AEAUZopfliOptions@@@Z 000000018005be08     zopfli-binding.obj
 0002:00015e20       $ip2state$?ParseArgs@nodezopfli@@YAXAEBV?$FunctionCallbackInfo@VValue@v8@@@Nan@@AEAW4ZopfliFormat@@AEAUZopfliOptions@@@Z 000000018005be20     zopfli-binding.obj
 0002:00015e40       $unwind$??0CompressWorker@nodezopfli@@QEAA@PEAVCallback@Nan@@AEAW4ZopfliFormat@@AEAUZopfliOptions@@V?$Local@VObject@v8@@@v8@@@Z 000000018005be40     zopfli-binding.obj
 0002:00015e60       $stateUnwindMap$??0CompressWorker@nodezopfli@@QEAA@PEAVCallback@Nan@@AEAW4ZopfliFormat@@AEAUZopfliOptions@@V?$Local@VObject@v8@@@v8@@@Z 000000018005be60     zopfli-binding.obj
 0002:00015e80       $ip2state$??0CompressWorker@nodezopfli@@QEAA@PEAVCallback@Nan@@AEAW4ZopfliFormat@@AEAUZopfliOptions@@V?$Local@VObject@v8@@@v8@@@Z 000000018005be80     zopfli-binding.obj
 0002:00015ec0       $unwind$?HandleOKCallback@CompressWorker@nodezopfli@@UEAAXXZ 000000018005bec0     zopfli-binding.obj
 0002:00015ed0       $unwind$?Async@CompressBinding@nodezopfli@@SAXAEBV?$FunctionCallbackInfo@VValue@v8@@@Nan@@@Z 000000018005bed0     zopfli-binding.obj
 0002:00015eec       $stateUnwindMap$?Async@CompressBinding@nodezopfli@@SAXAEBV?$FunctionCallbackInfo@VValue@v8@@@Nan@@@Z 000000018005beec     zopfli-binding.obj
 0002:00015f00       $ip2state$?Async@CompressBinding@nodezopfli@@SAXAEBV?$FunctionCallbackInfo@VValue@v8@@@Nan@@@Z 000000018005bf00     zopfli-binding.obj
 0002:00015f28       $unwind$__acrt_uninitialize_locale$fin$0 000000018005bf28     libucrt:wsetlocale.obj
 0002:00015f28       $unwind$?dtor$0@?0??_Getcat@?$codecvt@DDU_Mbstatet@@@std@@SA_KPEAPEBVfacet@locale@2@PEBV42@@Z@4HA 000000018005bf28     lodepng.obj
 0002:00015f28       $unwind$?fin$0@?0??dllmain_crt_process_attach@@YAHQEAUHINSTANCE__@@QEAX@Z@4HA 000000018005bf28     LIBCMT:dll_dllmain.obj
 0002:00015f28       $unwind$fputc$fin$0        000000018005bf28     libucrt:fputc.obj
 0002:00015f28       $unwind$?fin$0@?0??dllmain_crt_process_detach@@YAH_N@Z@4HA 000000018005bf28     LIBCMT:dll_dllmain.obj
 0002:00015f28       $unwind$__acrt_update_thread_locale_data$fin$0 000000018005bf28     libucrt:locale_refcounting.obj
 0002:00015f28       $unwind$_read$fin$0        000000018005bf28     libucrt:read.obj
 0002:00015f28       $unwind$__DestructExceptionObject$filt$0 000000018005bf28     libvcruntime:frame.obj
 0002:00015f28       $unwind$?fin$0@?0???$common_ftell@_J@@YA_JV__crt_stdio_stream@@@Z@4HA 000000018005bf28     libucrt:ftell.obj
 0002:00015f28       $unwind$?dtor$0@?0???0?$basic_streambuf@DU?$char_traits@D@std@@@std@@IEAA@XZ@4HA 000000018005bf28     lodepng.obj
 0002:00015f28       $unwind$?dtor$2@?0??KeepChunks@@YAXAEBV?$vector@EV?$allocator@E@std@@@std@@AEBV?$vector@V?$basic_string@DU?$char_traits@D@std@@V?$allocator@D@2@@std@@V?$allocator@V?$basic_string@DU?$char_traits@D@std@@V?$allocator@D@2@@std@@@2@@2@PEAV12@@Z@4HA 000000018005bf28     zopflipng_lib.obj
 0002:00015f28       $unwind$?dtor$1@?0??KeepChunks@@YAXAEBV?$vector@EV?$allocator@E@std@@@std@@AEBV?$vector@V?$basic_string@DU?$char_traits@D@std@@V?$allocator@D@2@@std@@V?$allocator@V?$basic_string@DU?$char_traits@D@std@@V?$allocator@D@2@@std@@@2@@2@PEAV12@@Z@4HA 000000018005bf28     zopflipng_lib.obj
 0002:00015f28       $unwind$?dtor$0@?0???0?$basic_ostream@DU?$char_traits@D@std@@@std@@QEAA@PEAV?$basic_streambuf@DU?$char_traits@D@std@@@1@_N@Z@4HA 000000018005bf28     lodepng.obj
 0002:00015f28       $unwind$?dtor$0@?0??KeepChunks@@YAXAEBV?$vector@EV?$allocator@E@std@@@std@@AEBV?$vector@V?$basic_string@DU?$char_traits@D@std@@V?$allocator@D@2@@std@@V?$allocator@V?$basic_string@DU?$char_traits@D@std@@V?$allocator@D@2@@std@@@2@@2@PEAV12@@Z@4HA 000000018005bf28     zopflipng_lib.obj
 0002:00015f28       $unwind$__FrameUnwindToState$fin$1 000000018005bf28     libvcruntime:frame.obj
 0002:00015f28       $unwind$__FrameUnwindToState$filt$0 000000018005bf28     libvcruntime:frame.obj
 0002:00015f28       $unwind$?dtor$0@?0??push_back@?$vector@V?$basic_string@DU?$char_traits@D@std@@V?$allocator@D@2@@std@@V?$allocator@V?$basic_string@DU?$char_traits@D@std@@V?$allocator@D@2@@std@@@2@@std@@QEAAXAEBV?$basic_string@DU?$char_traits@D@std@@V?$allocator@D@2@@2@@Z@4HA 000000018005bf28     lodepng_util.obj
 0002:00015f28       $unwind$?fin$0@?0???$common_fsopen@D@@YAPEAU_iobuf@@QEBD0H@Z@4HA 000000018005bf28     libucrt:fopen.obj
 0002:00015f28       $unwind$?dtor$1@?0??push_back@?$vector@V?$basic_string@DU?$char_traits@D@std@@V?$allocator@D@2@@std@@V?$allocator@V?$basic_string@DU?$char_traits@D@std@@V?$allocator@D@2@@std@@@2@@std@@QEAAXAEBV?$basic_string@DU?$char_traits@D@std@@V?$allocator@D@2@@2@@Z@4HA 000000018005bf28     lodepng_util.obj
 0002:00015f28       $unwind$ungetc$fin$0       000000018005bf28     libucrt:ungetc.obj
 0002:00015f28       $unwind$__acrt_update_thread_multibyte_data$fin$0 000000018005bf28     libucrt:mbctype.obj
 0002:00015f28       $unwind$fgetc$fin$0        000000018005bf28     libucrt:fgetc.obj
 0002:00015f28       $unwind$_alloc_osfhnd$fin$0 000000018005bf28     libucrt:osfinfo.obj
 0002:00015f28       $unwind$?filt$0@?0??__ArrayUnwind@@YAXPEAX_K1P6AX0@Z@Z@4HA 000000018005bf28     LIBCMT:ehvecdtr.obj
 0002:00015f28       $unwind$?fin$0@?0???$?RV<lambda_630b2aca97f6d20d5b5ea6529ea6b6af>@@AEAV<lambda_af91936f1d075d609f72d9d8cba980af>@@V<lambda_e82fa975f615b5c7c7b0e4d178fdae67>@@@?$__crt_seh_guarded_call@H@@QEAAH$$QEAV<lambda_630b2aca97f6d20d5b5ea6529ea6b6af>@@AEAV<lambda_af91936f1d075d609f72d9d8cba980af>@@$$QEAV<lambda_e82fa975f615b5c7c7b0e4d178fdae67>@@@Z@4HA 000000018005bf28     libucrt:winapi_thunks.obj
 0002:00015f28       $unwind$__CxxCallCatchBlock$filt$0 000000018005bf28     libvcruntime:frame.obj
 0002:00015f28       $unwind$fflush$fin$0       000000018005bf28     libucrt:fflush.obj
 0002:00015f28       $unwind$?fin$0@?0??__acrt_stdio_allocate_stream@@YA?AV__crt_stdio_stream@@XZ@4HA 000000018005bf28     libucrt:stream.obj
 0002:00015f28       $unwind$?fin$0@?0???$?RV<lambda_5d4c3fee44080f75d5d9762853974fe0>@@AEAV<lambda_532e024f4337e6fc7ad266c2bef9f4ed>@@V<lambda_c87bdc10097eb2402edb8ba9bdf0697b>@@@?$__crt_seh_guarded_call@_K@@QEAA_K$$QEAV<lambda_5d4c3fee44080f75d5d9762853974fe0>@@AEAV<lambda_532e024f4337e6fc7ad266c2bef9f4ed>@@$$QEAV<lambda_c87bdc10097eb2402edb8ba9bdf0697b>@@@Z@4HA 000000018005bf28     libucrt:fwrite.obj
 0002:00015f28       $unwind$?fin$0@?0???$?RV<lambda_72d1df2b273a38828b1ce30cbf4cdab5>@@AEAV<lambda_876a65b173b8412d3a47c70a915b0cf4>@@V<lambda_41932305e351933ebe8f8be3ed8bb5dc>@@@?$__crt_seh_guarded_call@X@@QEAAX$$QEAV<lambda_72d1df2b273a38828b1ce30cbf4cdab5>@@AEAV<lambda_876a65b173b8412d3a47c70a915b0cf4>@@$$QEAV<lambda_41932305e351933ebe8f8be3ed8bb5dc>@@@Z@4HA 000000018005bf28     libucrt:per_thread_data.obj
 0002:00015f28       $unwind$?fin$0@?0???_M@YAXPEAX_K1P6AX0@Z@Z@4HA 000000018005bf28     LIBCMT:ehvecdtr.obj
 0002:00015f28       $unwind$common_flush_all$fin$0 000000018005bf28     libucrt:fflush.obj
 0002:00015f28       $unwind$?fin$0@?0???$?RV<lambda_b521505b218e5242e90febf6bfebc422>@@AEAV<lambda_6978c1fb23f02e42e1d9e99668cc68aa>@@V<lambda_314360699dd331753a4119843814e9a7>@@@?$__crt_seh_guarded_call@H@@QEAAH$$QEAV<lambda_b521505b218e5242e90febf6bfebc422>@@AEAV<lambda_6978c1fb23f02e42e1d9e99668cc68aa>@@$$QEAV<lambda_314360699dd331753a4119843814e9a7>@@@Z@4HA 000000018005bf28     libucrt:commit.obj
 0002:00015f28       $unwind$?dtor$0@?0??_Getcat@?$ctype@D@std@@SA_KPEAPEBVfacet@locale@2@PEBV42@@Z@4HA 000000018005bf28     lodepng.obj
 0002:00015f28       $unwind$__acrt_initialize_lowio$fin$0 000000018005bf28     libucrt:ioinit.obj
 0002:00015f28       $unwind$?fin$0@?0???$?RV<lambda_5e887d1dcbef67a5eb4283622ba103bf>@@AEAV<lambda_4466841279450cc726390878d4a41900>@@V<lambda_341c25c0346d94847f1f3c463c57e077>@@@?$__crt_seh_guarded_call@X@@QEAAX$$QEAV<lambda_5e887d1dcbef67a5eb4283622ba103bf>@@AEAV<lambda_4466841279450cc726390878d4a41900>@@$$QEAV<lambda_341c25c0346d94847f1f3c463c57e077>@@@Z@4HA 000000018005bf28     libucrt:per_thread_data.obj
 0002:00015f28       $unwind$common_flush_all$fin$1 000000018005bf28     libucrt:fflush.obj
 0002:00015f28       $unwind$?fin$0@?0???$?RV<lambda_46352004c1216016012b18bd6f87e700>@@AEAV<lambda_3bd07e1a1191394380780325891bf33f>@@V<lambda_334532d3f185bcaa59b5be82d7d22bff>@@@?$__crt_seh_guarded_call@X@@QEAAX$$QEAV<lambda_46352004c1216016012b18bd6f87e700>@@AEAV<lambda_3bd07e1a1191394380780325891bf33f>@@$$QEAV<lambda_334532d3f185bcaa59b5be82d7d22bff>@@@Z@4HA 000000018005bf28     libucrt:per_thread_data.obj
 0002:00015f28       $unwind$?fin$0@?0???$?RV<lambda_fb3a7dec4e47f37f22dae91bb15c9095>@@AEAV<lambda_698284760c8add0bfb0756c19673e34b>@@V<lambda_dfb8eca1e75fef3034a8fb18dd509707>@@@?$__crt_seh_guarded_call@X@@QEAAX$$QEAV<lambda_fb3a7dec4e47f37f22dae91bb15c9095>@@AEAV<lambda_698284760c8add0bfb0756c19673e34b>@@$$QEAV<lambda_dfb8eca1e75fef3034a8fb18dd509707>@@@Z@4HA 000000018005bf28     libucrt:per_thread_data.obj
 0002:00015f28       $unwind$fclose$fin$0       000000018005bf28     libucrt:fclose.obj
 0002:00015f28       $unwind$?dtor$0@?0???0?$basic_ofstream@DU?$char_traits@D@std@@@std@@QEAA@PEBDHH@Z@4HA 000000018005bf28     lodepng.obj
 0002:00015f28       $unwind$?fin$0@?0???_L@YAXPEAX_K1P6AX0@Z2@Z@4HA 000000018005bf28     LIBCMT:ehvecctr.obj
 0002:00015f28       $unwind$?fin$0@?0???$common_lseek@_J@@YA_JH_JH@Z@4HA 000000018005bf28     libucrt:lseek.obj
 0002:00015f28       $unwind$_query_new_handler$fin$0 000000018005bf28     libucrt:new_handler.obj
 0002:00015f28       $unwind$_IsNonwritableInCurrentImage$filt$0 000000018005bf28     LIBCMT:pesect.obj
 0002:00015f28       $unwind$_fcloseall$fin$0   000000018005bf28     libucrt:closeall.obj
 0002:00015f28       $unwind$?fin$0@?0???$?RV<lambda_7b91131dde12e1c3dfc74ff76b3f2eac>@@AEAV<lambda_dd75445284c072d0bd3768540cc698fa>@@V<lambda_16bc4ecb55b4718497c16bceaea2ceaf>@@@?$__crt_seh_guarded_call@H@@QEAAH$$QEAV<lambda_7b91131dde12e1c3dfc74ff76b3f2eac>@@AEAV<lambda_dd75445284c072d0bd3768540cc698fa>@@$$QEAV<lambda_16bc4ecb55b4718497c16bceaea2ceaf>@@@Z@4HA 000000018005bf28     libucrt:output.obj
 0002:00015f28       $unwind$?fin$0@?0???$?RV<lambda_c36588078e9f5dfd39652860aa6b3aaf>@@AEAV<lambda_ec61778202f4f5fc7e7711acc23c3bca>@@V<lambda_dc9d2797ccde5d239b4a0efae8ebd7db>@@@?$__crt_seh_guarded_call@P6AXH@Z@@QEAAP6AXH@Z$$QEAV<lambda_c36588078e9f5dfd39652860aa6b3aaf>@@AEAV<lambda_ec61778202f4f5fc7e7711acc23c3bca>@@$$QEAV<lambda_dc9d2797ccde5d239b4a0efae8ebd7db>@@@Z@4HA 000000018005bf28     libucrt:signal.obj
 0002:00015f28       $unwind$raise$fin$0        000000018005bf28     libucrt:signal.obj
 0002:00015f28       $unwind$?fin$0@?0???$?RV<lambda_b8c45f8f788dd370798f47cfe8ac3a86>@@AEAV<lambda_4e60a939b0d047cfe11ddc22648dfba9>@@V<lambda_332c3edc96d0294ec56c57d38c1cdfd5>@@@?$__crt_seh_guarded_call@H@@QEAAH$$QEAV<lambda_b8c45f8f788dd370798f47cfe8ac3a86>@@AEAV<lambda_4e60a939b0d047cfe11ddc22648dfba9>@@$$QEAV<lambda_332c3edc96d0294ec56c57d38c1cdfd5>@@@Z@4HA 000000018005bf28     libucrt:onexit.obj
 0002:00015f28       $unwind$?fin$0@?0???$?RV<lambda_aa279a7bcb127014629d5b1d62c7325d>@@AEAV<lambda_0a64b6a4deda75c01876f29c44fc5eb3>@@V<lambda_3323e69fbefe9d1a11713e670d47cdfa>@@@?$__crt_seh_guarded_call@H@@QEAAH$$QEAV<lambda_aa279a7bcb127014629d5b1d62c7325d>@@AEAV<lambda_0a64b6a4deda75c01876f29c44fc5eb3>@@$$QEAV<lambda_3323e69fbefe9d1a11713e670d47cdfa>@@@Z@4HA 000000018005bf28     libucrt:output.obj
 0002:00015f28       $unwind$?fin$0@?0???$?RV<lambda_e24bbb7b643b32fcea6fa61b31d4c984>@@AEAV<lambda_275893d493268fdec8709772e3fcec0e>@@V<lambda_9d71df4d7cf3f480f8d633942495c3b0>@@@?$__crt_seh_guarded_call@H@@QEAAH$$QEAV<lambda_e24bbb7b643b32fcea6fa61b31d4c984>@@AEAV<lambda_275893d493268fdec8709772e3fcec0e>@@$$QEAV<lambda_9d71df4d7cf3f480f8d633942495c3b0>@@@Z@4HA 000000018005bf28     libucrt:onexit.obj
 0002:00015f28       $unwind$?fin$0@?0???$?RV<lambda_d67e8342c384adda8f857579ab50b2ae>@@AEAV<lambda_30712929f77e709619002f448b6a9510>@@V<lambda_4525336fd7e478d965fb7ca7a337cad8>@@@?$__crt_seh_guarded_call@X@@QEAAX$$QEAV<lambda_d67e8342c384adda8f857579ab50b2ae>@@AEAV<lambda_30712929f77e709619002f448b6a9510>@@$$QEAV<lambda_4525336fd7e478d965fb7ca7a337cad8>@@@Z@4HA 000000018005bf28     libucrt:wsetlocale.obj
 0002:00015f28       $unwind$?dtor$3@?0??KeepChunks@@YAXAEBV?$vector@EV?$allocator@E@std@@@std@@AEBV?$vector@V?$basic_string@DU?$char_traits@D@std@@V?$allocator@D@2@@std@@V?$allocator@V?$basic_string@DU?$char_traits@D@std@@V?$allocator@D@2@@std@@@2@@2@PEAV12@@Z@4HA 000000018005bf28     zopflipng_lib.obj
 0002:00015f28       $unwind$common_control87$filt$0 000000018005bf28     libucrt:ieee.obj
 0002:00015f28       $unwind$_write$fin$0       000000018005bf28     libucrt:write.obj
 0002:00015f28       $unwind$?fin$0@?0???$?RV<lambda_99476a1ad63dd22509b5d3e65b0ffc95>@@AEAV<lambda_ad1ced32f4ac17aa236e5ef05d6b3b7c>@@V<lambda_f7424dd8d45958661754dc4f2697e9c3>@@@?$__crt_seh_guarded_call@X@@QEAAX$$QEAV<lambda_99476a1ad63dd22509b5d3e65b0ffc95>@@AEAV<lambda_ad1ced32f4ac17aa236e5ef05d6b3b7c>@@$$QEAV<lambda_f7424dd8d45958661754dc4f2697e9c3>@@@Z@4HA 000000018005bf28     libucrt:mbctype.obj
 0002:00015f28       $unwind$?dtor$0@?0??_Init@ios_base@std@@IEAAXXZ@4HA 000000018005bf28     lodepng.obj
 0002:00015f28       $unwind$?dtor$4@?0??KeepChunks@@YAXAEBV?$vector@EV?$allocator@E@std@@@std@@AEBV?$vector@V?$basic_string@DU?$char_traits@D@std@@V?$allocator@D@2@@std@@V?$allocator@V?$basic_string@DU?$char_traits@D@std@@V?$allocator@D@2@@std@@@2@@2@PEAV12@@Z@4HA 000000018005bf28     zopflipng_lib.obj
 0002:00015f28       $unwind$?fin$0@?0???$?RV<lambda_7a5ef57ff966f610505f1d28a3d40618>@@AEAV<lambda_b721fa326cdb32351d23dfa67958c160>@@V<lambda_5e0fb27672408a07956fe59e48ccb2aa>@@@?$__crt_seh_guarded_call@H@@QEAAH$$QEAV<lambda_7a5ef57ff966f610505f1d28a3d40618>@@AEAV<lambda_b721fa326cdb32351d23dfa67958c160>@@$$QEAV<lambda_5e0fb27672408a07956fe59e48ccb2aa>@@@Z@4HA 000000018005bf28     libucrt:setvbuf.obj
 0002:00015f28       $unwind$?dtor$1@?0??Async@CompressBinding@nodezopfli@@SAXAEBV?$FunctionCallbackInfo@VValue@v8@@@Nan@@@Z@4HA 000000018005bf28     zopfli-binding.obj
 0002:00015f28       $unwind$?dtor$0@?0??Async@CompressBinding@nodezopfli@@SAXAEBV?$FunctionCallbackInfo@VValue@v8@@@Nan@@@Z@4HA 000000018005bf28     zopfli-binding.obj
 0002:00015f28       $unwind$?fin$0@?0???$?RV<lambda_5df02c53a8f32f81fd64e5bbb78039f1>@@AEAV<lambda_2af78c5f5901b1372d98f9ab3177dfa6>@@AEAV<lambda_f51fe5fd7c79a33db34fc9310f277369>@@@?$__crt_seh_guarded_call@X@@QEAAX$$QEAV<lambda_5df02c53a8f32f81fd64e5bbb78039f1>@@AEAV<lambda_2af78c5f5901b1372d98f9ab3177dfa6>@@AEAV<lambda_f51fe5fd7c79a33db34fc9310f277369>@@@Z@4HA 000000018005bf28     libucrt:wsetlocale.obj
 0002:00015f28       $unwind$?fin$0@?0???$?RV<lambda_bfedae4ebbf01fab1bb6dcc6a9e276e0>@@AEAV<lambda_2fe9b910cf3cbf4a0ab98a02ba45b3ec>@@V<lambda_237c231691f317818eb88cc1d5d642d6>@@@?$__crt_seh_guarded_call@H@@QEAAH$$QEAV<lambda_bfedae4ebbf01fab1bb6dcc6a9e276e0>@@AEAV<lambda_2fe9b910cf3cbf4a0ab98a02ba45b3ec>@@$$QEAV<lambda_237c231691f317818eb88cc1d5d642d6>@@@Z@4HA 000000018005bf28     libucrt:close.obj
 0002:00015f28       $unwind$?filt$0@?0??common_exit@@YAXHW4_crt_exit_cleanup_mode@@W4_crt_exit_return_mode@@@Z@4HA 000000018005bf28     libucrt:exit.obj
 0002:00015f28       $unwind$?fin$1@?0??common_exit@@YAXHW4_crt_exit_cleanup_mode@@W4_crt_exit_return_mode@@@Z@4HA 000000018005bf28     libucrt:exit.obj
 0002:00015f28       $unwind$?fin$0@?0??common_fseek@@YAHV__crt_stdio_stream@@_JH@Z@4HA 000000018005bf28     libucrt:fseek.obj
 0002:00015f28       $unwind$_ctrlfp$filt$0     000000018005bf28     libucrt:fpctrl.obj
 0002:00015f28       $unwind$?dtor$9@?0??ZopfliPNGOptimize@@YAHAEBV?$vector@EV?$allocator@E@std@@@std@@AEBUZopfliPNGOptions@@_NPEAV12@@Z@4HA 000000018005bf28     zopflipng_lib.obj
 0002:00015f28       $unwind$?dtor$0@?0???0?$basic_ifstream@DU?$char_traits@D@std@@@std@@QEAA@PEBDHH@Z@4HA 000000018005bf28     lodepng.obj
 0002:00015f28       $unwind$__acrt_lowio_ensure_fh_exists$fin$0 000000018005bf28     libucrt:osfinfo.obj
 0002:00015f30       $unwind$?Sync@CompressBinding@nodezopfli@@SAXAEBV?$FunctionCallbackInfo@VValue@v8@@@Nan@@@Z 000000018005bf30     zopfli-binding.obj
 0002:00015f50       $unwind$?Adler32@nodezopfli@@YAXAEBV?$FunctionCallbackInfo@VValue@v8@@@Nan@@@Z 000000018005bf50     zopfli-binding.obj
 0002:00015f58       $chain$1$?Adler32@nodezopfli@@YAXAEBV?$FunctionCallbackInfo@VValue@v8@@@Nan@@@Z 000000018005bf58     zopfli-binding.obj
 0002:00015f70       $chain$2$?Adler32@nodezopfli@@YAXAEBV?$FunctionCallbackInfo@VValue@v8@@@Nan@@@Z 000000018005bf70     zopfli-binding.obj
 0002:00015f84       $chain$3$?Adler32@nodezopfli@@YAXAEBV?$FunctionCallbackInfo@VValue@v8@@@Nan@@@Z 000000018005bf84     zopfli-binding.obj
 0002:00015f94       $chain$5$?Adler32@nodezopfli@@YAXAEBV?$FunctionCallbackInfo@VValue@v8@@@Nan@@@Z 000000018005bf94     zopfli-binding.obj
 0002:00015fac       $chain$6$?Adler32@nodezopfli@@YAXAEBV?$FunctionCallbackInfo@VValue@v8@@@Nan@@@Z 000000018005bfac     zopfli-binding.obj
 0002:00015fc0       $unwind$?Init@nodezopfli@@YAXV?$Local@VObject@v8@@@v8@@@Z 000000018005bfc0     zopfli-binding.obj
 0002:00015fc8       $unwind$_exception_enabled 000000018005bfc8     libucrt:libm_error.obj
 0002:00015fc8       $unwind$__acrt_FlsSetValue 000000018005bfc8     libucrt:winapi_thunks.obj
 0002:00015fc8       $unwind$?ucvector_resize@@YAIPEAUucvector@@_K@Z 000000018005bfc8     lodepng.obj
 0002:00015fc8       $unwind$?type_case_s@?$output_processor@_WV?$string_output_adapter@_W@__crt_stdio_output@@V?$standard_base@_WV?$string_output_adapter@_W@__crt_stdio_output@@@2@@__crt_stdio_output@@AEAA_NXZ 000000018005bfc8     libucrt:output.obj
 0002:00015fc8       $unwind$__acrt_GetUserDefaultLocaleName 000000018005bfc8     libucrt:winapi_thunks.obj
 0002:00015fc8       $unwind$?type_case_Z@?$output_processor@_WV?$string_output_adapter@_W@__crt_stdio_output@@V?$standard_base@_WV?$string_output_adapter@_W@__crt_stdio_output@@@2@@__crt_stdio_output@@AEAA_NXZ 000000018005bfc8     libucrt:output.obj
 0002:00015fc8       $unwind$__acrt_stdio_flush_and_write_wide_nolock 000000018005bfc8     libucrt:_flsbuf.obj
 0002:00015fc8       $unwind$?close@?$basic_filebuf@DU?$char_traits@D@std@@@std@@QEAAPEAV12@XZ 000000018005bfc8     lodepng.obj
 0002:00015fc8       $unwind$?uivector_resize@@YAIPEAUuivector@@_K@Z 000000018005bfc8     lodepng.obj
 0002:00015fc8       $unwind$_initterm_e        000000018005bfc8     libucrt:initterm.obj
 0002:00015fc8       $unwind$??R<lambda_ad1ced32f4ac17aa236e5ef05d6b3b7c>@@QEBAXXZ 000000018005bfc8     libucrt:mbctype.obj
 0002:00015fc8       $unwind$__acrt_LocaleNameToLCID 000000018005bfc8     libucrt:winapi_thunks.obj
 0002:00015fc8       $unwind$?lodepng_color_mode_copy@@YAIPEAULodePNGColorMode@@PEBU1@@Z 000000018005bfc8     lodepng.obj
 0002:00015fc8       $unwind$_DllMainCRTStartup 000000018005bfc8     LIBCMT:dll_dllmain.obj
 0002:00015fc8       $unwind$_RTC_Terminate     000000018005bfc8     LIBCMT:_initsect_.obj
 0002:00015fc8       $unwind$?writeSignature@@YAXPEAUucvector@@@Z 000000018005bfc8     lodepng.obj
 0002:00015fc8       $unwind$?generateFixedDistanceTree@@YAIPEAUHuffmanTree@@@Z 000000018005bfc8     lodepng.obj
 0002:00015fc8       $unwind$__vcrt_FlsSetValue 000000018005bfc8     libvcruntime:winapi_downlevel.obj
 0002:00015fc8       $unwind$?generateFixedLitLenTree@@YAIPEAUHuffmanTree@@@Z 000000018005bfc8     lodepng.obj
 0002:00015fc8       $unwind$memcpy_s           000000018005bfc8     libucrt:strtod.obj
 0002:00015fc8       $unwind$?type_case_n@?$output_processor@_WV?$string_output_adapter@_W@__crt_stdio_output@@V?$standard_base@_WV?$string_output_adapter@_W@__crt_stdio_output@@@2@@__crt_stdio_output@@AEAA_NXZ 000000018005bfc8     libucrt:output.obj
 0002:00015fc8       $unwind$?_Tidy@ios_base@std@@AEAAXXZ 000000018005bfc8     libcpmt:ios.obj
 0002:00015fc8       $unwind$?string_set@@YAXPEAPEADPEBD@Z 000000018005bfc8     lodepng.obj
 0002:00015fc8       $unwind$__acrt_stdio_flush_and_write_narrow_nolock 000000018005bfc8     libucrt:_flsbuf.obj
 0002:00015fc8       $unwind$??R<lambda_532e024f4337e6fc7ad266c2bef9f4ed>@@QEBA_KXZ 000000018005bfc8     libucrt:fwrite.obj
 0002:00015fc8       $unwind$??_G?$basic_streambuf@DU?$char_traits@D@std@@@std@@UEAAPEAXI@Z 000000018005bfc8     lodepng.obj
 0002:00015fc8       $unwind$??4?$_Yarn@D@std@@QEAAAEAV01@PEBD@Z 000000018005bfc8     libcpmt:locale0.obj
 0002:00015fc8       $unwind$_RTC_Initialize    000000018005bfc8     LIBCMT:_initsect_.obj
 0002:00015fc8       $unwind$?type_case_Z@?$output_processor@DV?$stream_output_adapter@D@__crt_stdio_output@@V?$standard_base@DV?$stream_output_adapter@D@__crt_stdio_output@@@2@@__crt_stdio_output@@AEAA_NXZ 000000018005bfc8     libucrt:output.obj
 0002:00015fc8       $unwind$??0_Init_locks@std@@QEAA@XZ 000000018005bfc8     libcpmt:xlock.obj
 0002:00015fc8       $unwind$_Init_thread_wait  000000018005bfc8     LIBCMT:thread_safe_statics.obj
 0002:00015fc8       $unwind$?type_case_n@?$output_processor@_WV?$stream_output_adapter@_W@__crt_stdio_output@@V?$standard_base@_WV?$stream_output_adapter@_W@__crt_stdio_output@@@2@@__crt_stdio_output@@AEAA_NXZ 000000018005bfc8     libucrt:output.obj
 0002:00015fc8       $unwind$?type_case_s@?$output_processor@DV?$stream_output_adapter@D@__crt_stdio_output@@V?$standard_base@DV?$stream_output_adapter@D@__crt_stdio_output@@@2@@__crt_stdio_output@@AEAA_NXZ 000000018005bfc8     libucrt:output.obj
 0002:00015fc8       $unwind$?__scrt_initialize_thread_safe_statics@@YAHXZ 000000018005bfc8     LIBCMT:thread_safe_statics.obj
 0002:00015fc8       $unwind$__acrt_stdio_flush_nolock 000000018005bfc8     libucrt:fflush.obj
 0002:00015fc8       $unwind$AddSorted          000000018005bfc8     blocksplitter.obj
 0002:00015fc8       $unwind$?type_case_n@?$output_processor@DV?$stream_output_adapter@D@__crt_stdio_output@@V?$standard_base@DV?$stream_output_adapter@D@__crt_stdio_output@@@2@@__crt_stdio_output@@AEAA_NXZ 000000018005bfc8     libucrt:output.obj
 0002:00015fc8       $unwind$?type_case_s@?$output_processor@_WV?$stream_output_adapter@_W@__crt_stdio_output@@V?$standard_base@_WV?$stream_output_adapter@_W@__crt_stdio_output@@@2@@__crt_stdio_output@@AEAA_NXZ 000000018005bfc8     libucrt:output.obj
 0002:00015fc8       $unwind$?free_crt_array_internal@@YAXQEAPEBX_K@Z 000000018005bfc8     libucrt:inittime.obj
 0002:00015fc8       $unwind$?type_case_Z@?$output_processor@_WV?$stream_output_adapter@_W@__crt_stdio_output@@V?$standard_base@_WV?$stream_output_adapter@_W@__crt_stdio_output@@@2@@__crt_stdio_output@@AEAA_NXZ 000000018005bfc8     libucrt:output.obj
 0002:00015fc8       $unwind$__acrt_execute_uninitializers 000000018005bfc8     libucrt:shared_initialization.obj
 0002:00015fc8       $unwind$?assign@?$basic_string@DU?$char_traits@D@std@@V?$allocator@D@2@@std@@QEAAAEAV12@PEBD_K@Z 000000018005bfc8     zopfli-binding.obj
 0002:00015fc8       $unwind$__vcrt_getptd_noexit 000000018005bfc8     libvcruntime:per_thread_data.obj
 0002:00015fc8       $unwind$?clear@?$_Tree@V?$_Tset_traits@IU?$less@I@std@@V?$allocator@I@2@$0A@@std@@@std@@QEAAXXZ 000000018005bfc8     zopflipng_lib.obj
 0002:00015fc8       $unwind$??$common_lseek_nolock@_J@@YA_JH_JH@Z 000000018005bfc8     libucrt:lseek.obj
 0002:00015fc8       $unwind$?resize@?$vector@V?$vector@EV?$allocator@E@std@@@std@@V?$allocator@V?$vector@EV?$allocator@E@std@@@std@@@2@@std@@QEAAX_K@Z 000000018005bfc8     lodepng_util.obj
 0002:00015fc8       $unwind$__acrt_getptd_noexit 000000018005bfc8     libucrt:per_thread_data.obj
 0002:00015fc8       $unwind$memcpy_s           000000018005bfc8     libucrt:cfout.obj
 0002:00015fc8       $unwind$?resize@?$vector@EV?$allocator@E@std@@@std@@QEAAX_KAEBE@Z 000000018005bfc8     zopflipng_lib.obj
 0002:00015fc8       $unwind$?_Erase@?$_Tree@V?$_Tset_traits@IU?$less@I@std@@V?$allocator@I@2@$0A@@std@@@std@@IEAAXPEAU?$_Tree_node@IPEAX@2@@Z 000000018005bfc8     zopflipng_lib.obj
 0002:00015fd8       $unwind$?assign@?$basic_string@DU?$char_traits@D@std@@V?$allocator@D@2@@std@@QEAAAEAV12@AEBV12@_K1@Z 000000018005bfd8     zopfli-binding.obj
 0002:00015fd8       $unwind$?initialize_stdio_handles_nolock@@YAXXZ 000000018005bfd8     libucrt:ioinit.obj
 0002:00015fd8       $unwind$?hash_init@@YAIPEAUHash@@I@Z 000000018005bfd8     lodepng.obj
 0002:00015fd8       $unwind$??$_Insert_at@AEBIU_Nil@std@@@?$_Tree@V?$_Tset_traits@IU?$less@I@std@@V?$allocator@I@2@$0A@@std@@@std@@IEAA?AV?$_Tree_const_iterator@V?$_Tree_val@U?$_Tree_simple_types@I@std@@@std@@@1@_NPEAU?$_Tree_node@IPEAX@1@AEBIU_Nil@1@@Z 000000018005bfd8     zopflipng_lib.obj
 0002:00015fd8       $unwind$_wcstombs_s_l      000000018005bfd8     libucrt:wcstombs.obj
 0002:00015fd8       $unwind$__std_exception_copy 000000018005bfd8     libvcruntime:std_exception.obj
 0002:00015fd8       $unwind$?LodePNGUnknownChunks_copy@@YAIPEAULodePNGInfo@@PEBU1@@Z 000000018005bfd8     lodepng.obj
 0002:00015fd8       $unwind$_free_osfhnd       000000018005bfd8     libucrt:osfinfo.obj
 0002:00015fec       $unwind$?_Copy@?$basic_string@DU?$char_traits@D@std@@V?$allocator@D@2@@std@@QEAAX_K0@Z 000000018005bfec     zopfli-binding.obj
 0002:00016000       $unwind$??$SetMethod@VObject@v8@@VLocal@2@@Nan@@YAXV?$Local@VObject@v8@@@v8@@PEBDP6AXAEBV?$FunctionCallbackInfo@VValue@v8@@@0@@Z@Z 000000018005c000     zopfli-binding.obj
 0002:00016014       $stateUnwindMap$??$SetMethod@VObject@v8@@VLocal@2@@Nan@@YAXV?$Local@VObject@v8@@@v8@@PEBDP6AXAEBV?$FunctionCallbackInfo@VValue@v8@@@0@@Z@Z 000000018005c014     zopfli-binding.obj
 0002:00016020       $ip2state$??$SetMethod@VObject@v8@@VLocal@2@@Nan@@YAXV?$Local@VObject@v8@@@v8@@PEBDP6AXAEBV?$FunctionCallbackInfo@VValue@v8@@@0@@Z@Z 000000018005c020     zopfli-binding.obj
 0002:00016038       $unwind$??$SetMethodAux@V?$Local@VObject@v8@@@v8@@@imp@Nan@@YAXV?$Local@VObject@v8@@@v8@@V?$Local@VString@v8@@@3@V?$Local@VFunctionTemplate@v8@@@3@ZZ 000000018005c038     zopfli-binding.obj
 0002:00016040       $unwind$printf             000000018005c040     zopflipng.obj
 0002:0001604c       $unwind$?convert@?$ToFactory@VInteger@v8@@@imp@Nan@@SA?AV?$MaybeLocal@VInteger@v8@@@v8@@V?$Local@VValue@v8@@@5@@Z 000000018005c04c     zopflipng.obj
